
fresh_beets.elf:     file format elf32-littlenios2
fresh_beets.elf
architecture: nios2:r1, flags 0x00000112:
EXEC_P, HAS_SYMS, D_PAGED
start address 0x00800244

Program Header:
    LOAD off    0x00001000 vaddr 0x00800000 paddr 0x00800000 align 2**12
         filesz 0x00000020 memsz 0x00000020 flags r-x
    LOAD off    0x00001020 vaddr 0x00800020 paddr 0x00800020 align 2**12
         filesz 0x000138f0 memsz 0x000138f0 flags r-x
    LOAD off    0x00014910 vaddr 0x00813910 paddr 0x008155e8 align 2**12
         filesz 0x00001cd8 memsz 0x00001cd8 flags rw-
    LOAD off    0x000172c0 vaddr 0x008172c0 paddr 0x008172c0 align 2**12
         filesz 0x00000000 memsz 0x00000338 flags rw-

Sections:
Idx Name          Size      VMA       LMA       File off  Algn
  0 .entry        00000020  00800000  00800000  00001000  2**5
                  CONTENTS, ALLOC, LOAD, READONLY, CODE
  1 .exceptions   00000224  00800020  00800020  00001020  2**2
                  CONTENTS, ALLOC, LOAD, READONLY, CODE
  2 .text         000130d0  00800244  00800244  00001244  2**2
                  CONTENTS, ALLOC, LOAD, READONLY, CODE
  3 .rodata       000005fc  00813314  00813314  00014314  2**2
                  CONTENTS, ALLOC, LOAD, READONLY, DATA
  4 .rwdata       00001cd8  00813910  008155e8  00014910  2**2
                  CONTENTS, ALLOC, LOAD, DATA, SMALL_DATA
  5 .bss          00000338  008172c0  008172c0  000172c0  2**2
                  ALLOC, SMALL_DATA
  6 .sdram        00000000  008175f8  008175f8  000165e8  2**0
                  CONTENTS
  7 .onchip_mem   00000000  01080000  01080000  000165e8  2**0
                  CONTENTS
  8 .comment      00000023  00000000  00000000  000165e8  2**0
                  CONTENTS, READONLY
  9 .debug_aranges 00000fc8  00000000  00000000  00016610  2**3
                  CONTENTS, READONLY, DEBUGGING
 10 .debug_info   00025e42  00000000  00000000  000175d8  2**0
                  CONTENTS, READONLY, DEBUGGING
 11 .debug_abbrev 000098cf  00000000  00000000  0003d41a  2**0
                  CONTENTS, READONLY, DEBUGGING
 12 .debug_line   0000ccf9  00000000  00000000  00046ce9  2**0
                  CONTENTS, READONLY, DEBUGGING
 13 .debug_frame  00002610  00000000  00000000  000539e4  2**2
                  CONTENTS, READONLY, DEBUGGING
 14 .debug_str    00004577  00000000  00000000  00055ff4  2**0
                  CONTENTS, READONLY, DEBUGGING
 15 .debug_loc    00017751  00000000  00000000  0005a56b  2**0
                  CONTENTS, READONLY, DEBUGGING
 16 .debug_alt_sim_info 00000060  00000000  00000000  00071cbc  2**2
                  CONTENTS, READONLY, DEBUGGING
 17 .debug_ranges 000018a8  00000000  00000000  00071d20  2**3
                  CONTENTS, READONLY, DEBUGGING
 18 .thread_model 00000003  00000000  00000000  0007871d  2**0
                  CONTENTS, READONLY
 19 .cpu          00000003  00000000  00000000  00078720  2**0
                  CONTENTS, READONLY
 20 .qsys         00000001  00000000  00000000  00078723  2**0
                  CONTENTS, READONLY
 21 .simulation_enabled 00000001  00000000  00000000  00078724  2**0
                  CONTENTS, READONLY
 22 .sysid_hash   00000004  00000000  00000000  00078725  2**0
                  CONTENTS, READONLY
 23 .sysid_base   00000004  00000000  00000000  00078729  2**0
                  CONTENTS, READONLY
 24 .sysid_time   00000004  00000000  00000000  0007872d  2**0
                  CONTENTS, READONLY
 25 .stderr_dev   00000009  00000000  00000000  00078731  2**0
                  CONTENTS, READONLY
 26 .stdin_dev    00000009  00000000  00000000  0007873a  2**0
                  CONTENTS, READONLY
 27 .stdout_dev   00000009  00000000  00000000  00078743  2**0
                  CONTENTS, READONLY
 28 .sopc_system_name 0000000c  00000000  00000000  0007874c  2**0
                  CONTENTS, READONLY
 29 .quartus_project_dir 0000002e  00000000  00000000  00078758  2**0
                  CONTENTS, READONLY
 30 .sopcinfo     0006ef27  00000000  00000000  00078786  2**0
                  CONTENTS, READONLY
SYMBOL TABLE:
00800000 l    d  .entry	00000000 .entry
00800020 l    d  .exceptions	00000000 .exceptions
00800244 l    d  .text	00000000 .text
00813314 l    d  .rodata	00000000 .rodata
00813910 l    d  .rwdata	00000000 .rwdata
008172c0 l    d  .bss	00000000 .bss
008175f8 l    d  .sdram	00000000 .sdram
01080000 l    d  .onchip_mem	00000000 .onchip_mem
00000000 l    d  .comment	00000000 .comment
00000000 l    d  .debug_aranges	00000000 .debug_aranges
00000000 l    d  .debug_info	00000000 .debug_info
00000000 l    d  .debug_abbrev	00000000 .debug_abbrev
00000000 l    d  .debug_line	00000000 .debug_line
00000000 l    d  .debug_frame	00000000 .debug_frame
00000000 l    d  .debug_str	00000000 .debug_str
00000000 l    d  .debug_loc	00000000 .debug_loc
00000000 l    d  .debug_alt_sim_info	00000000 .debug_alt_sim_info
00000000 l    d  .debug_ranges	00000000 .debug_ranges
00000000 l    df *ABS*	00000000 ../fresh_beets_bsp//obj/HAL/src/crt0.o
0080028c l       .text	00000000 alt_after_alt_main
00000000 l    df *ABS*	00000000 alt_irq_handler.c
00000000 l    df *ABS*	00000000 alt_instruction_exception_entry.c
00000000 l    df *ABS*	00000000 hello_world.c
00000000 l    df *ABS*	00000000 pacemaker.c
00000000 l    df *ABS*	00000000 printf.c
00000000 l    df *ABS*	00000000 vfprintf.c
008133c6 l     O .rodata	00000010 zeroes.4404
00804c24 l     F .text	000000bc __sbprintf
008133d6 l     O .rodata	00000010 blanks.4403
00000000 l    df *ABS*	00000000 wsetup.c
00000000 l    df *ABS*	00000000 dtoa.c
00804e34 l     F .text	00000200 quorem
00000000 l    df *ABS*	00000000 fflush.c
00000000 l    df *ABS*	00000000 findfp.c
00806964 l     F .text	00000008 __fp_unlock
00806978 l     F .text	0000019c __sinit.part.1
00806b14 l     F .text	00000008 __fp_lock
00000000 l    df *ABS*	00000000 mallocr.c
00000000 l    df *ABS*	00000000 fwalk.c
00000000 l    df *ABS*	00000000 impure.c
00813910 l     O .rwdata	00000424 impure_data
00000000 l    df *ABS*	00000000 locale.c
00813d54 l     O .rwdata	00000020 lc_ctype_charset
00813d34 l     O .rwdata	00000020 lc_message_charset
00813d74 l     O .rwdata	00000038 lconv
00000000 l    df *ABS*	00000000 makebuf.c
00000000 l    df *ABS*	00000000 mallocr.c
00000000 l    df *ABS*	00000000 memchr.c
00000000 l    df *ABS*	00000000 memcpy.c
00000000 l    df *ABS*	00000000 memset.c
00000000 l    df *ABS*	00000000 mprec.c
00813408 l     O .rodata	0000000c p05.2768
00000000 l    df *ABS*	00000000 s_fpclassify.c
00000000 l    df *ABS*	00000000 sbrkr.c
00000000 l    df *ABS*	00000000 stdio.c
00000000 l    df *ABS*	00000000 strcmp.c
00000000 l    df *ABS*	00000000 strlen.c
00000000 l    df *ABS*	00000000 vfprintf.c
0080942c l     F .text	000000fc __sprint_r.part.0
0081353c l     O .rodata	00000010 blanks.4348
0081352c l     O .rodata	00000010 zeroes.4349
0080a9b8 l     F .text	000000bc __sbprintf
00000000 l    df *ABS*	00000000 writer.c
00000000 l    df *ABS*	00000000 closer.c
00000000 l    df *ABS*	00000000 mallocr.c
00000000 l    df *ABS*	00000000 fclose.c
00000000 l    df *ABS*	00000000 fputwc.c
00000000 l    df *ABS*	00000000 fstatr.c
00000000 l    df *ABS*	00000000 fvwrite.c
00000000 l    df *ABS*	00000000 int_errno.c
00000000 l    df *ABS*	00000000 isattyr.c
00000000 l    df *ABS*	00000000 lseekr.c
00000000 l    df *ABS*	00000000 memmove.c
00000000 l    df *ABS*	00000000 readr.c
00000000 l    df *ABS*	00000000 mallocr.c
00000000 l    df *ABS*	00000000 wbuf.c
00000000 l    df *ABS*	00000000 wcrtomb.c
00000000 l    df *ABS*	00000000 wctomb_r.c
00000000 l    df *ABS*	00000000 libgcc2.c
00000000 l    df *ABS*	00000000 libgcc2.c
00000000 l    df *ABS*	00000000 lib2-divmod.c
00000000 l    df *ABS*	00000000 adddf3.c
00000000 l    df *ABS*	00000000 divdf3.c
00000000 l    df *ABS*	00000000 eqdf2.c
00000000 l    df *ABS*	00000000 gedf2.c
00000000 l    df *ABS*	00000000 ledf2.c
00000000 l    df *ABS*	00000000 muldf3.c
00000000 l    df *ABS*	00000000 subdf3.c
00000000 l    df *ABS*	00000000 fixdfsi.c
00000000 l    df *ABS*	00000000 floatsidf.c
00000000 l    df *ABS*	00000000 floatunsidf.c
00000000 l    df *ABS*	00000000 libgcc2.c
00000000 l    df *ABS*	00000000 libgcc2.c
00000000 l    df *ABS*	00000000 alt_alarm_start.c
00000000 l    df *ABS*	00000000 alt_close.c
0080f31c l     F .text	0000003c alt_get_errno
00000000 l    df *ABS*	00000000 alt_dev.c
0080f428 l     F .text	0000002c alt_dev_null_write
00000000 l    df *ABS*	00000000 alt_errno.c
00000000 l    df *ABS*	00000000 alt_fstat.c
0080f454 l     F .text	0000003c alt_get_errno
00000000 l    df *ABS*	00000000 alt_isatty.c
0080f540 l     F .text	0000003c alt_get_errno
00000000 l    df *ABS*	00000000 alt_load.c
0080f620 l     F .text	00000068 alt_load_section
00000000 l    df *ABS*	00000000 alt_lseek.c
0080f70c l     F .text	0000003c alt_get_errno
00000000 l    df *ABS*	00000000 alt_main.c
00000000 l    df *ABS*	00000000 alt_malloc_lock.c
00000000 l    df *ABS*	00000000 alt_read.c
0080f8e0 l     F .text	0000003c alt_get_errno
00000000 l    df *ABS*	00000000 alt_release_fd.c
00000000 l    df *ABS*	00000000 alt_sbrk.c
008155d0 l     O .rwdata	00000004 heap_end
00000000 l    df *ABS*	00000000 alt_tick.c
00000000 l    df *ABS*	00000000 alt_write.c
0080fcd0 l     F .text	0000003c alt_get_errno
00000000 l    df *ABS*	00000000 alt_sys_init.c
0080fe04 l     F .text	00000034 alt_dev_reg
0081435c l     O .rwdata	00001060 jtag_uart
008153bc l     O .rwdata	00000120 lcd
008154dc l     O .rwdata	000000c4 uart
00000000 l    df *ABS*	00000000 altera_avalon_jtag_uart_fd.c
00000000 l    df *ABS*	00000000 altera_avalon_jtag_uart_init.c
00810130 l     F .text	0000020c altera_avalon_jtag_uart_irq
0081033c l     F .text	000000a0 altera_avalon_jtag_uart_timeout
00000000 l    df *ABS*	00000000 altera_avalon_jtag_uart_ioctl.c
00000000 l    df *ABS*	00000000 altera_avalon_jtag_uart_read.c
00000000 l    df *ABS*	00000000 altera_avalon_jtag_uart_write.c
00000000 l    df *ABS*	00000000 altera_avalon_lcd_16207.c
008155dc l     O .rwdata	00000004 colstart
00810974 l     F .text	000000b8 lcd_write_command
00810a2c l     F .text	000000d8 lcd_write_data
00810b04 l     F .text	000000d0 lcd_clear_screen
00810bd4 l     F .text	000001ec lcd_repaint_screen
00810dc0 l     F .text	000000cc lcd_scroll_up
00810e8c l     F .text	000002ac lcd_handle_escape
00811610 l     F .text	000000ac alt_lcd_16207_timeout
00000000 l    df *ABS*	00000000 altera_avalon_lcd_16207_fd.c
00000000 l    df *ABS*	00000000 altera_avalon_timer_sc.c
00811850 l     F .text	00000078 alt_avalon_timer_sc_irq
00000000 l    df *ABS*	00000000 altera_avalon_uart_fd.c
00000000 l    df *ABS*	00000000 altera_avalon_uart_init.c
00811b00 l     F .text	0000009c altera_avalon_uart_irq
00811b9c l     F .text	000000e4 altera_avalon_uart_rxirq
00811c80 l     F .text	00000148 altera_avalon_uart_txirq
00000000 l    df *ABS*	00000000 altera_avalon_uart_read.c
00811e1c l     F .text	0000003c alt_get_errno
00000000 l    df *ABS*	00000000 altera_avalon_uart_write.c
00812034 l     F .text	0000003c alt_get_errno
00000000 l    df *ABS*	00000000 alt_dcache_flush_all.c
00000000 l    df *ABS*	00000000 alt_dev_llist_insert.c
00812264 l     F .text	0000003c alt_get_errno
00000000 l    df *ABS*	00000000 alt_do_ctors.c
00000000 l    df *ABS*	00000000 alt_do_dtors.c
00000000 l    df *ABS*	00000000 alt_icache_flush_all.c
00000000 l    df *ABS*	00000000 alt_iic.c
00000000 l    df *ABS*	00000000 alt_iic_isr_register.c
00000000 l    df *ABS*	00000000 alt_io_redirect.c
008126d8 l     F .text	000000c4 alt_open_fd
00000000 l    df *ABS*	00000000 alt_irq_vars.c
00000000 l    df *ABS*	00000000 alt_open.c
00812818 l     F .text	0000003c alt_get_errno
00812854 l     F .text	000000c4 alt_file_locked
00000000 l    df *ABS*	00000000 alt_usleep.c
00000000 l    df *ABS*	00000000 altera_nios2_gen2_irq.c
00000000 l    df *ABS*	00000000 alt_busy_sleep.c
00000000 l    df *ABS*	00000000 alt_find_dev.c
00000000 l    df *ABS*	00000000 alt_find_file.c
00000000 l    df *ABS*	00000000 alt_get_fd.c
00000000 l    df *ABS*	00000000 alt_icache_flush.c
00000000 l    df *ABS*	00000000 atexit.c
00000000 l    df *ABS*	00000000 ctype_.c
0081378f l     O .rodata	00000180 _ctype_b
00000000 l    df *ABS*	00000000 exit.c
00000000 l    df *ABS*	00000000 memcmp.c
00000000 l    df *ABS*	00000000 __atexit.c
00000000 l    df *ABS*	00000000 __call_atexit.c
00000000 l    df *ABS*	00000000 alt_exit.c
008172f0 g     O .bss	00000001 _cg42
0081743c g     O .bss	00000004 alt_instruction_exception_handler
008172f1 g     O .bss	00000001 _Pacemaker1_local_AVI_start
008172f2 g     O .bss	00000001 g83
008172f3 g     O .bss	00000001 g40
00808f3c g     F .text	00000074 _mprec_log10
008172f4 g     O .bss	00000001 g87_e9
00809028 g     F .text	0000008c __any_on
0080b410 g     F .text	00000054 _isatty_r
00813414 g     O .rodata	00000028 __mprec_tinytens
008172f5 g     O .bss	00000001 g91
008172e4 g     O .bss	00000004 maskedButton1
0080f81c g     F .text	0000007c alt_main
008172f6 g     O .bss	00000001 APace
008174f8 g     O .bss	00000100 alt_irq
0080b464 g     F .text	00000060 _lseek_r
008172f7 g     O .bss	00000001 g4
008155e8 g       *ABS*	00000000 __flash_rwdata_start
008172f8 g     O .bss	00000001 g108
008172f9 g     O .bss	00000001 g19
008172fa g     O .bss	00000001 g111
0080dd1c g     F .text	00000088 .hidden __eqdf2
008175f8 g       *ABS*	00000000 __alt_heap_start
008029d4 g     F .text	0000003c printf
0080bd3c g     F .text	0000009c _wcrtomb_r
00800350 g     F .text	00000040 AEI_timer_ISR
00809254 g     F .text	0000005c __sseek
00806cb4 g     F .text	00000010 __sinit
0080bbe4 g     F .text	00000140 __swbuf_r
008172fb g     O .bss	00000001 g55
008172fc g     O .bss	00000001 _cg59
008172fd g     O .bss	00000001 g27
008072c0 g     F .text	0000007c _setlocale_r
00806b1c g     F .text	00000068 __sfmoreglue
0080f8bc g     F .text	00000024 __malloc_unlock
008172fe g     O .bss	00000001 _Pacemaker1_local__pre_AVI_ex21
008172ff g     O .bss	00000001 g112
00817300 g     O .bss	00000001 g44b
00817301 g     O .bss	00000001 _Pacemaker1_local_VRP_start
00817302 g     O .bss	00000001 g3
00817303 g     O .bss	00000001 g76b
00817304 g     O .bss	00000001 g31b
00817305 g     O .bss	00000001 _Pacemaker1_local_LRI_start
0080b4c4 g     F .text	0000015c memmove
00817306 g     O .bss	00000001 g103
00817307 g     O .bss	00000001 PRE_g27
00817308 g     O .bss	00000001 g47
00817309 g     O .bss	00000001 g85
0081730a g     O .bss	00000001 g42
00806c9c g     F .text	00000018 _cleanup
0081730b g     O .bss	00000001 PRE_g114
008080b8 g     F .text	000000a8 _Balloc
0081730c g     O .bss	00000001 g9
0081730d g     O .bss	00000001 LRITO
0081730e g     O .bss	00000001 g114b
00817310 g     O .bss	00000004 _PRE_GO
00817314 g     O .bss	00000001 PRE_g3
00817315 g     O .bss	00000001 g102
0080dda4 g     F .text	000000dc .hidden __gtdf2
00812a9c g     F .text	00000024 altera_nios2_gen2_irq_init
00817316 g     O .bss	00000001 g115
00817317 g     O .bss	00000001 AVI_start
00800000 g     F .entry	0000001c __reset
00817318 g     O .bss	00000001 _cg15
00817319 g     O .bss	00000001 PRE_g56
0081731a g     O .bss	00000001 PRE_g13
00800020 g       *ABS*	00000000 __flash_exceptions_start
0080aef8 g     F .text	0000005c _fstat_r
0081731b g     O .bss	00000001 PRE_g72
00817420 g     O .bss	00000004 errno
0081731c g     O .bss	00000001 PRE_g75
0081731d g     O .bss	00000001 PRE_g32
0081731e g     O .bss	00000001 _cg73
0081731f g     O .bss	00000001 g87
00817320 g     O .bss	00000001 g44
008091d0 g     F .text	00000008 __seofread
00817428 g     O .bss	00000004 alt_argv
0081d5a0 g       *ABS*	00000000 _gp
00812a6c g     F .text	00000030 usleep
00817321 g     O .bss	00000001 _cg84
00817322 g     O .bss	00000001 _cg45
008006f0 g     F .text	000000a4 reset
00817323 g     O .bss	00000001 _Pacemaker1_local_PVARP_start
00817324 g     O .bss	00000001 PRE_g65
00817325 g     O .bss	00000001 AVI_stop
00817326 g     O .bss	00000001 g25_e3
00817327 g     O .bss	00000001 g92
00817328 g     O .bss	00000001 g1
00817329 g     O .bss	00000001 g61
008141dc g     O .rwdata	00000180 alt_fd_list
0081732a g     O .bss	00000001 g71
0081732b g     O .bss	00000001 g50b
00812c18 g     F .text	00000090 alt_find_dev
00807e48 g     F .text	00000148 memcpy
0080696c g     F .text	0000000c _cleanup_r
0080f008 g     F .text	000000dc .hidden __floatsidf
0081732c g     O .bss	00000001 g82
0081279c g     F .text	0000007c alt_io_redirect
0080de80 g     F .text	000000f4 .hidden __ltdf2
0081732d g     O .bss	00000001 _cg33
00813314 g       *ABS*	00000000 __DTOR_END__
0081732e g     O .bss	00000001 _cg98
0081732f g     O .bss	00000001 g12
00812ee4 g     F .text	0000009c alt_exception_cause_generated_bad_addr
00817330 g     O .bss	00000001 g97
00817331 g     O .bss	00000001 g52
00817332 g     O .bss	00000001 _Pacemaker1_local_URI_stop
008090b4 g     F .text	00000074 __fpclassifyd
00808e98 g     F .text	000000a4 __ratio
0080a99c g     F .text	0000001c __vfiprintf_internal
00817333 g     O .bss	00000001 _cg85
00810534 g     F .text	0000021c altera_avalon_jtag_uart_read
008029a4 g     F .text	00000030 _printf_r
0080cacc g     F .text	00000064 .hidden __udivsi3
0080f57c g     F .text	000000a4 isatty
00817334 g     O .bss	00000001 g17
00817335 g     O .bss	00000001 g117_e1_fix_fix
00813464 g     O .rodata	000000c8 __mprec_tens
0080733c g     F .text	0000000c __locale_charset
00817336 g     O .bss	00000001 g76
00817337 g     O .bss	00000001 g31
00812e54 g     F .text	00000090 alt_icache_flush
00817338 g     O .bss	00000001 g37
00800498 g     F .text	000000f8 heartLEDs
0081741c g     O .bss	00000004 __malloc_top_pad
008155a8 g     O .rwdata	00000004 __mb_cur_max
0080736c g     F .text	0000000c _localeconv_r
00817339 g     O .bss	00000001 g62
0081733a g     O .bss	00000001 g117_fix4
0080af54 g     F .text	000004bc __sfvwrite_r
008084c4 g     F .text	0000003c __i2b
00817468 g     O .bss	00000018 PVARP_timer
00809128 g     F .text	00000054 _sbrk_r
0081733b g     O .bss	00000001 g84
0081733c g     O .bss	00000001 g41
0081733d g     O .bss	00000001 g118
0080b620 g     F .text	00000060 _read_r
0081733e g     O .bss	00000001 PRE_g49
008155c8 g     O .rwdata	00000004 alt_max_fd
008003d0 g     F .text	00000040 URI_timer_ISR
0081733f g     O .bss	00000001 g121_e2
0080abec g     F .text	000000f0 _fclose_r
00817340 g     O .bss	00000001 g8_e1
00817341 g     O .bss	00000001 _Pacemaker1_local_AEI_start
00806934 g     F .text	00000030 fflush
00800290 g     F .text	00000040 AVI_timer_ISR
00817418 g     O .bss	00000004 __malloc_max_sbrked_mem
00817342 g     O .bss	00000001 g18
00817343 g     O .bss	00000001 PRE_g81
00817344 g     O .bss	00000001 g117_fix0
00817345 g     O .bss	00000001 ASense
00817480 g     O .bss	00000018 VRP_timer
0080cb88 g     F .text	000008ac .hidden __adddf3
00817346 g     O .bss	00000001 PRE_g104
00817347 g     O .bss	00000001 PRE_g10
00808c40 g     F .text	0000010c __b2d
0080c49c g     F .text	00000538 .hidden __umoddi3
0080f748 g     F .text	000000d4 lseek
008155a0 g     O .rwdata	00000004 _global_impure_ptr
00817348 g     O .bss	00000001 g48
00817349 g     O .bss	00000001 PRE_g35
0080b680 g     F .text	00000564 _realloc_r
008175f8 g       *ABS*	00000000 __bss_end
008125e8 g     F .text	000000f0 alt_iic_isr_register
0081734a g     O .bss	00000001 _Pacemaker1_local_VRP_ex
0080fbc8 g     F .text	00000108 alt_tick
008172ec g     O .bss	00000004 button1_pressed
0080bf24 g     F .text	00000578 .hidden __udivdi3
0080ae54 g     F .text	00000024 _fputwc_r
0081343c g     O .rodata	00000028 __mprec_bigtens
008082a8 g     F .text	00000104 __s2b
0080f0e4 g     F .text	000000a8 .hidden __floatunsidf
0081734b g     O .bss	00000001 g38
0081734c g     O .bss	00000001 _Pacemaker1_local__reg_FilteredVSense21
0081734d g     O .bss	00000001 g105
00808980 g     F .text	00000060 __mcmp
00811a54 g     F .text	000000ac altera_avalon_uart_init
00806cd4 g     F .text	00000018 __fp_lock_all
0081259c g     F .text	0000004c alt_ic_irq_enabled
0080fb2c g     F .text	0000009c alt_alarm_stop
00817438 g     O .bss	00000004 alt_irq_active
0081734e g     O .bss	00000001 g117
0081734f g     O .bss	00000001 _cg20
01080000 g       *ABS*	00000000 __alt_mem_onchip_mem
008000fc g     F .exceptions	000000d4 alt_irq_handler
008141b4 g     O .rwdata	00000028 alt_dev_null
00817350 g     O .bss	00000001 _cg76
00817351 g     O .bss	00000001 g112_e13
00817352 g     O .bss	00000001 g42b
00817353 g     O .bss	00000001 _cg82
0081221c g     F .text	00000048 alt_dcache_flush_all
008083ac g     F .text	00000068 __hi0bits
00817354 g     O .bss	00000001 g22b
00817355 g     O .bss	00000001 g14b
00817356 g     O .bss	00000001 _cg28
0080ef88 g     F .text	00000080 .hidden __fixdfsi
00817357 g     O .bss	00000001 g64
00817358 g     O .bss	00000001 g21
00817359 g     O .bss	00000001 g39_e4
0081735a g     O .bss	00000001 _cg107
0081735b g     O .bss	00000001 _cg14
008172e8 g     O .bss	00000004 button0_pressed
0081735c g     O .bss	00000001 _cg68
0081735d g     O .bss	00000001 g79
0081735e g     O .bss	00000001 g34
008155e8 g       *ABS*	00000000 __ram_rwdata_end
0081735f g     O .bss	00000001 g5
00817360 g     O .bss	00000001 g17_e2
00817361 g     O .bss	00000001 _Pacemaker1_local__reg_AVI_ex21
008155c0 g     O .rwdata	00000008 alt_dev_list
00817362 g     O .bss	00000001 g94
00817363 g     O .bss	00000001 g110
00817364 g     O .bss	00000001 g49
0080fd0c g     F .text	000000f8 write
00817365 g     O .bss	00000001 _Pacemaker1_local_PVARP_ex
00817366 g     O .bss	00000001 g70_e7
00817367 g     O .bss	00000001 g2
00817368 g     O .bss	00000001 g7
00817369 g     O .bss	00000001 _cg90
0081736a g     O .bss	00000001 _cg53
00813910 g       *ABS*	00000000 __ram_rodata_end
0080f490 g     F .text	000000b0 fstat
0080de80 g     F .text	000000f4 .hidden __ledf2
0081736b g     O .bss	00000001 g80
008172dc g     O .bss	00000004 uiButton
008086f8 g     F .text	00000140 __pow5mult
00809540 g     F .text	0000145c ___vfiprintf_internal_r
00817410 g     O .bss	00000004 __nlocale_changed
0080cb30 g     F .text	00000058 .hidden __umodsi3
008175f8 g       *ABS*	00000000 end
0081736c g     O .bss	00000001 g100
00811138 g     F .text	000004d8 altera_avalon_lcd_16207_write
0081736d g     O .bss	00000001 g59
0081736e g     O .bss	00000001 g99
0081736f g     O .bss	00000001 g54
00812070 g     F .text	000001ac altera_avalon_uart_write
00817370 g     O .bss	00000001 g66
00817371 g     O .bss	00000001 g23
00817372 g     O .bss	00000001 g117_fix3
00810070 g     F .text	000000c0 altera_avalon_jtag_uart_init
008001d0 g     F .exceptions	00000074 alt_instruction_exception_entry
00817373 g     O .bss	00000001 _cg44
00813314 g       *ABS*	00000000 __CTOR_LIST__
01000000 g       *ABS*	00000000 __alt_stack_pointer
008172d0 g     O .bss	00000004 LRI_timeout
008118c8 g     F .text	0000007c alt_avalon_timer_sc_init
008119a4 g     F .text	00000060 altera_avalon_uart_write_fd
0080f18c g     F .text	00000064 .hidden __clzsi2
00811a04 g     F .text	00000050 altera_avalon_uart_close_fd
00810750 g     F .text	00000224 altera_avalon_jtag_uart_write
00806cc4 g     F .text	00000004 __sfp_lock_acquire
00807d64 g     F .text	000000e4 memchr
00817374 g     O .bss	00000001 g14
00802a10 g     F .text	000021f8 ___vfprintf_internal_r
00817375 g     O .bss	00000001 g117_fix1
00806e28 g     F .text	00000310 _free_r
00817376 g     O .bss	00000001 g63_e6
00807348 g     F .text	00000010 __locale_mb_cur_max
00817377 g     O .bss	00000001 _cg6
00813160 g     F .text	00000180 __call_exitprocs
00817378 g     O .bss	00000001 g108_e12
00817379 g     O .bss	00000001 g101
0081737a g     O .bss	00000001 _Pacemaker1_local_AEI_ex
0081737b g     O .bss	00000001 _Pacemaker1_local__pre_FilteredVSense21
0081740c g     O .bss	00000004 __mlocale_changed
0081737c g     O .bss	00000001 _Pacemaker1_local_FilteredVSense
008155ac g     O .rwdata	00000004 __malloc_sbrk_base
00800244 g     F .text	0000004c _start
0081737d g     O .bss	00000001 _cg100
0081737e g     O .bss	00000001 g114
00817430 g     O .bss	00000004 _alt_tick_rate
0081737f g     O .bss	00000001 g56
00817380 g     O .bss	00000001 PRE_g52
00808838 g     F .text	00000148 __lshift
00817381 g     O .bss	00000001 VSense
00817434 g     O .bss	00000004 _alt_nticks
0080f91c g     F .text	000000fc read
0080fe70 g     F .text	0000009c alt_sys_init
00817382 g     O .bss	00000001 g78
00817383 g     O .bss	00000001 g33
00813048 g     F .text	00000118 __register_exitproc
00817384 g     O .bss	00000001 PRE_g119
008172e0 g     O .bss	00000004 maskedButton0
00817385 g     O .bss	00000001 g92b
00817386 g     O .bss	00000001 _Pacemaker1_local_LRI_stop
00817387 g     O .bss	00000001 g122
00800310 g     F .text	00000040 VRP_timer_ISR
00808500 g     F .text	000001f8 __multiply
008103dc g     F .text	00000068 altera_avalon_jtag_uart_close
00817388 g     O .bss	00000001 _Pacemaker1_local_LRI_ex
00817389 g     O .bss	00000001 PRE_g67
00813910 g       *ABS*	00000000 __ram_rwdata_start
00813314 g       *ABS*	00000000 __ram_rodata_start
00817440 g     O .bss	00000028 __malloc_current_mallinfo
0081738a g     O .bss	00000001 g117_e1_fix
0081738b g     O .bss	00000001 _Pacemaker1_local_FilteredASense
00808d4c g     F .text	0000014c __d2b
0081738c g     O .bss	00000001 _cg60
0081738d g     O .bss	00000001 PRE_g83
00817498 g     O .bss	00000018 AVI_timer
0081738e g     O .bss	00000001 PRE_g106
008172d4 g     O .bss	00000004 URI_timeout
008174b0 g     O .bss	00000018 LRI_timer
0080ff0c g     F .text	00000060 altera_avalon_jtag_uart_read_fd
0081738f g     O .bss	00000001 g35
00812db0 g     F .text	000000a4 alt_get_fd
00812ac0 g     F .text	00000158 alt_busy_sleep
00817390 g     O .bss	00000001 g15
0080aad4 g     F .text	00000054 _close_r
00817391 g     O .bss	00000001 g90
00817392 g     O .bss	00000001 _GO
00812fcc g     F .text	0000007c memcmp
00817393 g     O .bss	00000001 URITO
0080ffcc g     F .text	00000050 altera_avalon_jtag_uart_close_fd
00817394 g     O .bss	00000001 VRPTO
008175f8 g       *ABS*	00000000 __alt_stack_base
0081001c g     F .text	00000054 altera_avalon_jtag_uart_ioctl_fd
00817395 g     O .bss	00000001 PRE_g91
00804ce0 g     F .text	00000154 __swsetup_r
00800794 g     F .text	00002210 tick
0080d434 g     F .text	000008e8 .hidden __divdf3
00806b84 g     F .text	00000118 __sfp
00817396 g     O .bss	00000001 g63
00817397 g     O .bss	00000001 g20
00808fb0 g     F .text	00000078 __copybits
00817398 g     O .bss	00000001 AVITO
00817399 g     O .bss	00000001 g60
00813dac g     O .rwdata	00000408 __malloc_av_
00806cd0 g     F .text	00000004 __sinit_lock_release
0080df74 g     F .text	00000718 .hidden __muldf3
0081739a g     O .bss	00000001 PRE_g19
0080917c g     F .text	00000054 __sread
008174c8 g     O .bss	00000018 AEI_timer
0081739b g     O .bss	00000001 g66b
00812ca8 g     F .text	00000108 alt_find_file
0081739c g     O .bss	00000001 g93
008122a0 g     F .text	000000a4 alt_dev_llist_insert
0080f898 g     F .text	00000024 __malloc_lock
0080fa7c g     F .text	000000b0 sbrk
0081739d g     O .bss	00000001 _cg22
0081739e g     O .bss	00000001 g119
008068d8 g     F .text	0000005c _fflush_r
0080ab28 g     F .text	000000c4 _calloc_r
0081739f g     O .bss	00000001 g84b
008173a0 g     O .bss	00000001 PRE_g97
008173a1 g     O .bss	00000001 g107b
008172c0 g       *ABS*	00000000 __bss_start
008173a2 g     O .bss	00000001 g86
008173a3 g     O .bss	00000001 g43
00807f90 g     F .text	00000128 memset
008006a8 g     F .text	00000048 main
0081742c g     O .bss	00000004 alt_envp
00817414 g     O .bss	00000004 __malloc_max_total_mem
008173a4 g     O .bss	00000001 PRE_g43
008173a5 g     O .bss	00000001 _cg11
008173a6 g     O .bss	00000001 _Pacemaker1_local_AVI_ex
008173a7 g     O .bss	00000001 g11b
0080ff6c g     F .text	00000060 altera_avalon_jtag_uart_write_fd
008173a8 g     O .bss	00000001 g98b
008173a9 g     O .bss	00000001 g53b
008173aa g     O .bss	00000001 PVARPTO
0080bd24 g     F .text	00000018 __swbuf
008173ab g     O .bss	00000001 g36
008116bc g     F .text	00000134 altera_avalon_lcd_16207_init
008173ac g     O .bss	00000001 _Pacemaker1_local_URI_start
008174e0 g     O .bss	00000018 URI_timer
008173ad g     O .bss	00000001 g89
008173ae g     O .bss	00000001 g46
008092b0 g     F .text	00000008 __sclose
01000000 g       *ABS*	00000000 __alt_heap_limit
008173af g     O .bss	00000001 g47_e5
0080acdc g     F .text	00000014 fclose
00805034 g     F .text	00001688 _dtoa_r
00807558 g     F .text	0000080c _malloc_r
0080be98 g     F .text	00000030 __ascii_wctomb
008173b0 g     O .bss	00000001 g57b
008155cc g     O .rwdata	00000004 alt_errno
00807138 g     F .text	000000c4 _fwalk
008173b1 g     O .bss	00000001 g95
008173b2 g     O .bss	00000001 g50
00800390 g     F .text	00000040 LRI_timer_ISR
008173b3 g     O .bss	00000001 g96
008173b4 g     O .bss	00000001 g51
0080c9d4 g     F .text	00000084 .hidden __divsi3
008172c4 g     O .bss	00000004 PVARP_timeout
00806d04 g     F .text	00000124 _malloc_trim_r
00813314 g       *ABS*	00000000 __CTOR_END__
008092b8 g     F .text	000000dc strcmp
008173b5 g     O .bss	00000001 _cg37
008173b6 g     O .bss	00000001 g107
00813314 g       *ABS*	00000000 __flash_rodata_start
008173b7 g     O .bss	00000001 g113
00813314 g       *ABS*	00000000 __DTOR_LIST__
008002d0 g     F .text	00000040 PVARP_timer_ISR
0080dd1c g     F .text	00000088 .hidden __nedf2
0080fe38 g     F .text	00000038 alt_irq_init
0080fa18 g     F .text	00000064 alt_release_fd
008173b8 g     O .bss	00000001 g104
008173b9 g     O .bss	00000001 g73b
008173ba g     O .bss	00000001 g13
0081354c g     O .rodata	00000100 .hidden __clz_tab
00817408 g     O .bss	00000004 _PathLocale
008173bb g     O .bss	00000001 PRE_g41
008173bc g     O .bss	00000001 g98
008173bd g     O .bss	00000001 g53
008173be g     O .bss	00000001 g8
008173bf g     O .bss	00000001 g57
008173c0 g     O .bss	00000001 PRE_g89
00812f80 g     F .text	00000014 atexit
0080aa74 g     F .text	00000060 _write_r
008172c8 g     O .bss	00000004 VRP_timeout
008173c1 g     O .bss	00000001 g70
008173c2 g     O .bss	00000001 _cg66
008173c3 g     O .bss	00000001 g102_e11
00807378 g     F .text	00000018 setlocale
008172cc g     O .bss	00000004 AEI_timeout
008173c4 g     O .bss	00000001 g36b
008173c5 g     O .bss	00000001 _Pacemaker1_local_AVI_stop
008173c6 g     O .bss	00000001 g116
008155a4 g     O .rwdata	00000004 _impure_ptr
00817424 g     O .bss	00000004 alt_argc
008173c7 g     O .bss	00000001 g6
008066bc g     F .text	0000021c __sflush_r
008173c8 g     O .bss	00000001 _cg93
008123a4 g     F .text	00000060 _do_dtors
00807364 g     F .text	00000008 __locale_cjk_lang
008173c9 g     O .bss	00000001 _Pacemaker1_local_URI_ex
008173ca g     O .bss	00000001 g82b
008173cb g     O .bss	00000001 g72
008173cc g     O .bss	00000001 g81
00800020 g       .exceptions	00000000 alt_irq_entry
008173cd g     O .bss	00000001 PRE_g110
00808bdc g     F .text	00000064 __ulp
00806cec g     F .text	00000018 __fp_unlock_all
008117f0 g     F .text	00000060 altera_avalon_lcd_16207_write_fd
008173ce g     O .bss	00000001 _cg50
008173cf g     O .bss	00000001 PRE_g99
008155b8 g     O .rwdata	00000008 alt_fs_list
008173d0 g     O .bss	00000001 g0
00800410 g     F .text	00000088 pollButtons
008172d8 g     O .bss	00000004 LEDbits
008173d1 g     O .bss	00000001 g75
008173d2 g     O .bss	00000001 g30
00800020 g       *ABS*	00000000 __ram_exceptions_start
00807390 g     F .text	0000000c localeconv
008173d3 g     O .bss	00000001 g79_e8
008173d4 g     O .bss	00000001 PRE_g21
008173d5 g     O .bss	00000001 g16
008173d6 g     O .bss	00000001 g105b
00812438 g     F .text	00000050 alt_ic_isr_register
008173d7 g     O .bss	00000001 g58
008173d8 g     O .bss	00000001 _cg77
008173d9 g     O .bss	00000001 _cg57
008173da g     O .bss	00000001 g68
008173db g     O .bss	00000001 g25
008173dc g     O .bss	00000001 g90b
008155e8 g       *ABS*	00000000 _edata
00811944 g     F .text	00000060 altera_avalon_uart_read_fd
008175f8 g       *ABS*	00000000 _end
008173dd g     O .bss	00000001 g11
0080acf0 g     F .text	00000164 __fputwc
00800244 g       *ABS*	00000000 __ram_exceptions_end
008173de g     O .bss	00000001 g95_e10
00810444 g     F .text	000000f0 altera_avalon_jtag_uart_ioctl
008173df g     O .bss	00000001 g65
008173e0 g     O .bss	00000001 g22
008173e1 g     O .bss	00000001 g28
008173e2 g     O .bss	00000001 g73
00812510 g     F .text	0000008c alt_ic_irq_disable
008173e3 g     O .bss	00000001 g117_e1
008091d8 g     F .text	0000007c __swrite
008155b0 g     O .rwdata	00000004 __malloc_trim_threshold
00807358 g     F .text	0000000c __locale_msgcharset
00812f94 g     F .text	00000038 exit
008071fc g     F .text	000000c4 _fwalk_reent
008089e0 g     F .text	000001fc __mdiff
008173e4 g     O .bss	00000001 g77
008173e5 g     O .bss	00000001 g32
008173e6 g     O .bss	00000001 _Pacemaker1_local_VRP_stop
0080ca58 g     F .text	00000074 .hidden __modsi3
008155e4 g     O .rwdata	00000004 __ctype_ptr__
008173e7 g     O .bss	00000001 g20b
008173e8 g     O .bss	00000001 g88
008173e9 g     O .bss	00000001 g45
008173ea g     O .bss	00000001 _Pacemaker1_local_PVARP_stop
01000000 g       *ABS*	00000000 __alt_data_end
00800020 g     F .exceptions	00000000 alt_exception
00806cc8 g     F .text	00000004 __sfp_lock_release
008173eb g     O .bss	00000001 _cg23
00800000 g       *ABS*	00000000 __alt_mem_sdram
008173ec g     O .bss	00000001 _cg92
008173ed g     O .bss	00000001 _cg55
0081368e g     O .rodata	00000101 _ctype_
008173ee g     O .bss	00000001 PRE_g5
008172c0 g     O .bss	00000004 AVI_timeout
00811dc8 g     F .text	00000054 altera_avalon_uart_close
008173ef g     O .bss	00000001 PRE_g30
008132e0 g     F .text	00000034 _exit
0080f1f0 g     F .text	0000012c alt_alarm_start
008173f0 g     O .bss	00000001 g121
00800590 g     F .text	00000118 startTimers
0080739c g     F .text	000001bc __smakebuf_r
008173f1 g     O .bss	00000001 VPace
00809394 g     F .text	00000098 strlen
008173f2 g     O .bss	00000001 g39
00812918 g     F .text	00000154 open
0080dda4 g     F .text	000000dc .hidden __gedf2
008173f3 g     O .bss	00000001 g120
008173f4 g     O .bss	00000001 g117_fix2
008155b4 g     O .rwdata	00000004 __wctomb
00809528 g     F .text	00000018 __sprint_r
00812404 g     F .text	00000034 alt_icache_flush_all
008173f5 g     O .bss	00000001 g29
008173f6 g     O .bss	00000001 _cg4
008173f7 g     O .bss	00000001 g67
008173f8 g     O .bss	00000001 g24
008155e0 g     O .rwdata	00000004 alt_priority_mask
008173f9 g     O .bss	00000001 g109
00812488 g     F .text	00000088 alt_ic_irq_enable
00804c08 g     F .text	0000001c __vfprintf_internal
00811e58 g     F .text	000001dc altera_avalon_uart_read
0080bec8 g     F .text	0000005c _wctomb_r
008173fa g     O .bss	00000001 g4b
0080e68c g     F .text	000008fc .hidden __subdf3
008173fb g     O .bss	00000001 g106
00808414 g     F .text	000000b0 __lo0bits
008173fc g     O .bss	00000001 _cg31
008173fd g     O .bss	00000001 g10
008155d4 g     O .rwdata	00000008 alt_alarm_list
008173fe g     O .bss	00000001 _cg62
00812344 g     F .text	00000060 _do_ctors
0080bdd8 g     F .text	000000c0 wcrtomb
008173ff g     O .bss	00000001 AEITO
00817400 g     O .bss	00000001 g69
00817401 g     O .bss	00000001 g26
0080f358 g     F .text	000000d0 close
00817402 g     O .bss	00000001 g116_e14
00817403 g     O .bss	00000001 _Pacemaker1_local_AEI_stop
0080f688 g     F .text	00000084 alt_load
0080ae78 g     F .text	00000080 fputwc
00806ccc g     F .text	00000004 __sinit_lock_acquire
00817404 g     O .bss	00000001 _cg105
00808188 g     F .text	00000120 __multadd
00808160 g     F .text	00000028 _Bfree
00817405 g     O .bss	00000001 g74



Disassembly of section .entry:

00800000 <__reset>:
#if NIOS2_ICACHE_SIZE > 0 && defined(ALT_ALLOW_CODE_AT_RESET) && (!defined(ALT_SIM_OPTIMIZE) || defined(NIOS2_ECC_PRESENT))
    /* Assume the instruction cache size is always a power of two. */
#if NIOS2_ICACHE_SIZE > 0x8000
    movhi r2, %hi(NIOS2_ICACHE_SIZE)
#else
    movui r2, NIOS2_ICACHE_SIZE
  800000:	00840014 	movui	r2,4096
#endif

0:
    initi r2
  800004:	1001483a 	initi	r2
    addi r2, r2, -NIOS2_ICACHE_LINE_SIZE
  800008:	10bff804 	addi	r2,r2,-32
    bgt r2, zero, 0b
  80000c:	00bffd16 	blt	zero,r2,800004 <__alt_mem_onchip_mem+0xff780004>
 * Jump to the _start entry point in the .text section if reset code
 * is allowed or if optimizing for RTL simulation.
 */
#if defined(ALT_ALLOW_CODE_AT_RESET) || defined(ALT_SIM_OPTIMIZE)
    /* Jump to the _start entry point in the .text section. */
    movhi r1, %hi(_start)
  800010:	00402034 	movhi	at,128
    ori r1, r1, %lo(_start)
  800014:	08409114 	ori	at,at,580
    jmp r1
  800018:	0800683a 	jmp	at
  80001c:	00000000 	call	0 <__alt_mem_sdram-0x800000>

Disassembly of section .exceptions:

00800020 <alt_exception>:

#else /* ALT_EXCEPTION_STACK disabled */
        /* 
         * Reserve space on normal stack for registers about to be pushed.
         */
        addi  sp, sp, -76
  800020:	deffed04 	addi	sp,sp,-76
         * documentation for details).
         *
         * Leave a gap in the stack frame at 4(sp) for the muldiv handler to
         * store zero into.
         */
        stw   ra,  0(sp)
  800024:	dfc00015 	stw	ra,0(sp)
        stw   r1,   8(sp)
  800028:	d8400215 	stw	at,8(sp)
        stw   r2,  12(sp)
  80002c:	d8800315 	stw	r2,12(sp)
        stw   r3,  16(sp)
  800030:	d8c00415 	stw	r3,16(sp)
        stw   r4,  20(sp)
  800034:	d9000515 	stw	r4,20(sp)
        stw   r5,  24(sp)
  800038:	d9400615 	stw	r5,24(sp)
        stw   r6,  28(sp)
  80003c:	d9800715 	stw	r6,28(sp)
        stw   r7,  32(sp)
  800040:	d9c00815 	stw	r7,32(sp)
        rdctl r5, estatus   /* Read early to avoid usage stall */
  800044:	000b307a 	rdctl	r5,estatus
        stw   r8,  36(sp)
  800048:	da000915 	stw	r8,36(sp)
        stw   r9,  40(sp)
  80004c:	da400a15 	stw	r9,40(sp)
        stw   r10, 44(sp)
  800050:	da800b15 	stw	r10,44(sp)
        stw   r11, 48(sp)
  800054:	dac00c15 	stw	r11,48(sp)
        stw   r12, 52(sp)
  800058:	db000d15 	stw	r12,52(sp)
        stw   r13, 56(sp)
  80005c:	db400e15 	stw	r13,56(sp)
        stw   r14, 60(sp)
  800060:	db800f15 	stw	r14,60(sp)
        stw   r15, 64(sp)
  800064:	dbc01015 	stw	r15,64(sp)
        /*
         * ea-4 contains the address of the instruction being executed
         * when the exception occured. For interrupt exceptions, we will
         * will be re-issue the isntruction. Store it in 72(sp)
         */
        stw   r5,  68(sp)  /* estatus */
  800068:	d9401115 	stw	r5,68(sp)
        addi  r15, ea, -4  /* instruction that caused exception */
  80006c:	ebffff04 	addi	r15,ea,-4
        stw   r15,  72(sp)
  800070:	dbc01215 	stw	r15,72(sp)
#else
        /*
         * Test to see if the exception was a software exception or caused 
         * by an external interrupt, and vector accordingly.
         */
        rdctl r4, ipending
  800074:	0009313a 	rdctl	r4,ipending
        andi  r2, r5, 1
  800078:	2880004c 	andi	r2,r5,1
        beq   r2, zero, .Lnot_irq
  80007c:	10000326 	beq	r2,zero,80008c <alt_exception+0x6c>
        beq   r4, zero, .Lnot_irq
  800080:	20000226 	beq	r4,zero,80008c <alt_exception+0x6c>
        /*
         * Now that all necessary registers have been preserved, call 
         * alt_irq_handler() to process the interrupts.
         */

        call alt_irq_handler
  800084:	08000fc0 	call	8000fc <alt_irq_handler>

        .section .exceptions.irqreturn, "xa"

        br    .Lexception_exit
  800088:	00000706 	br	8000a8 <alt_exception+0x88>
         * upon completion, so we write ea (address of instruction *after*
         * the one where the exception occured) into 72(sp). The actual
         * instruction that caused the exception is written in r2, which these
         * handlers will utilize.
         */
        stw ea, 72(sp) /* EA is PC+4 so will skip over instruction causing exception */
  80008c:	df401215 	stw	ea,72(sp)
.Lunknown_16bit:
        addi.n r4, r4, 2 /* Need PC+2 to skip over instruction causing exception */
        stw r4, 72(sp)

#else /* CDX is not Enabled and all instructions are 32bits */
        ldw r2, -4(ea) /* Instruction value that caused exception */
  800090:	e8bfff17 	ldw	r2,-4(ea)
         * debugger is present) or go into an infinite loop since the
         * handling behavior is undefined; in that case we will not return here.
         */

        /* Load exception-causing address as first argument (r4) */
        addi   r4, ea, -4
  800094:	e93fff04 	addi	r4,ea,-4

        /* Call the instruction-exception entry */
        call   alt_instruction_exception_entry
  800098:	08001d00 	call	8001d0 <alt_instruction_exception_entry>
         * instruction
         *
         * Return code was 0: Skip. The instruction after the exception is
         * already stored in 72(sp).
         */
        bne   r2, r0, .Lexception_exit
  80009c:	1000021e 	bne	r2,zero,8000a8 <alt_exception+0x88>

        /*
         * Otherwise, modify 72(sp) to re-issue the instruction that caused the
         * exception.
         */
        addi  r15, ea, -4  /* instruction that caused exception */
  8000a0:	ebffff04 	addi	r15,ea,-4
        stw   r15,  72(sp)
  8000a4:	dbc01215 	stw	r15,72(sp)
        /* 
         * Restore the saved registers, so that all general purpose registers 
         * have been restored to their state at the time the interrupt occured.
         */

        ldw   r5,  68(sp)
  8000a8:	d9401117 	ldw	r5,68(sp)
        ldw   ea,  72(sp)  /* This becomes the PC once eret is executed */
  8000ac:	df401217 	ldw	ea,72(sp)
        ldw   ra,   0(sp)
  8000b0:	dfc00017 	ldw	ra,0(sp)

        wrctl estatus, r5
  8000b4:	2801707a 	wrctl	estatus,r5

        ldw   r1,   8(sp)
  8000b8:	d8400217 	ldw	at,8(sp)
        ldw   r2,  12(sp)
  8000bc:	d8800317 	ldw	r2,12(sp)
        ldw   r3,  16(sp)
  8000c0:	d8c00417 	ldw	r3,16(sp)
        ldw   r4,  20(sp)
  8000c4:	d9000517 	ldw	r4,20(sp)
        ldw   r5,  24(sp)
  8000c8:	d9400617 	ldw	r5,24(sp)
        ldw   r6,  28(sp)
  8000cc:	d9800717 	ldw	r6,28(sp)
        ldw   r7,  32(sp)
  8000d0:	d9c00817 	ldw	r7,32(sp)

#if defined(ALT_EXCEPTION_STACK) && defined(ALT_STACK_CHECK)
        ldw   et, %gprel(alt_exception_old_stack_limit)(gp)
#endif

        ldw   r8,  36(sp)
  8000d4:	da000917 	ldw	r8,36(sp)
        ldw   r9,  40(sp)
  8000d8:	da400a17 	ldw	r9,40(sp)
        ldw   r10, 44(sp)
  8000dc:	da800b17 	ldw	r10,44(sp)
        ldw   r11, 48(sp)
  8000e0:	dac00c17 	ldw	r11,48(sp)
        ldw   r12, 52(sp)
  8000e4:	db000d17 	ldw	r12,52(sp)
        ldw   r13, 56(sp)
  8000e8:	db400e17 	ldw	r13,56(sp)
        ldw   r14, 60(sp)
  8000ec:	db800f17 	ldw	r14,60(sp)
        ldw   r15, 64(sp)
  8000f0:	dbc01017 	ldw	r15,64(sp)
        stw   et, %gprel(alt_stack_limit_value)(gp)
        stw   zero, %gprel(alt_exception_old_stack_limit)(gp)
#endif /* ALT_STACK_CHECK */
        ldw   sp,  76(sp)
#else /* ALT_EXCEPTION_STACK disabled */
        addi  sp, sp, 76
  8000f4:	dec01304 	addi	sp,sp,76

        /*
         * Return to the interrupted instruction.
         */

        eret
  8000f8:	ef80083a 	eret

008000fc <alt_irq_handler>:
 * instruction is present if the macro ALT_CI_INTERRUPT_VECTOR defined.
 */

void alt_irq_handler (void) __attribute__ ((section (".exceptions")));
void alt_irq_handler (void)
{
  8000fc:	defff904 	addi	sp,sp,-28
  800100:	dfc00615 	stw	ra,24(sp)
  800104:	df000515 	stw	fp,20(sp)
  800108:	df000504 	addi	fp,sp,20
  
  /*
   * Notify the operating system that we are at interrupt level.
   */ 
  
  ALT_OS_INT_ENTER();
  80010c:	0001883a 	nop
#ifndef NIOS2_EIC_PRESENT
static ALT_INLINE alt_u32 ALT_ALWAYS_INLINE alt_irq_pending (void)
{
  alt_u32 active;

  NIOS2_READ_IPENDING (active);
  800110:	0005313a 	rdctl	r2,ipending
  800114:	e0bffe15 	stw	r2,-8(fp)

  return active;
  800118:	e0bffe17 	ldw	r2,-8(fp)
   * Consider the case where the high priority interupt is asserted during
   * the interrupt entry sequence for a lower priority interrupt to see why
   * this is the case.
   */

  active = alt_irq_pending ();
  80011c:	e0bffb15 	stw	r2,-20(fp)

  do
  {
    i = 0;
  800120:	e03ffd15 	stw	zero,-12(fp)
    mask = 1;
  800124:	00800044 	movi	r2,1
  800128:	e0bffc15 	stw	r2,-16(fp)
     * called to clear the interrupt condition.
     */

    do
    {
      if (active & mask)
  80012c:	e0fffb17 	ldw	r3,-20(fp)
  800130:	e0bffc17 	ldw	r2,-16(fp)
  800134:	1884703a 	and	r2,r3,r2
  800138:	10001426 	beq	r2,zero,80018c <alt_irq_handler+0x90>
      { 
#ifdef ALT_ENHANCED_INTERRUPT_API_PRESENT
        alt_irq[i].handler(alt_irq[i].context); 
  80013c:	00802074 	movhi	r2,129
  800140:	109d3e04 	addi	r2,r2,29944
  800144:	e0fffd17 	ldw	r3,-12(fp)
  800148:	180690fa 	slli	r3,r3,3
  80014c:	10c5883a 	add	r2,r2,r3
  800150:	10c00017 	ldw	r3,0(r2)
  800154:	00802074 	movhi	r2,129
  800158:	109d3e04 	addi	r2,r2,29944
  80015c:	e13ffd17 	ldw	r4,-12(fp)
  800160:	200890fa 	slli	r4,r4,3
  800164:	1105883a 	add	r2,r2,r4
  800168:	10800104 	addi	r2,r2,4
  80016c:	10800017 	ldw	r2,0(r2)
  800170:	1009883a 	mov	r4,r2
  800174:	183ee83a 	callr	r3
#else
        alt_irq[i].handler(alt_irq[i].context, i); 
#endif
        break;
  800178:	0001883a 	nop
#ifndef NIOS2_EIC_PRESENT
static ALT_INLINE alt_u32 ALT_ALWAYS_INLINE alt_irq_pending (void)
{
  alt_u32 active;

  NIOS2_READ_IPENDING (active);
  80017c:	0005313a 	rdctl	r2,ipending
  800180:	e0bfff15 	stw	r2,-4(fp)

  return active;
  800184:	e0bfff17 	ldw	r2,-4(fp)
  800188:	00000706 	br	8001a8 <alt_irq_handler+0xac>
      }
      mask <<= 1;
  80018c:	e0bffc17 	ldw	r2,-16(fp)
  800190:	1085883a 	add	r2,r2,r2
  800194:	e0bffc15 	stw	r2,-16(fp)
      i++;
  800198:	e0bffd17 	ldw	r2,-12(fp)
  80019c:	10800044 	addi	r2,r2,1
  8001a0:	e0bffd15 	stw	r2,-12(fp)

    } while (1);
  8001a4:	003fe106 	br	80012c <__alt_mem_onchip_mem+0xff78012c>

    active = alt_irq_pending ();
  8001a8:	e0bffb15 	stw	r2,-20(fp)
    
  } while (active);
  8001ac:	e0bffb17 	ldw	r2,-20(fp)
  8001b0:	103fdb1e 	bne	r2,zero,800120 <__alt_mem_onchip_mem+0xff780120>

  /*
   * Notify the operating system that interrupt processing is complete.
   */ 

  ALT_OS_INT_EXIT();
  8001b4:	0001883a 	nop
}
  8001b8:	0001883a 	nop
  8001bc:	e037883a 	mov	sp,fp
  8001c0:	dfc00117 	ldw	ra,4(sp)
  8001c4:	df000017 	ldw	fp,0(sp)
  8001c8:	dec00204 	addi	sp,sp,8
  8001cc:	f800283a 	ret

008001d0 <alt_instruction_exception_entry>:
 * that handler if it has been registered. Absent a handler, it will
 * break break or hang as discussed below.
 */
int 
alt_instruction_exception_entry (alt_u32 exception_pc)
{
  8001d0:	defffb04 	addi	sp,sp,-20
  8001d4:	dfc00415 	stw	ra,16(sp)
  8001d8:	df000315 	stw	fp,12(sp)
  8001dc:	df000304 	addi	fp,sp,12
  8001e0:	e13fff15 	stw	r4,-4(fp)
 * NIOS2_EXCEPTION_CAUSE_NOT_PRESENT. Your handling routine should
 * check the validity of the cause argument before proceeding.
 */
#ifdef NIOS2_HAS_EXTRA_EXCEPTION_INFO
  /* Get exception cause & "badaddr" */
  NIOS2_READ_EXCEPTION(cause);
  8001e4:	000531fa 	rdctl	r2,exception
  8001e8:	e0bffd15 	stw	r2,-12(fp)
  cause = ( (cause & NIOS2_EXCEPTION_REG_CAUSE_MASK) >>
  8001ec:	e0bffd17 	ldw	r2,-12(fp)
  8001f0:	10801f0c 	andi	r2,r2,124
  8001f4:	1004d0ba 	srli	r2,r2,2
  8001f8:	e0bffd15 	stw	r2,-12(fp)
              NIOS2_EXCEPTION_REG_CAUSE_OFST );

  NIOS2_READ_BADADDR(badaddr);
  8001fc:	0005333a 	rdctl	r2,badaddr
  800200:	e0bffe15 	stw	r2,-8(fp)
#else
  cause = NIOS2_EXCEPTION_CAUSE_NOT_PRESENT;
  badaddr = 0;
#endif /* NIOS2_HAS_EXTRA_EXCEPTION_INFO */

  if(alt_instruction_exception_handler) {
  800204:	d0a7a717 	ldw	r2,-24932(gp)
  800208:	10000726 	beq	r2,zero,800228 <alt_instruction_exception_entry+0x58>
     * Call handler. Its return value indicates whether the exception-causing
     * instruction should be re-issued. The code that called us,
     * alt_eceptions_entry.S, will look at this value and adjust the ea
     * register as necessary
     */
    return alt_instruction_exception_handler(cause, exception_pc, badaddr);
  80020c:	d0a7a717 	ldw	r2,-24932(gp)
  800210:	e0fffd17 	ldw	r3,-12(fp)
  800214:	e1bffe17 	ldw	r6,-8(fp)
  800218:	e17fff17 	ldw	r5,-4(fp)
  80021c:	1809883a 	mov	r4,r3
  800220:	103ee83a 	callr	r2
  800224:	00000206 	br	800230 <alt_instruction_exception_entry+0x60>
   *    (a peripheral which negates its interrupt output before its
   *    interrupt handler has been executed will cause spurious interrupts)
   */
  else {
#ifdef NIOS2_HAS_DEBUG_STUB
    NIOS2_BREAK();
  800228:	003da03a 	break	0
      ;
#endif /* NIOS2_HAS_DEBUG_STUB */
  }

  /* We should not get here. Remove compiler warning. */
  return NIOS2_EXCEPTION_RETURN_REISSUE_INST;
  80022c:	0005883a 	mov	r2,zero
}
  800230:	e037883a 	mov	sp,fp
  800234:	dfc00117 	ldw	ra,4(sp)
  800238:	df000017 	ldw	fp,0(sp)
  80023c:	dec00204 	addi	sp,sp,8
  800240:	f800283a 	ret

Disassembly of section .text:

00800244 <_start>:

    /* Assume the data cache size is always a power of two. */
#if NIOS2_DCACHE_SIZE > 0x8000
    movhi r2, %hi(NIOS2_DCACHE_SIZE)
#else
    movui r2, NIOS2_DCACHE_SIZE
  800244:	00820014 	movui	r2,2048
#endif

0:
    initd 0(r2)
  800248:	10000033 	initd	0(r2)
#ifdef NIOS2_ECC_PRESENT
    addi r2, r2, -4
#else
    addi r2, r2, -NIOS2_DCACHE_LINE_SIZE
  80024c:	10bff804 	addi	r2,r2,-32
#endif
    bgt r2, zero, 0b
  800250:	00bffd16 	blt	zero,r2,800248 <__alt_mem_onchip_mem+0xff780248>

    /*
     * Now that the caches are initialized, set up the stack pointer and global pointer.
     * The values provided by the linker are assumed to be correctly aligned.
     */
    movhi sp, %hi(__alt_stack_pointer)
  800254:	06c04034 	movhi	sp,256
    ori sp, sp, %lo(__alt_stack_pointer)
  800258:	dec00014 	ori	sp,sp,0
    movhi gp, %hi(_gp)
  80025c:	06802074 	movhi	gp,129
    ori gp, gp, %lo(_gp)
  800260:	d6b56814 	ori	gp,gp,54688
 */
#ifndef ALT_SIM_OPTIMIZE
    /* Log that the BSS is about to be cleared. */
    ALT_LOG_PUTS(alt_log_msg_bss)

    movhi r2, %hi(__bss_start)
  800264:	00802074 	movhi	r2,129
    ori r2, r2, %lo(__bss_start)
  800268:	109cb014 	ori	r2,r2,29376

    movhi r3, %hi(__bss_end)
  80026c:	00c02074 	movhi	r3,129
    ori r3, r3, %lo(__bss_end)
  800270:	18dd7e14 	ori	r3,r3,30200

    beq r2, r3, 1f
  800274:	10c00326 	beq	r2,r3,800284 <_start+0x40>

0:
    stw zero, (r2)
  800278:	10000015 	stw	zero,0(r2)
    addi r2, r2, 4
  80027c:	10800104 	addi	r2,r2,4
    bltu r2, r3, 0b
  800280:	10fffd36 	bltu	r2,r3,800278 <__alt_mem_onchip_mem+0xff780278>
     * section aren't defined until alt_load() has been called).
     */
    mov   et, zero
#endif

    call alt_load
  800284:	080f6880 	call	80f688 <alt_load>

    /* Log that alt_main is about to be called. */
    ALT_LOG_PUTS(alt_log_msg_alt_main)

    /* Call the C entry point. It should never return. */
    call alt_main
  800288:	080f81c0 	call	80f81c <alt_main>

0080028c <alt_after_alt_main>:

    /* Wait in infinite loop in case alt_main does return. */
alt_after_alt_main:
    br alt_after_alt_main
  80028c:	003fff06 	br	80028c <__alt_mem_onchip_mem+0xff78028c>

00800290 <AVI_timer_ISR>:
unsigned int button1_pressed = 0;



alt_u32 AVI_timer_ISR(void* context)
{
  800290:	defffd04 	addi	sp,sp,-12
  800294:	dfc00215 	stw	ra,8(sp)
  800298:	df000115 	stw	fp,4(sp)
  80029c:	df000104 	addi	fp,sp,4
  8002a0:	e13fff15 	stw	r4,-4(fp)
	AVITO = 1;
  8002a4:	00800044 	movi	r2,1
  8002a8:	d0a77e05 	stb	r2,-25096(gp)
	printf("AVI timed out");
  8002ac:	01002074 	movhi	r4,129
  8002b0:	210cc504 	addi	r4,r4,13076
  8002b4:	08029d40 	call	8029d4 <printf>
	return 0;
  8002b8:	0005883a 	mov	r2,zero
}
  8002bc:	e037883a 	mov	sp,fp
  8002c0:	dfc00117 	ldw	ra,4(sp)
  8002c4:	df000017 	ldw	fp,0(sp)
  8002c8:	dec00204 	addi	sp,sp,8
  8002cc:	f800283a 	ret

008002d0 <PVARP_timer_ISR>:

alt_u32 PVARP_timer_ISR(void* context)
{
  8002d0:	defffd04 	addi	sp,sp,-12
  8002d4:	dfc00215 	stw	ra,8(sp)
  8002d8:	df000115 	stw	fp,4(sp)
  8002dc:	df000104 	addi	fp,sp,4
  8002e0:	e13fff15 	stw	r4,-4(fp)
	PVARPTO = 1;
  8002e4:	00800044 	movi	r2,1
  8002e8:	d0a78285 	stb	r2,-25078(gp)
	printf("PVARP timed out");
  8002ec:	01002074 	movhi	r4,129
  8002f0:	210cc904 	addi	r4,r4,13092
  8002f4:	08029d40 	call	8029d4 <printf>
	return 0;
  8002f8:	0005883a 	mov	r2,zero
}
  8002fc:	e037883a 	mov	sp,fp
  800300:	dfc00117 	ldw	ra,4(sp)
  800304:	df000017 	ldw	fp,0(sp)
  800308:	dec00204 	addi	sp,sp,8
  80030c:	f800283a 	ret

00800310 <VRP_timer_ISR>:

alt_u32 VRP_timer_ISR(void* context)
{
  800310:	defffd04 	addi	sp,sp,-12
  800314:	dfc00215 	stw	ra,8(sp)
  800318:	df000115 	stw	fp,4(sp)
  80031c:	df000104 	addi	fp,sp,4
  800320:	e13fff15 	stw	r4,-4(fp)
	VRPTO = 1;
  800324:	00800044 	movi	r2,1
  800328:	d0a77d05 	stb	r2,-25100(gp)
	printf("VRP timed out");
  80032c:	01002074 	movhi	r4,129
  800330:	210ccd04 	addi	r4,r4,13108
  800334:	08029d40 	call	8029d4 <printf>
	return 0;
  800338:	0005883a 	mov	r2,zero
}
  80033c:	e037883a 	mov	sp,fp
  800340:	dfc00117 	ldw	ra,4(sp)
  800344:	df000017 	ldw	fp,0(sp)
  800348:	dec00204 	addi	sp,sp,8
  80034c:	f800283a 	ret

00800350 <AEI_timer_ISR>:

alt_u32 AEI_timer_ISR(void* context)
{
  800350:	defffd04 	addi	sp,sp,-12
  800354:	dfc00215 	stw	ra,8(sp)
  800358:	df000115 	stw	fp,4(sp)
  80035c:	df000104 	addi	fp,sp,4
  800360:	e13fff15 	stw	r4,-4(fp)
	AEITO = 1;
  800364:	00800044 	movi	r2,1
  800368:	d0a797c5 	stb	r2,-24993(gp)
	printf("AEI timed out");
  80036c:	01002074 	movhi	r4,129
  800370:	210cd104 	addi	r4,r4,13124
  800374:	08029d40 	call	8029d4 <printf>
	return 0;
  800378:	0005883a 	mov	r2,zero
}
  80037c:	e037883a 	mov	sp,fp
  800380:	dfc00117 	ldw	ra,4(sp)
  800384:	df000017 	ldw	fp,0(sp)
  800388:	dec00204 	addi	sp,sp,8
  80038c:	f800283a 	ret

00800390 <LRI_timer_ISR>:

alt_u32 LRI_timer_ISR(void* context)
{
  800390:	defffd04 	addi	sp,sp,-12
  800394:	dfc00215 	stw	ra,8(sp)
  800398:	df000115 	stw	fp,4(sp)
  80039c:	df000104 	addi	fp,sp,4
  8003a0:	e13fff15 	stw	r4,-4(fp)
	LRITO = 1;
  8003a4:	00800044 	movi	r2,1
  8003a8:	d0a75b45 	stb	r2,-25235(gp)
	printf("LRI timed out");
  8003ac:	01002074 	movhi	r4,129
  8003b0:	210cd504 	addi	r4,r4,13140
  8003b4:	08029d40 	call	8029d4 <printf>
	return 0;
  8003b8:	0005883a 	mov	r2,zero
}
  8003bc:	e037883a 	mov	sp,fp
  8003c0:	dfc00117 	ldw	ra,4(sp)
  8003c4:	df000017 	ldw	fp,0(sp)
  8003c8:	dec00204 	addi	sp,sp,8
  8003cc:	f800283a 	ret

008003d0 <URI_timer_ISR>:

alt_u32 URI_timer_ISR(void* context)
{
  8003d0:	defffd04 	addi	sp,sp,-12
  8003d4:	dfc00215 	stw	ra,8(sp)
  8003d8:	df000115 	stw	fp,4(sp)
  8003dc:	df000104 	addi	fp,sp,4
  8003e0:	e13fff15 	stw	r4,-4(fp)
	URITO = 1;
  8003e4:	00800044 	movi	r2,1
  8003e8:	d0a77cc5 	stb	r2,-25101(gp)
	printf("URI timed out");
  8003ec:	01002074 	movhi	r4,129
  8003f0:	210cd904 	addi	r4,r4,13156
  8003f4:	08029d40 	call	8029d4 <printf>
	return 0;
  8003f8:	0005883a 	mov	r2,zero
}
  8003fc:	e037883a 	mov	sp,fp
  800400:	dfc00117 	ldw	ra,4(sp)
  800404:	df000017 	ldw	fp,0(sp)
  800408:	dec00204 	addi	sp,sp,8
  80040c:	f800283a 	ret

00800410 <pollButtons>:

void pollButtons()
{
  800410:	defffd04 	addi	sp,sp,-12
  800414:	df000215 	stw	fp,8(sp)
  800418:	df000204 	addi	fp,sp,8
	// Poll buttons
	uiButton = IORD_ALTERA_AVALON_PIO_DATA(BUTTONS_BASE);
  80041c:	00804434 	movhi	r2,272
  800420:	10842804 	addi	r2,r2,4256
  800424:	10800037 	ldwio	r2,0(r2)
  800428:	d0a74f15 	stw	r2,-25284(gp)
	IOWR_ALTERA_AVALON_PIO_EDGE_CAP(BUTTONS_BASE, 0);// clear the edge capture register
  80042c:	0007883a 	mov	r3,zero
  800430:	00804434 	movhi	r2,272
  800434:	10842b04 	addi	r2,r2,4268
  800438:	10c00035 	stwio	r3,0(r2)
	int maskedButton0 = uiButton & (1 << 0);
  80043c:	d0a74f17 	ldw	r2,-25284(gp)
  800440:	1080004c 	andi	r2,r2,1
  800444:	e0bffe15 	stw	r2,-8(fp)
	int maskedButton1 = uiButton & (1 << 1);
  800448:	d0a74f17 	ldw	r2,-25284(gp)
  80044c:	1080008c 	andi	r2,r2,2
  800450:	e0bfff15 	stw	r2,-4(fp)

	if (maskedButton0 > 0){
  800454:	e0bffe17 	ldw	r2,-8(fp)
  800458:	0080030e 	bge	zero,r2,800468 <pollButtons+0x58>
		ASense = 1;
  80045c:	00800044 	movi	r2,1
  800460:	d0a76945 	stb	r2,-25179(gp)
  800464:	00000106 	br	80046c <pollButtons+0x5c>
	} else {
		ASense = 0;
  800468:	d0276945 	stb	zero,-25179(gp)
	}
	if (maskedButton1 > 0){
  80046c:	e0bfff17 	ldw	r2,-4(fp)
  800470:	0080030e 	bge	zero,r2,800480 <pollButtons+0x70>
		VSense = 1;
  800474:	00800044 	movi	r2,1
  800478:	d0a77845 	stb	r2,-25119(gp)
	} else {
		VSense = 0;
	}
}
  80047c:	00000106 	br	800484 <pollButtons+0x74>
		ASense = 0;
	}
	if (maskedButton1 > 0){
		VSense = 1;
	} else {
		VSense = 0;
  800480:	d0277845 	stb	zero,-25119(gp)
	}
}
  800484:	0001883a 	nop
  800488:	e037883a 	mov	sp,fp
  80048c:	df000017 	ldw	fp,0(sp)
  800490:	dec00104 	addi	sp,sp,4
  800494:	f800283a 	ret

00800498 <heartLEDs>:

void heartLEDs()
{
  800498:	defffc04 	addi	sp,sp,-16
  80049c:	dfc00315 	stw	ra,12(sp)
  8004a0:	df000215 	stw	fp,8(sp)
  8004a4:	df000204 	addi	fp,sp,8
	LEDbits = 0;
  8004a8:	d0274e15 	stw	zero,-25288(gp)
	unsigned int A_LED = ASense || APace;
  8004ac:	d0a76943 	ldbu	r2,-25179(gp)
  8004b0:	10803fcc 	andi	r2,r2,255
  8004b4:	1080201c 	xori	r2,r2,128
  8004b8:	10bfe004 	addi	r2,r2,-128
  8004bc:	1000051e 	bne	r2,zero,8004d4 <heartLEDs+0x3c>
  8004c0:	d0a75583 	ldbu	r2,-25258(gp)
  8004c4:	10803fcc 	andi	r2,r2,255
  8004c8:	1080201c 	xori	r2,r2,128
  8004cc:	10bfe004 	addi	r2,r2,-128
  8004d0:	10000226 	beq	r2,zero,8004dc <heartLEDs+0x44>
  8004d4:	00800044 	movi	r2,1
  8004d8:	00000106 	br	8004e0 <heartLEDs+0x48>
  8004dc:	0005883a 	mov	r2,zero
  8004e0:	e0bffe15 	stw	r2,-8(fp)
	unsigned int V_LED = VSense || VPace;
  8004e4:	d0a77843 	ldbu	r2,-25119(gp)
  8004e8:	10803fcc 	andi	r2,r2,255
  8004ec:	1080201c 	xori	r2,r2,128
  8004f0:	10bfe004 	addi	r2,r2,-128
  8004f4:	1000051e 	bne	r2,zero,80050c <heartLEDs+0x74>
  8004f8:	d0a79443 	ldbu	r2,-25007(gp)
  8004fc:	10803fcc 	andi	r2,r2,255
  800500:	1080201c 	xori	r2,r2,128
  800504:	10bfe004 	addi	r2,r2,-128
  800508:	10000226 	beq	r2,zero,800514 <heartLEDs+0x7c>
  80050c:	00800044 	movi	r2,1
  800510:	00000106 	br	800518 <heartLEDs+0x80>
  800514:	0005883a 	mov	r2,zero
  800518:	e0bfff15 	stw	r2,-4(fp)
//	printf("Test text");
	printf("A_LED %d", A_LED);
  80051c:	e17ffe17 	ldw	r5,-8(fp)
  800520:	01002074 	movhi	r4,129
  800524:	210cdd04 	addi	r4,r4,13172
  800528:	08029d40 	call	8029d4 <printf>
	printf("%d", V_LED);
  80052c:	e17fff17 	ldw	r5,-4(fp)
  800530:	01002074 	movhi	r4,129
  800534:	210ce004 	addi	r4,r4,13184
  800538:	08029d40 	call	8029d4 <printf>

	LEDbits = LEDbits | (A_LED << 0);
  80053c:	d0e74e17 	ldw	r3,-25288(gp)
  800540:	e0bffe17 	ldw	r2,-8(fp)
  800544:	1884b03a 	or	r2,r3,r2
  800548:	d0a74e15 	stw	r2,-25288(gp)
	LEDbits = LEDbits | (V_LED << 1);
  80054c:	e0bfff17 	ldw	r2,-4(fp)
  800550:	1085883a 	add	r2,r2,r2
  800554:	1007883a 	mov	r3,r2
  800558:	d0a74e17 	ldw	r2,-25288(gp)
  80055c:	1884b03a 	or	r2,r3,r2
  800560:	d0a74e15 	stw	r2,-25288(gp)

//	unsigned int allON = 0b00001111;

	IOWR_ALTERA_AVALON_PIO_DATA(LEDS_GREEN_BASE, LEDbits);
  800564:	d0a74e17 	ldw	r2,-25288(gp)
  800568:	1007883a 	mov	r3,r2
  80056c:	00804434 	movhi	r2,272
  800570:	10841c04 	addi	r2,r2,4208
  800574:	10c00035 	stwio	r3,0(r2)
}
  800578:	0001883a 	nop
  80057c:	e037883a 	mov	sp,fp
  800580:	dfc00117 	ldw	ra,4(sp)
  800584:	df000017 	ldw	fp,0(sp)
  800588:	dec00204 	addi	sp,sp,8
  80058c:	f800283a 	ret

00800590 <startTimers>:

void startTimers()
{
  800590:	defffe04 	addi	sp,sp,-8
  800594:	dfc00115 	stw	ra,4(sp)
  800598:	df000015 	stw	fp,0(sp)
  80059c:	d839883a 	mov	fp,sp
	if (AVI_stop == 1)
  8005a0:	d0a76143 	ldbu	r2,-25211(gp)
  8005a4:	10803fcc 	andi	r2,r2,255
  8005a8:	1080201c 	xori	r2,r2,128
  8005ac:	10bfe004 	addi	r2,r2,-128
  8005b0:	10800058 	cmpnei	r2,r2,1
  8005b4:	1000231e 	bne	r2,zero,800644 <startTimers+0xb4>
	{
		alt_alarm_start(&AVI_timer, PVARP_Value, PVARP_timer_ISR, NULL);
  8005b8:	000f883a 	mov	r7,zero
  8005bc:	01802034 	movhi	r6,128
  8005c0:	3180b404 	addi	r6,r6,720
  8005c4:	01400c84 	movi	r5,50
  8005c8:	01002074 	movhi	r4,129
  8005cc:	211d2604 	addi	r4,r4,29848
  8005d0:	080f1f00 	call	80f1f0 <alt_alarm_start>
		alt_alarm_start(&AVI_timer, VRP_Value, VRP_timer_ISR, NULL);
  8005d4:	000f883a 	mov	r7,zero
  8005d8:	01802034 	movhi	r6,128
  8005dc:	3180c404 	addi	r6,r6,784
  8005e0:	01402584 	movi	r5,150
  8005e4:	01002074 	movhi	r4,129
  8005e8:	211d2604 	addi	r4,r4,29848
  8005ec:	080f1f00 	call	80f1f0 <alt_alarm_start>
		alt_alarm_start(&AVI_timer, AEI_Value, AEI_timer_ISR, NULL);
  8005f0:	000f883a 	mov	r7,zero
  8005f4:	01802034 	movhi	r6,128
  8005f8:	3180d404 	addi	r6,r6,848
  8005fc:	0140c804 	movi	r5,800
  800600:	01002074 	movhi	r4,129
  800604:	211d2604 	addi	r4,r4,29848
  800608:	080f1f00 	call	80f1f0 <alt_alarm_start>
		alt_alarm_start(&AVI_timer, LRI_Value, LRI_timer_ISR, NULL);
  80060c:	000f883a 	mov	r7,zero
  800610:	01802034 	movhi	r6,128
  800614:	3180e404 	addi	r6,r6,912
  800618:	0140ed84 	movi	r5,950
  80061c:	01002074 	movhi	r4,129
  800620:	211d2604 	addi	r4,r4,29848
  800624:	080f1f00 	call	80f1f0 <alt_alarm_start>
		alt_alarm_start(&AVI_timer, URI_Value, URI_timer_ISR, NULL);
  800628:	000f883a 	mov	r7,zero
  80062c:	01802034 	movhi	r6,128
  800630:	3180f404 	addi	r6,r6,976
  800634:	0140e104 	movi	r5,900
  800638:	01002074 	movhi	r4,129
  80063c:	211d2604 	addi	r4,r4,29848
  800640:	080f1f00 	call	80f1f0 <alt_alarm_start>
	}
	if (AVI_start == 1)
  800644:	d0a75dc3 	ldbu	r2,-25225(gp)
  800648:	10803fcc 	andi	r2,r2,255
  80064c:	1080201c 	xori	r2,r2,128
  800650:	10bfe004 	addi	r2,r2,-128
  800654:	10800058 	cmpnei	r2,r2,1
  800658:	1000071e 	bne	r2,zero,800678 <startTimers+0xe8>
	{
		alt_alarm_start(&AVI_timer, AVI_Value, AVI_timer_ISR, NULL);
  80065c:	000f883a 	mov	r7,zero
  800660:	01802034 	movhi	r6,128
  800664:	3180a404 	addi	r6,r6,656
  800668:	01404b04 	movi	r5,300
  80066c:	01002074 	movhi	r4,129
  800670:	211d2604 	addi	r4,r4,29848
  800674:	080f1f00 	call	80f1f0 <alt_alarm_start>
	}

	AVI_timeout = 0;
  800678:	d0274815 	stw	zero,-25312(gp)
	PVARP_timeout = 0;
  80067c:	d0274915 	stw	zero,-25308(gp)
	VRP_timeout = 0;
  800680:	d0274a15 	stw	zero,-25304(gp)
	AEI_timeout = 0;
  800684:	d0274b15 	stw	zero,-25300(gp)
	LRI_timeout = 0;
  800688:	d0274c15 	stw	zero,-25296(gp)
	URI_timeout = 0;
  80068c:	d0274d15 	stw	zero,-25292(gp)
}
  800690:	0001883a 	nop
  800694:	e037883a 	mov	sp,fp
  800698:	dfc00117 	ldw	ra,4(sp)
  80069c:	df000017 	ldw	fp,0(sp)
  8006a0:	dec00204 	addi	sp,sp,8
  8006a4:	f800283a 	ret

008006a8 <main>:

int main()
{
  8006a8:	defffe04 	addi	sp,sp,-8
  8006ac:	dfc00115 	stw	ra,4(sp)
  8006b0:	df000015 	stw	fp,0(sp)
  8006b4:	d839883a 	mov	fp,sp
	// Reset the scc
	reset();
  8006b8:	08006f00 	call	8006f0 <reset>



	// Start the AVI timer
	AVI_timeout = 0;
  8006bc:	d0274815 	stw	zero,-25312(gp)
	alt_alarm_start(&AVI_timer, AVI_Value, AVI_timer_ISR, NULL);
  8006c0:	000f883a 	mov	r7,zero
  8006c4:	01802034 	movhi	r6,128
  8006c8:	3180a404 	addi	r6,r6,656
  8006cc:	01404b04 	movi	r5,300
  8006d0:	01002074 	movhi	r4,129
  8006d4:	211d2604 	addi	r4,r4,29848
  8006d8:	080f1f00 	call	80f1f0 <alt_alarm_start>

	while(1) // Main loop
	{
		tick();
  8006dc:	08007940 	call	800794 <tick>
		startTimers();
  8006e0:	08005900 	call	800590 <startTimers>
		pollButtons();
  8006e4:	08004100 	call	800410 <pollButtons>
		heartLEDs();
  8006e8:	08004980 	call	800498 <heartLEDs>
	}
  8006ec:	003ffb06 	br	8006dc <__alt_mem_onchip_mem+0xff7806dc>

008006f0 <reset>:
char g117_e1_fix_fix;
char g117_e1_fix;
char g117_e1;
char g121_e2;
int _PRE_GO;
void reset(){
  8006f0:	deffff04 	addi	sp,sp,-4
  8006f4:	df000015 	stw	fp,0(sp)
  8006f8:	d839883a 	mov	fp,sp
   _GO = 1;
  8006fc:	00800044 	movi	r2,1
  800700:	d0a77c85 	stb	r2,-25102(gp)
   _PRE_GO = 0;
  800704:	d0275c15 	stw	zero,-25232(gp)
   PRE_g3 = 0;
  800708:	d0275d05 	stb	zero,-25228(gp)
   PRE_g5 = 0;
  80070c:	d0279385 	stb	zero,-25010(gp)
   PRE_g10 = 0;
  800710:	d02769c5 	stb	zero,-25177(gp)
   PRE_g13 = 0;
  800714:	d0275e85 	stb	zero,-25222(gp)
   PRE_g19 = 0;
  800718:	d0277e85 	stb	zero,-25094(gp)
   PRE_g21 = 0;
  80071c:	d0278d05 	stb	zero,-25036(gp)
   PRE_g27 = 0;
  800720:	d02759c5 	stb	zero,-25241(gp)
   PRE_g30 = 0;
  800724:	d02793c5 	stb	zero,-25009(gp)
   PRE_g32 = 0;
  800728:	d0275f45 	stb	zero,-25219(gp)
   PRE_g35 = 0;
  80072c:	d0276a45 	stb	zero,-25175(gp)
   PRE_g41 = 0;
  800730:	d02786c5 	stb	zero,-25061(gp)
   PRE_g43 = 0;
  800734:	d0278105 	stb	zero,-25084(gp)
   PRE_g49 = 0;
  800738:	d0276785 	stb	zero,-25186(gp)
   PRE_g52 = 0;
  80073c:	d0277805 	stb	zero,-25120(gp)
   PRE_g56 = 0;
  800740:	d0275e45 	stb	zero,-25223(gp)
   PRE_g65 = 0;
  800744:	d0276105 	stb	zero,-25212(gp)
   PRE_g67 = 0;
  800748:	d0277a45 	stb	zero,-25111(gp)
   PRE_g72 = 0;
  80074c:	d0275ec5 	stb	zero,-25221(gp)
   PRE_g75 = 0;
  800750:	d0275f05 	stb	zero,-25220(gp)
   PRE_g81 = 0;
  800754:	d02768c5 	stb	zero,-25181(gp)
   PRE_g83 = 0;
  800758:	d0277b45 	stb	zero,-25107(gp)
   PRE_g89 = 0;
  80075c:	d0278805 	stb	zero,-25056(gp)
   PRE_g91 = 0;
  800760:	d0277d45 	stb	zero,-25099(gp)
   PRE_g97 = 0;
  800764:	d0278005 	stb	zero,-25088(gp)
   PRE_g99 = 0;
  800768:	d0278bc5 	stb	zero,-25041(gp)
   PRE_g104 = 0;
  80076c:	d0276985 	stb	zero,-25178(gp)
   PRE_g106 = 0;
  800770:	d0277b85 	stb	zero,-25106(gp)
   PRE_g110 = 0;
  800774:	d0278b45 	stb	zero,-25043(gp)
   PRE_g114 = 0;
  800778:	d0275ac5 	stb	zero,-25237(gp)
   PRE_g119 = 0;
  80077c:	d0277905 	stb	zero,-25116(gp)
   return;
  800780:	0001883a 	nop
}
  800784:	e037883a 	mov	sp,fp
  800788:	df000017 	ldw	fp,0(sp)
  80078c:	dec00104 	addi	sp,sp,4
  800790:	f800283a 	ret

00800794 <tick>:
void tick(){
  800794:	deffff04 	addi	sp,sp,-4
  800798:	df000015 	stw	fp,0(sp)
  80079c:	d839883a 	mov	fp,sp
   if(_PRE_GO == 1){
  8007a0:	d0a75c17 	ldw	r2,-25232(gp)
  8007a4:	10800058 	cmpnei	r2,r2,1
  8007a8:	1000011e 	bne	r2,zero,8007b0 <tick+0x1c>
      _GO = 0;
  8007ac:	d0277c85 	stb	zero,-25102(gp)
   }
   {
      g0 = _GO;
  8007b0:	d0a77c83 	ldbu	r2,-25102(gp)
  8007b4:	d0a78c05 	stb	r2,-25040(gp)
      g1 = g0;
  8007b8:	d0a78c03 	ldbu	r2,-25040(gp)
  8007bc:	d0a76205 	stb	r2,-25208(gp)
      g2 = g1;
  8007c0:	d0a76203 	ldbu	r2,-25208(gp)
  8007c4:	d0a771c5 	stb	r2,-25145(gp)
      g111 =(PRE_g110);
  8007c8:	d0a78b43 	ldbu	r2,-25043(gp)
  8007cc:	d0a75685 	stb	r2,-25254(gp)
      g109 = g1;
  8007d0:	d0a76203 	ldbu	r2,-25208(gp)
  8007d4:	d0a79645 	stb	r2,-24999(gp)
      g110 =(g111||g109);
  8007d8:	d0a75683 	ldbu	r2,-25254(gp)
  8007dc:	10803fcc 	andi	r2,r2,255
  8007e0:	1080201c 	xori	r2,r2,128
  8007e4:	10bfe004 	addi	r2,r2,-128
  8007e8:	1000051e 	bne	r2,zero,800800 <tick+0x6c>
  8007ec:	d0a79643 	ldbu	r2,-24999(gp)
  8007f0:	10803fcc 	andi	r2,r2,255
  8007f4:	1080201c 	xori	r2,r2,128
  8007f8:	10bfe004 	addi	r2,r2,-128
  8007fc:	10000226 	beq	r2,zero,800808 <tick+0x74>
  800800:	00800044 	movi	r2,1
  800804:	00000106 	br	80080c <tick+0x78>
  800808:	0005883a 	mov	r2,zero
  80080c:	d0a770c5 	stb	r2,-25149(gp)
      if(g110){
  800810:	d0a770c3 	ldbu	r2,-25149(gp)
  800814:	10803fcc 	andi	r2,r2,255
  800818:	1080201c 	xori	r2,r2,128
  80081c:	10bfe004 	addi	r2,r2,-128
  800820:	10001426 	beq	r2,zero,800874 <tick+0xe0>
         _Pacemaker1_local_LRI_start = 0;
  800824:	d0275945 	stb	zero,-25243(gp)
         _Pacemaker1_local_LRI_ex = 0;
  800828:	d0277a05 	stb	zero,-25112(gp)
         _Pacemaker1_local_LRI_stop = 0;
  80082c:	d0277985 	stb	zero,-25114(gp)
         _Pacemaker1_local_VRP_start = 0;
  800830:	d0275845 	stb	zero,-25247(gp)
         _Pacemaker1_local_VRP_stop = 0;
  800834:	d0279185 	stb	zero,-25018(gp)
         _Pacemaker1_local_VRP_ex = 0;
  800838:	d0276a85 	stb	zero,-25174(gp)
         _Pacemaker1_local_AVI_start = 0;
  80083c:	d0275445 	stb	zero,-25263(gp)
         _Pacemaker1_local_AVI_ex = 0;
  800840:	d0278185 	stb	zero,-25082(gp)
         _Pacemaker1_local_AVI_stop = 0;
  800844:	d0278945 	stb	zero,-25051(gp)
         _Pacemaker1_local_PVARP_start = 0;
  800848:	d02760c5 	stb	zero,-25213(gp)
         _Pacemaker1_local_PVARP_stop = 0;
  80084c:	d0279285 	stb	zero,-25014(gp)
         _Pacemaker1_local_PVARP_ex = 0;
  800850:	d0277145 	stb	zero,-25147(gp)
         _Pacemaker1_local_AEI_start = 0;
  800854:	d0276845 	stb	zero,-25183(gp)
         _Pacemaker1_local_AEI_stop = 0;
  800858:	d02798c5 	stb	zero,-24989(gp)
         _Pacemaker1_local_AEI_ex = 0;
  80085c:	d0277685 	stb	zero,-25126(gp)
         _Pacemaker1_local_URI_start = 0;
  800860:	d0278305 	stb	zero,-25076(gp)
         _Pacemaker1_local_URI_stop = 0;
  800864:	d0276485 	stb	zero,-25198(gp)
         _Pacemaker1_local_URI_ex = 0;
  800868:	d0278a45 	stb	zero,-25047(gp)
         _Pacemaker1_local_FilteredASense = 0;
  80086c:	d0277ac5 	stb	zero,-25109(gp)
         _Pacemaker1_local_FilteredVSense = 0;
  800870:	d0277705 	stb	zero,-25124(gp)
      }
      g6 =(PRE_g5);
  800874:	d0a79383 	ldbu	r2,-25010(gp)
  800878:	d0a789c5 	stb	r2,-25049(gp)
      _cg6 = VRPTO;
  80087c:	d0a77d03 	ldbu	r2,-25100(gp)
  800880:	d0a775c5 	stb	r2,-25129(gp)
      g7 =(g6&&_cg6);
  800884:	d0a789c3 	ldbu	r2,-25049(gp)
  800888:	10803fcc 	andi	r2,r2,255
  80088c:	1080201c 	xori	r2,r2,128
  800890:	10bfe004 	addi	r2,r2,-128
  800894:	10000726 	beq	r2,zero,8008b4 <tick+0x120>
  800898:	d0a775c3 	ldbu	r2,-25129(gp)
  80089c:	10803fcc 	andi	r2,r2,255
  8008a0:	1080201c 	xori	r2,r2,128
  8008a4:	10bfe004 	addi	r2,r2,-128
  8008a8:	10000226 	beq	r2,zero,8008b4 <tick+0x120>
  8008ac:	00800044 	movi	r2,1
  8008b0:	00000106 	br	8008b8 <tick+0x124>
  8008b4:	0005883a 	mov	r2,zero
  8008b8:	d0a77205 	stb	r2,-25144(gp)
      if(g7){
  8008bc:	d0a77203 	ldbu	r2,-25144(gp)
  8008c0:	10803fcc 	andi	r2,r2,255
  8008c4:	1080201c 	xori	r2,r2,128
  8008c8:	10bfe004 	addi	r2,r2,-128
  8008cc:	10000226 	beq	r2,zero,8008d8 <tick+0x144>
         _Pacemaker1_local_VRP_ex =(_Pacemaker1_local_VRP_ex||1);
  8008d0:	00800044 	movi	r2,1
  8008d4:	d0a76a85 	stb	r2,-25174(gp)
      }
      g120 =(PRE_g119);
  8008d8:	d0a77903 	ldbu	r2,-25116(gp)
  8008dc:	d0a794c5 	stb	r2,-25005(gp)
      g118 = g0;
  8008e0:	d0a78c03 	ldbu	r2,-25040(gp)
  8008e4:	d0a76745 	stb	r2,-25187(gp)
      g119 =(g120||g118);
  8008e8:	d0a794c3 	ldbu	r2,-25005(gp)
  8008ec:	10803fcc 	andi	r2,r2,255
  8008f0:	1080201c 	xori	r2,r2,128
  8008f4:	10bfe004 	addi	r2,r2,-128
  8008f8:	1000051e 	bne	r2,zero,800910 <tick+0x17c>
  8008fc:	d0a76743 	ldbu	r2,-25187(gp)
  800900:	10803fcc 	andi	r2,r2,255
  800904:	1080201c 	xori	r2,r2,128
  800908:	10bfe004 	addi	r2,r2,-128
  80090c:	10000226 	beq	r2,zero,800918 <tick+0x184>
  800910:	00800044 	movi	r2,1
  800914:	00000106 	br	80091c <tick+0x188>
  800918:	0005883a 	mov	r2,zero
  80091c:	d0a77f85 	stb	r2,-25090(gp)
      if(g119){
  800920:	d0a77f83 	ldbu	r2,-25090(gp)
  800924:	10803fcc 	andi	r2,r2,255
  800928:	1080201c 	xori	r2,r2,128
  80092c:	10bfe004 	addi	r2,r2,-128
  800930:	10000426 	beq	r2,zero,800944 <tick+0x1b0>
         VPace = 0;
  800934:	d0279445 	stb	zero,-25007(gp)
         APace = 0;
  800938:	d0275585 	stb	zero,-25258(gp)
         AVI_stop = 0;
  80093c:	d0276145 	stb	zero,-25211(gp)
         AVI_start = 0;
  800940:	d0275dc5 	stb	zero,-25225(gp)
      }
      g33 =(PRE_g32);
  800944:	d0a75f43 	ldbu	r2,-25219(gp)
  800948:	d0a778c5 	stb	r2,-25117(gp)
      _cg33 = VSense;
  80094c:	d0a77843 	ldbu	r2,-25119(gp)
  800950:	d0a76345 	stb	r2,-25203(gp)
      g34 =(g33&&_cg33);
  800954:	d0a778c3 	ldbu	r2,-25117(gp)
  800958:	10803fcc 	andi	r2,r2,255
  80095c:	1080201c 	xori	r2,r2,128
  800960:	10bfe004 	addi	r2,r2,-128
  800964:	10000726 	beq	r2,zero,800984 <tick+0x1f0>
  800968:	d0a76343 	ldbu	r2,-25203(gp)
  80096c:	10803fcc 	andi	r2,r2,255
  800970:	1080201c 	xori	r2,r2,128
  800974:	10bfe004 	addi	r2,r2,-128
  800978:	10000226 	beq	r2,zero,800984 <tick+0x1f0>
  80097c:	00800044 	movi	r2,1
  800980:	00000106 	br	800988 <tick+0x1f4>
  800984:	0005883a 	mov	r2,zero
  800988:	d0a76f85 	stb	r2,-25154(gp)
      if(g34){
  80098c:	d0a76f83 	ldbu	r2,-25154(gp)
  800990:	10803fcc 	andi	r2,r2,255
  800994:	1080201c 	xori	r2,r2,128
  800998:	10bfe004 	addi	r2,r2,-128
  80099c:	10000226 	beq	r2,zero,8009a8 <tick+0x214>
         _Pacemaker1_local_LRI_stop =(_Pacemaker1_local_LRI_stop||1);
  8009a0:	00800044 	movi	r2,1
  8009a4:	d0a77985 	stb	r2,-25114(gp)
      }
      g22 =(PRE_g21);
  8009a8:	d0a78d03 	ldbu	r2,-25036(gp)
  8009ac:	d0a79005 	stb	r2,-25024(gp)
      g22b = g22;
  8009b0:	d0a79003 	ldbu	r2,-25024(gp)
  8009b4:	d0a76d05 	stb	r2,-25164(gp)
      _cg22 = _Pacemaker1_local_LRI_stop;
  8009b8:	d0a77983 	ldbu	r2,-25114(gp)
  8009bc:	d0a77f45 	stb	r2,-25091(gp)
      g23 =(g22b&&(!(_cg22)));
  8009c0:	d0a76d03 	ldbu	r2,-25164(gp)
  8009c4:	10803fcc 	andi	r2,r2,255
  8009c8:	1080201c 	xori	r2,r2,128
  8009cc:	10bfe004 	addi	r2,r2,-128
  8009d0:	10000726 	beq	r2,zero,8009f0 <tick+0x25c>
  8009d4:	d0a77f43 	ldbu	r2,-25091(gp)
  8009d8:	10803fcc 	andi	r2,r2,255
  8009dc:	1080201c 	xori	r2,r2,128
  8009e0:	10bfe004 	addi	r2,r2,-128
  8009e4:	1000021e 	bne	r2,zero,8009f0 <tick+0x25c>
  8009e8:	00800044 	movi	r2,1
  8009ec:	00000106 	br	8009f4 <tick+0x260>
  8009f0:	0005883a 	mov	r2,zero
  8009f4:	d0a77445 	stb	r2,-25135(gp)
      _cg23 = LRITO;
  8009f8:	d0a75b43 	ldbu	r2,-25235(gp)
  8009fc:	d0a792c5 	stb	r2,-25013(gp)
      g24 =(g23&&_cg23);
  800a00:	d0a77443 	ldbu	r2,-25135(gp)
  800a04:	10803fcc 	andi	r2,r2,255
  800a08:	1080201c 	xori	r2,r2,128
  800a0c:	10bfe004 	addi	r2,r2,-128
  800a10:	10000726 	beq	r2,zero,800a30 <tick+0x29c>
  800a14:	d0a792c3 	ldbu	r2,-25013(gp)
  800a18:	10803fcc 	andi	r2,r2,255
  800a1c:	1080201c 	xori	r2,r2,128
  800a20:	10bfe004 	addi	r2,r2,-128
  800a24:	10000226 	beq	r2,zero,800a30 <tick+0x29c>
  800a28:	00800044 	movi	r2,1
  800a2c:	00000106 	br	800a34 <tick+0x2a0>
  800a30:	0005883a 	mov	r2,zero
  800a34:	d0a79605 	stb	r2,-25000(gp)
      if(g24){
  800a38:	d0a79603 	ldbu	r2,-25000(gp)
  800a3c:	10803fcc 	andi	r2,r2,255
  800a40:	1080201c 	xori	r2,r2,128
  800a44:	10bfe004 	addi	r2,r2,-128
  800a48:	10000226 	beq	r2,zero,800a54 <tick+0x2c0>
         _Pacemaker1_local_LRI_ex =(_Pacemaker1_local_LRI_ex||1);
  800a4c:	00800044 	movi	r2,1
  800a50:	d0a77a05 	stb	r2,-25112(gp)
      }
      g37 =(g33&&(!(_cg33)));
  800a54:	d0a778c3 	ldbu	r2,-25117(gp)
  800a58:	10803fcc 	andi	r2,r2,255
  800a5c:	1080201c 	xori	r2,r2,128
  800a60:	10bfe004 	addi	r2,r2,-128
  800a64:	10000726 	beq	r2,zero,800a84 <tick+0x2f0>
  800a68:	d0a76343 	ldbu	r2,-25203(gp)
  800a6c:	10803fcc 	andi	r2,r2,255
  800a70:	1080201c 	xori	r2,r2,128
  800a74:	10bfe004 	addi	r2,r2,-128
  800a78:	1000021e 	bne	r2,zero,800a84 <tick+0x2f0>
  800a7c:	00800044 	movi	r2,1
  800a80:	00000106 	br	800a88 <tick+0x2f4>
  800a84:	0005883a 	mov	r2,zero
  800a88:	d0a76605 	stb	r2,-25192(gp)
      _cg37 = _Pacemaker1_local_LRI_ex;
  800a8c:	d0a77a03 	ldbu	r2,-25112(gp)
  800a90:	d0a78545 	stb	r2,-25067(gp)
      g38 =(g37&&_cg37);
  800a94:	d0a76603 	ldbu	r2,-25192(gp)
  800a98:	10803fcc 	andi	r2,r2,255
  800a9c:	1080201c 	xori	r2,r2,128
  800aa0:	10bfe004 	addi	r2,r2,-128
  800aa4:	10000726 	beq	r2,zero,800ac4 <tick+0x330>
  800aa8:	d0a78543 	ldbu	r2,-25067(gp)
  800aac:	10803fcc 	andi	r2,r2,255
  800ab0:	1080201c 	xori	r2,r2,128
  800ab4:	10bfe004 	addi	r2,r2,-128
  800ab8:	10000226 	beq	r2,zero,800ac4 <tick+0x330>
  800abc:	00800044 	movi	r2,1
  800ac0:	00000106 	br	800ac8 <tick+0x334>
  800ac4:	0005883a 	mov	r2,zero
  800ac8:	d0a76ac5 	stb	r2,-25173(gp)
      if(g38){
  800acc:	d0a76ac3 	ldbu	r2,-25173(gp)
  800ad0:	10803fcc 	andi	r2,r2,255
  800ad4:	1080201c 	xori	r2,r2,128
  800ad8:	10bfe004 	addi	r2,r2,-128
  800adc:	10000226 	beq	r2,zero,800ae8 <tick+0x354>
         VPace =(VPace||1);
  800ae0:	00800044 	movi	r2,1
  800ae4:	d0a79445 	stb	r2,-25007(gp)
      }
      g115 =(PRE_g114);
  800ae8:	d0a75ac3 	ldbu	r2,-25237(gp)
  800aec:	d0a75d85 	stb	r2,-25226(gp)
      if(g115){
  800af0:	d0a75d83 	ldbu	r2,-25226(gp)
  800af4:	10803fcc 	andi	r2,r2,255
  800af8:	1080201c 	xori	r2,r2,128
  800afc:	10bfe004 	addi	r2,r2,-128
  800b00:	10000426 	beq	r2,zero,800b14 <tick+0x380>
         _Pacemaker1_local__pre_FilteredVSense21 = _Pacemaker1_local__reg_FilteredVSense21;
  800b04:	d0a76b03 	ldbu	r2,-25172(gp)
  800b08:	d0a776c5 	stb	r2,-25125(gp)
         _Pacemaker1_local__pre_AVI_ex21 = _Pacemaker1_local__reg_AVI_ex21;
  800b0c:	d0a77043 	ldbu	r2,-25151(gp)
  800b10:	d0a75785 	stb	r2,-25250(gp)
      }
      g57 =(PRE_g56);
  800b14:	d0a75e43 	ldbu	r2,-25223(gp)
  800b18:	d0a787c5 	stb	r2,-25057(gp)
      g57b = g57;
  800b1c:	d0a787c3 	ldbu	r2,-25057(gp)
  800b20:	d0a78405 	stb	r2,-25072(gp)
      _cg57 = _Pacemaker1_local__pre_FilteredVSense21;
  800b24:	d0a776c3 	ldbu	r2,-25125(gp)
  800b28:	d0a78e45 	stb	r2,-25031(gp)
      g59 =(g57b&&(!(_cg57)));
  800b2c:	d0a78403 	ldbu	r2,-25072(gp)
  800b30:	10803fcc 	andi	r2,r2,255
  800b34:	1080201c 	xori	r2,r2,128
  800b38:	10bfe004 	addi	r2,r2,-128
  800b3c:	10000726 	beq	r2,zero,800b5c <tick+0x3c8>
  800b40:	d0a78e43 	ldbu	r2,-25031(gp)
  800b44:	10803fcc 	andi	r2,r2,255
  800b48:	1080201c 	xori	r2,r2,128
  800b4c:	10bfe004 	addi	r2,r2,-128
  800b50:	1000021e 	bne	r2,zero,800b5c <tick+0x3c8>
  800b54:	00800044 	movi	r2,1
  800b58:	00000106 	br	800b60 <tick+0x3cc>
  800b5c:	0005883a 	mov	r2,zero
  800b60:	d0a77345 	stb	r2,-25139(gp)
      _cg59 = VPace;
  800b64:	d0a79443 	ldbu	r2,-25007(gp)
  800b68:	d0a75705 	stb	r2,-25252(gp)
      g60 =(g59&&(!(_cg59)));
  800b6c:	d0a77343 	ldbu	r2,-25139(gp)
  800b70:	10803fcc 	andi	r2,r2,255
  800b74:	1080201c 	xori	r2,r2,128
  800b78:	10bfe004 	addi	r2,r2,-128
  800b7c:	10000726 	beq	r2,zero,800b9c <tick+0x408>
  800b80:	d0a75703 	ldbu	r2,-25252(gp)
  800b84:	10803fcc 	andi	r2,r2,255
  800b88:	1080201c 	xori	r2,r2,128
  800b8c:	10bfe004 	addi	r2,r2,-128
  800b90:	1000021e 	bne	r2,zero,800b9c <tick+0x408>
  800b94:	00800044 	movi	r2,1
  800b98:	00000106 	br	800ba0 <tick+0x40c>
  800b9c:	0005883a 	mov	r2,zero
  800ba0:	d0a77e45 	stb	r2,-25095(gp)
      _cg60 = _Pacemaker1_local__pre_AVI_ex21;
  800ba4:	d0a75783 	ldbu	r2,-25250(gp)
  800ba8:	d0a77b05 	stb	r2,-25108(gp)
      g61 =(g60&&_cg60);
  800bac:	d0a77e43 	ldbu	r2,-25095(gp)
  800bb0:	10803fcc 	andi	r2,r2,255
  800bb4:	1080201c 	xori	r2,r2,128
  800bb8:	10bfe004 	addi	r2,r2,-128
  800bbc:	10000726 	beq	r2,zero,800bdc <tick+0x448>
  800bc0:	d0a77b03 	ldbu	r2,-25108(gp)
  800bc4:	10803fcc 	andi	r2,r2,255
  800bc8:	1080201c 	xori	r2,r2,128
  800bcc:	10bfe004 	addi	r2,r2,-128
  800bd0:	10000226 	beq	r2,zero,800bdc <tick+0x448>
  800bd4:	00800044 	movi	r2,1
  800bd8:	00000106 	br	800be0 <tick+0x44c>
  800bdc:	0005883a 	mov	r2,zero
  800be0:	d0a76245 	stb	r2,-25207(gp)
      if(g61){
  800be4:	d0a76243 	ldbu	r2,-25207(gp)
  800be8:	10803fcc 	andi	r2,r2,255
  800bec:	1080201c 	xori	r2,r2,128
  800bf0:	10bfe004 	addi	r2,r2,-128
  800bf4:	10000226 	beq	r2,zero,800c00 <tick+0x46c>
         VPace =(VPace||1);
  800bf8:	00800044 	movi	r2,1
  800bfc:	d0a79445 	stb	r2,-25007(gp)
      }
      g58 =((g59&&_cg59)||g61||(g57b&&_cg57));
  800c00:	d0a77343 	ldbu	r2,-25139(gp)
  800c04:	10803fcc 	andi	r2,r2,255
  800c08:	1080201c 	xori	r2,r2,128
  800c0c:	10bfe004 	addi	r2,r2,-128
  800c10:	10000526 	beq	r2,zero,800c28 <tick+0x494>
  800c14:	d0a75703 	ldbu	r2,-25252(gp)
  800c18:	10803fcc 	andi	r2,r2,255
  800c1c:	1080201c 	xori	r2,r2,128
  800c20:	10bfe004 	addi	r2,r2,-128
  800c24:	10000f1e 	bne	r2,zero,800c64 <tick+0x4d0>
  800c28:	d0a76243 	ldbu	r2,-25207(gp)
  800c2c:	10803fcc 	andi	r2,r2,255
  800c30:	1080201c 	xori	r2,r2,128
  800c34:	10bfe004 	addi	r2,r2,-128
  800c38:	10000a1e 	bne	r2,zero,800c64 <tick+0x4d0>
  800c3c:	d0a78403 	ldbu	r2,-25072(gp)
  800c40:	10803fcc 	andi	r2,r2,255
  800c44:	1080201c 	xori	r2,r2,128
  800c48:	10bfe004 	addi	r2,r2,-128
  800c4c:	10000726 	beq	r2,zero,800c6c <tick+0x4d8>
  800c50:	d0a78e43 	ldbu	r2,-25031(gp)
  800c54:	10803fcc 	andi	r2,r2,255
  800c58:	1080201c 	xori	r2,r2,128
  800c5c:	10bfe004 	addi	r2,r2,-128
  800c60:	10000226 	beq	r2,zero,800c6c <tick+0x4d8>
  800c64:	00800044 	movi	r2,1
  800c68:	00000106 	br	800c70 <tick+0x4dc>
  800c6c:	0005883a 	mov	r2,zero
  800c70:	d0a78dc5 	stb	r2,-25033(gp)
      if(g58){
  800c74:	d0a78dc3 	ldbu	r2,-25033(gp)
  800c78:	10803fcc 	andi	r2,r2,255
  800c7c:	1080201c 	xori	r2,r2,128
  800c80:	10bfe004 	addi	r2,r2,-128
  800c84:	10000226 	beq	r2,zero,800c90 <tick+0x4fc>
         _Pacemaker1_local_AVI_stop =(_Pacemaker1_local_AVI_stop||1);
  800c88:	00800044 	movi	r2,1
  800c8c:	d0a78945 	stb	r2,-25051(gp)
      }
      g53 =(PRE_g52);
  800c90:	d0a77803 	ldbu	r2,-25120(gp)
  800c94:	d0a78745 	stb	r2,-25059(gp)
      g53b = g53;
  800c98:	d0a78743 	ldbu	r2,-25059(gp)
  800c9c:	d0a78245 	stb	r2,-25079(gp)
      _cg53 = _Pacemaker1_local__pre_FilteredVSense21;
  800ca0:	d0a776c3 	ldbu	r2,-25125(gp)
  800ca4:	d0a77285 	stb	r2,-25142(gp)
      g54 =(g53b&&_cg53);
  800ca8:	d0a78243 	ldbu	r2,-25079(gp)
  800cac:	10803fcc 	andi	r2,r2,255
  800cb0:	1080201c 	xori	r2,r2,128
  800cb4:	10bfe004 	addi	r2,r2,-128
  800cb8:	10000726 	beq	r2,zero,800cd8 <tick+0x544>
  800cbc:	d0a77283 	ldbu	r2,-25142(gp)
  800cc0:	10803fcc 	andi	r2,r2,255
  800cc4:	1080201c 	xori	r2,r2,128
  800cc8:	10bfe004 	addi	r2,r2,-128
  800ccc:	10000226 	beq	r2,zero,800cd8 <tick+0x544>
  800cd0:	00800044 	movi	r2,1
  800cd4:	00000106 	br	800cdc <tick+0x548>
  800cd8:	0005883a 	mov	r2,zero
  800cdc:	d0a773c5 	stb	r2,-25137(gp)
      if(g54){
  800ce0:	d0a773c3 	ldbu	r2,-25137(gp)
  800ce4:	10803fcc 	andi	r2,r2,255
  800ce8:	1080201c 	xori	r2,r2,128
  800cec:	10bfe004 	addi	r2,r2,-128
  800cf0:	10000226 	beq	r2,zero,800cfc <tick+0x568>
         _Pacemaker1_local_AVI_stop =(_Pacemaker1_local_AVI_stop||1);
  800cf4:	00800044 	movi	r2,1
  800cf8:	d0a78945 	stb	r2,-25051(gp)
      }
      g4 =(PRE_g3);
  800cfc:	d0a75d03 	ldbu	r2,-25228(gp)
  800d00:	d0a755c5 	stb	r2,-25257(gp)
      g4b = g4;
  800d04:	d0a755c3 	ldbu	r2,-25257(gp)
  800d08:	d0a79685 	stb	r2,-24998(gp)
      _cg4 = _Pacemaker1_local_AVI_stop;
  800d0c:	d0a78943 	ldbu	r2,-25051(gp)
  800d10:	d0a79585 	stb	r2,-25002(gp)
      g3 =(g7||g2||(g4b&&(!(_cg4))));
  800d14:	d0a77203 	ldbu	r2,-25144(gp)
  800d18:	10803fcc 	andi	r2,r2,255
  800d1c:	1080201c 	xori	r2,r2,128
  800d20:	10bfe004 	addi	r2,r2,-128
  800d24:	10000f1e 	bne	r2,zero,800d64 <tick+0x5d0>
  800d28:	d0a771c3 	ldbu	r2,-25145(gp)
  800d2c:	10803fcc 	andi	r2,r2,255
  800d30:	1080201c 	xori	r2,r2,128
  800d34:	10bfe004 	addi	r2,r2,-128
  800d38:	10000a1e 	bne	r2,zero,800d64 <tick+0x5d0>
  800d3c:	d0a79683 	ldbu	r2,-24998(gp)
  800d40:	10803fcc 	andi	r2,r2,255
  800d44:	1080201c 	xori	r2,r2,128
  800d48:	10bfe004 	addi	r2,r2,-128
  800d4c:	10000726 	beq	r2,zero,800d6c <tick+0x5d8>
  800d50:	d0a79583 	ldbu	r2,-25002(gp)
  800d54:	10803fcc 	andi	r2,r2,255
  800d58:	1080201c 	xori	r2,r2,128
  800d5c:	10bfe004 	addi	r2,r2,-128
  800d60:	1000021e 	bne	r2,zero,800d6c <tick+0x5d8>
  800d64:	00800044 	movi	r2,1
  800d68:	00000106 	br	800d70 <tick+0x5dc>
  800d6c:	0005883a 	mov	r2,zero
  800d70:	d0a75885 	stb	r2,-25246(gp)
      g5 =((g6&&(!(_cg6)))||(g4b&&_cg4));
  800d74:	d0a789c3 	ldbu	r2,-25049(gp)
  800d78:	10803fcc 	andi	r2,r2,255
  800d7c:	1080201c 	xori	r2,r2,128
  800d80:	10bfe004 	addi	r2,r2,-128
  800d84:	10000526 	beq	r2,zero,800d9c <tick+0x608>
  800d88:	d0a775c3 	ldbu	r2,-25129(gp)
  800d8c:	10803fcc 	andi	r2,r2,255
  800d90:	1080201c 	xori	r2,r2,128
  800d94:	10bfe004 	addi	r2,r2,-128
  800d98:	10000a26 	beq	r2,zero,800dc4 <tick+0x630>
  800d9c:	d0a79683 	ldbu	r2,-24998(gp)
  800da0:	10803fcc 	andi	r2,r2,255
  800da4:	1080201c 	xori	r2,r2,128
  800da8:	10bfe004 	addi	r2,r2,-128
  800dac:	10000726 	beq	r2,zero,800dcc <tick+0x638>
  800db0:	d0a79583 	ldbu	r2,-25002(gp)
  800db4:	10803fcc 	andi	r2,r2,255
  800db8:	1080201c 	xori	r2,r2,128
  800dbc:	10bfe004 	addi	r2,r2,-128
  800dc0:	10000226 	beq	r2,zero,800dcc <tick+0x638>
  800dc4:	00800044 	movi	r2,1
  800dc8:	00000106 	br	800dd0 <tick+0x63c>
  800dcc:	0005883a 	mov	r2,zero
  800dd0:	d0a76fc5 	stb	r2,-25153(gp)
      g9 = g1;
  800dd4:	d0a76203 	ldbu	r2,-25208(gp)
  800dd8:	d0a75b05 	stb	r2,-25236(gp)
      g11 =(PRE_g10);
  800ddc:	d0a769c3 	ldbu	r2,-25177(gp)
  800de0:	d0a78f45 	stb	r2,-25027(gp)
      g11b = g11;
  800de4:	d0a78f43 	ldbu	r2,-25027(gp)
  800de8:	d0a781c5 	stb	r2,-25081(gp)
      _cg11 = _Pacemaker1_local_AVI_stop;
  800dec:	d0a78943 	ldbu	r2,-25051(gp)
  800df0:	d0a78145 	stb	r2,-25083(gp)
      g15 =(g11b&&(!(_cg11)));
  800df4:	d0a781c3 	ldbu	r2,-25081(gp)
  800df8:	10803fcc 	andi	r2,r2,255
  800dfc:	1080201c 	xori	r2,r2,128
  800e00:	10bfe004 	addi	r2,r2,-128
  800e04:	10000726 	beq	r2,zero,800e24 <tick+0x690>
  800e08:	d0a78143 	ldbu	r2,-25083(gp)
  800e0c:	10803fcc 	andi	r2,r2,255
  800e10:	1080201c 	xori	r2,r2,128
  800e14:	10bfe004 	addi	r2,r2,-128
  800e18:	1000021e 	bne	r2,zero,800e24 <tick+0x690>
  800e1c:	00800044 	movi	r2,1
  800e20:	00000106 	br	800e28 <tick+0x694>
  800e24:	0005883a 	mov	r2,zero
  800e28:	d0a77c05 	stb	r2,-25104(gp)
      _cg15 = VSense;
  800e2c:	d0a77843 	ldbu	r2,-25119(gp)
  800e30:	d0a75e05 	stb	r2,-25224(gp)
      g14 =(PRE_g13);
  800e34:	d0a75e83 	ldbu	r2,-25222(gp)
  800e38:	d0a77505 	stb	r2,-25132(gp)
      g14b = g14;
  800e3c:	d0a77503 	ldbu	r2,-25132(gp)
  800e40:	d0a76d45 	stb	r2,-25163(gp)
      _cg14 = _Pacemaker1_local_VRP_ex;
  800e44:	d0a76a83 	ldbu	r2,-25174(gp)
  800e48:	d0a76ec5 	stb	r2,-25157(gp)
      g16 =(g15&&_cg15);
  800e4c:	d0a77c03 	ldbu	r2,-25104(gp)
  800e50:	10803fcc 	andi	r2,r2,255
  800e54:	1080201c 	xori	r2,r2,128
  800e58:	10bfe004 	addi	r2,r2,-128
  800e5c:	10000726 	beq	r2,zero,800e7c <tick+0x6e8>
  800e60:	d0a75e03 	ldbu	r2,-25224(gp)
  800e64:	10803fcc 	andi	r2,r2,255
  800e68:	1080201c 	xori	r2,r2,128
  800e6c:	10bfe004 	addi	r2,r2,-128
  800e70:	10000226 	beq	r2,zero,800e7c <tick+0x6e8>
  800e74:	00800044 	movi	r2,1
  800e78:	00000106 	br	800e80 <tick+0x6ec>
  800e7c:	0005883a 	mov	r2,zero
  800e80:	d0a78d45 	stb	r2,-25035(gp)
      if(g16){
  800e84:	d0a78d43 	ldbu	r2,-25035(gp)
  800e88:	10803fcc 	andi	r2,r2,255
  800e8c:	1080201c 	xori	r2,r2,128
  800e90:	10bfe004 	addi	r2,r2,-128
  800e94:	10000226 	beq	r2,zero,800ea0 <tick+0x70c>
         _Pacemaker1_local_FilteredVSense =(_Pacemaker1_local_FilteredVSense||1);
  800e98:	00800044 	movi	r2,1
  800e9c:	d0a77705 	stb	r2,-25124(gp)
      }
      g10 =((g15&&(!(_cg15)))||(g14b&&_cg14)||g9||g16);
  800ea0:	d0a77c03 	ldbu	r2,-25104(gp)
  800ea4:	10803fcc 	andi	r2,r2,255
  800ea8:	1080201c 	xori	r2,r2,128
  800eac:	10bfe004 	addi	r2,r2,-128
  800eb0:	10000526 	beq	r2,zero,800ec8 <tick+0x734>
  800eb4:	d0a75e03 	ldbu	r2,-25224(gp)
  800eb8:	10803fcc 	andi	r2,r2,255
  800ebc:	1080201c 	xori	r2,r2,128
  800ec0:	10bfe004 	addi	r2,r2,-128
  800ec4:	10001426 	beq	r2,zero,800f18 <tick+0x784>
  800ec8:	d0a76d43 	ldbu	r2,-25163(gp)
  800ecc:	10803fcc 	andi	r2,r2,255
  800ed0:	1080201c 	xori	r2,r2,128
  800ed4:	10bfe004 	addi	r2,r2,-128
  800ed8:	10000526 	beq	r2,zero,800ef0 <tick+0x75c>
  800edc:	d0a76ec3 	ldbu	r2,-25157(gp)
  800ee0:	10803fcc 	andi	r2,r2,255
  800ee4:	1080201c 	xori	r2,r2,128
  800ee8:	10bfe004 	addi	r2,r2,-128
  800eec:	10000a1e 	bne	r2,zero,800f18 <tick+0x784>
  800ef0:	d0a75b03 	ldbu	r2,-25236(gp)
  800ef4:	10803fcc 	andi	r2,r2,255
  800ef8:	1080201c 	xori	r2,r2,128
  800efc:	10bfe004 	addi	r2,r2,-128
  800f00:	1000051e 	bne	r2,zero,800f18 <tick+0x784>
  800f04:	d0a78d43 	ldbu	r2,-25035(gp)
  800f08:	10803fcc 	andi	r2,r2,255
  800f0c:	1080201c 	xori	r2,r2,128
  800f10:	10bfe004 	addi	r2,r2,-128
  800f14:	10000226 	beq	r2,zero,800f20 <tick+0x78c>
  800f18:	00800044 	movi	r2,1
  800f1c:	00000106 	br	800f24 <tick+0x790>
  800f20:	0005883a 	mov	r2,zero
  800f24:	d0a79745 	stb	r2,-24995(gp)
      g12 =(g11b&&_cg11);
  800f28:	d0a781c3 	ldbu	r2,-25081(gp)
  800f2c:	10803fcc 	andi	r2,r2,255
  800f30:	1080201c 	xori	r2,r2,128
  800f34:	10bfe004 	addi	r2,r2,-128
  800f38:	10000726 	beq	r2,zero,800f58 <tick+0x7c4>
  800f3c:	d0a78143 	ldbu	r2,-25083(gp)
  800f40:	10803fcc 	andi	r2,r2,255
  800f44:	1080201c 	xori	r2,r2,128
  800f48:	10bfe004 	addi	r2,r2,-128
  800f4c:	10000226 	beq	r2,zero,800f58 <tick+0x7c4>
  800f50:	00800044 	movi	r2,1
  800f54:	00000106 	br	800f5c <tick+0x7c8>
  800f58:	0005883a 	mov	r2,zero
  800f5c:	d0a763c5 	stb	r2,-25201(gp)
      if(g12){
  800f60:	d0a763c3 	ldbu	r2,-25201(gp)
  800f64:	10803fcc 	andi	r2,r2,255
  800f68:	1080201c 	xori	r2,r2,128
  800f6c:	10bfe004 	addi	r2,r2,-128
  800f70:	10000226 	beq	r2,zero,800f7c <tick+0x7e8>
         _Pacemaker1_local_VRP_start =(_Pacemaker1_local_VRP_start||1);
  800f74:	00800044 	movi	r2,1
  800f78:	d0a75845 	stb	r2,-25247(gp)
      }
      g13 =(g12||(g14b&&(!(_cg14))));
  800f7c:	d0a763c3 	ldbu	r2,-25201(gp)
  800f80:	10803fcc 	andi	r2,r2,255
  800f84:	1080201c 	xori	r2,r2,128
  800f88:	10bfe004 	addi	r2,r2,-128
  800f8c:	10000a1e 	bne	r2,zero,800fb8 <tick+0x824>
  800f90:	d0a76d43 	ldbu	r2,-25163(gp)
  800f94:	10803fcc 	andi	r2,r2,255
  800f98:	1080201c 	xori	r2,r2,128
  800f9c:	10bfe004 	addi	r2,r2,-128
  800fa0:	10000726 	beq	r2,zero,800fc0 <tick+0x82c>
  800fa4:	d0a76ec3 	ldbu	r2,-25157(gp)
  800fa8:	10803fcc 	andi	r2,r2,255
  800fac:	1080201c 	xori	r2,r2,128
  800fb0:	10bfe004 	addi	r2,r2,-128
  800fb4:	1000021e 	bne	r2,zero,800fc0 <tick+0x82c>
  800fb8:	00800044 	movi	r2,1
  800fbc:	00000106 	br	800fc4 <tick+0x830>
  800fc0:	0005883a 	mov	r2,zero
  800fc4:	d0a78685 	stb	r2,-25062(gp)
      g18 = g1;
  800fc8:	d0a76203 	ldbu	r2,-25208(gp)
  800fcc:	d0a76885 	stb	r2,-25182(gp)
      g20 =(PRE_g19);
  800fd0:	d0a77e83 	ldbu	r2,-25094(gp)
  800fd4:	d0a77dc5 	stb	r2,-25097(gp)
      g20b = g20;
  800fd8:	d0a77dc3 	ldbu	r2,-25097(gp)
  800fdc:	d0a791c5 	stb	r2,-25017(gp)
      _cg20 = _Pacemaker1_local_AVI_stop;
  800fe0:	d0a78943 	ldbu	r2,-25051(gp)
  800fe4:	d0a76bc5 	stb	r2,-25169(gp)
      g19 =(g18||(g20b&&(!(_cg20)))||(g22b&&_cg22)||g24);
  800fe8:	d0a76883 	ldbu	r2,-25182(gp)
  800fec:	10803fcc 	andi	r2,r2,255
  800ff0:	1080201c 	xori	r2,r2,128
  800ff4:	10bfe004 	addi	r2,r2,-128
  800ff8:	1000191e 	bne	r2,zero,801060 <tick+0x8cc>
  800ffc:	d0a791c3 	ldbu	r2,-25017(gp)
  801000:	10803fcc 	andi	r2,r2,255
  801004:	1080201c 	xori	r2,r2,128
  801008:	10bfe004 	addi	r2,r2,-128
  80100c:	10000526 	beq	r2,zero,801024 <tick+0x890>
  801010:	d0a76bc3 	ldbu	r2,-25169(gp)
  801014:	10803fcc 	andi	r2,r2,255
  801018:	1080201c 	xori	r2,r2,128
  80101c:	10bfe004 	addi	r2,r2,-128
  801020:	10000f26 	beq	r2,zero,801060 <tick+0x8cc>
  801024:	d0a76d03 	ldbu	r2,-25164(gp)
  801028:	10803fcc 	andi	r2,r2,255
  80102c:	1080201c 	xori	r2,r2,128
  801030:	10bfe004 	addi	r2,r2,-128
  801034:	10000526 	beq	r2,zero,80104c <tick+0x8b8>
  801038:	d0a77f43 	ldbu	r2,-25091(gp)
  80103c:	10803fcc 	andi	r2,r2,255
  801040:	1080201c 	xori	r2,r2,128
  801044:	10bfe004 	addi	r2,r2,-128
  801048:	1000051e 	bne	r2,zero,801060 <tick+0x8cc>
  80104c:	d0a79603 	ldbu	r2,-25000(gp)
  801050:	10803fcc 	andi	r2,r2,255
  801054:	1080201c 	xori	r2,r2,128
  801058:	10bfe004 	addi	r2,r2,-128
  80105c:	10000226 	beq	r2,zero,801068 <tick+0x8d4>
  801060:	00800044 	movi	r2,1
  801064:	00000106 	br	80106c <tick+0x8d8>
  801068:	0005883a 	mov	r2,zero
  80106c:	d0a75645 	stb	r2,-25255(gp)
      g21 =((g20b&&_cg20)||(g23&&(!(_cg23))));
  801070:	d0a791c3 	ldbu	r2,-25017(gp)
  801074:	10803fcc 	andi	r2,r2,255
  801078:	1080201c 	xori	r2,r2,128
  80107c:	10bfe004 	addi	r2,r2,-128
  801080:	10000526 	beq	r2,zero,801098 <tick+0x904>
  801084:	d0a76bc3 	ldbu	r2,-25169(gp)
  801088:	10803fcc 	andi	r2,r2,255
  80108c:	1080201c 	xori	r2,r2,128
  801090:	10bfe004 	addi	r2,r2,-128
  801094:	10000a1e 	bne	r2,zero,8010c0 <tick+0x92c>
  801098:	d0a77443 	ldbu	r2,-25135(gp)
  80109c:	10803fcc 	andi	r2,r2,255
  8010a0:	1080201c 	xori	r2,r2,128
  8010a4:	10bfe004 	addi	r2,r2,-128
  8010a8:	10000726 	beq	r2,zero,8010c8 <tick+0x934>
  8010ac:	d0a792c3 	ldbu	r2,-25013(gp)
  8010b0:	10803fcc 	andi	r2,r2,255
  8010b4:	1080201c 	xori	r2,r2,128
  8010b8:	10bfe004 	addi	r2,r2,-128
  8010bc:	1000021e 	bne	r2,zero,8010c8 <tick+0x934>
  8010c0:	00800044 	movi	r2,1
  8010c4:	00000106 	br	8010cc <tick+0x938>
  8010c8:	0005883a 	mov	r2,zero
  8010cc:	d0a76e05 	stb	r2,-25160(gp)
      g26 = g1;
  8010d0:	d0a76203 	ldbu	r2,-25208(gp)
  8010d4:	d0a79845 	stb	r2,-24991(gp)
      g28 =(PRE_g27);
  8010d8:	d0a759c3 	ldbu	r2,-25241(gp)
  8010dc:	d0a79045 	stb	r2,-25023(gp)
      _cg28 = VSense;
  8010e0:	d0a77843 	ldbu	r2,-25119(gp)
  8010e4:	d0a76d85 	stb	r2,-25162(gp)
      g27 =((g28&&(!(_cg28)))||g26);
  8010e8:	d0a79043 	ldbu	r2,-25023(gp)
  8010ec:	10803fcc 	andi	r2,r2,255
  8010f0:	1080201c 	xori	r2,r2,128
  8010f4:	10bfe004 	addi	r2,r2,-128
  8010f8:	10000526 	beq	r2,zero,801110 <tick+0x97c>
  8010fc:	d0a76d83 	ldbu	r2,-25162(gp)
  801100:	10803fcc 	andi	r2,r2,255
  801104:	1080201c 	xori	r2,r2,128
  801108:	10bfe004 	addi	r2,r2,-128
  80110c:	10000526 	beq	r2,zero,801124 <tick+0x990>
  801110:	d0a79843 	ldbu	r2,-24991(gp)
  801114:	10803fcc 	andi	r2,r2,255
  801118:	1080201c 	xori	r2,r2,128
  80111c:	10bfe004 	addi	r2,r2,-128
  801120:	10000226 	beq	r2,zero,80112c <tick+0x998>
  801124:	00800044 	movi	r2,1
  801128:	00000106 	br	801130 <tick+0x99c>
  80112c:	0005883a 	mov	r2,zero
  801130:	d0a75745 	stb	r2,-25251(gp)
      g29 =(g28&&_cg28);
  801134:	d0a79043 	ldbu	r2,-25023(gp)
  801138:	10803fcc 	andi	r2,r2,255
  80113c:	1080201c 	xori	r2,r2,128
  801140:	10bfe004 	addi	r2,r2,-128
  801144:	10000726 	beq	r2,zero,801164 <tick+0x9d0>
  801148:	d0a76d83 	ldbu	r2,-25162(gp)
  80114c:	10803fcc 	andi	r2,r2,255
  801150:	1080201c 	xori	r2,r2,128
  801154:	10bfe004 	addi	r2,r2,-128
  801158:	10000226 	beq	r2,zero,801164 <tick+0x9d0>
  80115c:	00800044 	movi	r2,1
  801160:	00000106 	br	801168 <tick+0x9d4>
  801164:	0005883a 	mov	r2,zero
  801168:	d0a79545 	stb	r2,-25003(gp)
      if(g29){
  80116c:	d0a79543 	ldbu	r2,-25003(gp)
  801170:	10803fcc 	andi	r2,r2,255
  801174:	1080201c 	xori	r2,r2,128
  801178:	10bfe004 	addi	r2,r2,-128
  80117c:	10000226 	beq	r2,zero,801188 <tick+0x9f4>
         _Pacemaker1_local_LRI_start =(_Pacemaker1_local_LRI_start||1);
  801180:	00800044 	movi	r2,1
  801184:	d0a75945 	stb	r2,-25243(gp)
      }
      g36 =(PRE_g35);
  801188:	d0a76a43 	ldbu	r2,-25175(gp)
  80118c:	d0a782c5 	stb	r2,-25077(gp)
      g36b = g36;
  801190:	d0a782c3 	ldbu	r2,-25077(gp)
  801194:	d0a78905 	stb	r2,-25052(gp)
      if(g36b){
  801198:	d0a78903 	ldbu	r2,-25052(gp)
  80119c:	10803fcc 	andi	r2,r2,255
  8011a0:	1080201c 	xori	r2,r2,128
  8011a4:	10bfe004 	addi	r2,r2,-128
  8011a8:	10000226 	beq	r2,zero,8011b4 <tick+0xa20>
         _Pacemaker1_local_LRI_start =(_Pacemaker1_local_LRI_start||1);
  8011ac:	00800044 	movi	r2,1
  8011b0:	d0a75945 	stb	r2,-25243(gp)
      }
      g31 =(PRE_g30);
  8011b4:	d0a793c3 	ldbu	r2,-25009(gp)
  8011b8:	d0a765c5 	stb	r2,-25193(gp)
      g31b = g31;
  8011bc:	d0a765c3 	ldbu	r2,-25193(gp)
  8011c0:	d0a75905 	stb	r2,-25244(gp)
      _cg31 = _Pacemaker1_local_VRP_ex;
  8011c4:	d0a76a83 	ldbu	r2,-25174(gp)
  8011c8:	d0a79705 	stb	r2,-24996(gp)
      g30 =(g29||g36b||(g31b&&(!(_cg31))));
  8011cc:	d0a79543 	ldbu	r2,-25003(gp)
  8011d0:	10803fcc 	andi	r2,r2,255
  8011d4:	1080201c 	xori	r2,r2,128
  8011d8:	10bfe004 	addi	r2,r2,-128
  8011dc:	10000f1e 	bne	r2,zero,80121c <tick+0xa88>
  8011e0:	d0a78903 	ldbu	r2,-25052(gp)
  8011e4:	10803fcc 	andi	r2,r2,255
  8011e8:	1080201c 	xori	r2,r2,128
  8011ec:	10bfe004 	addi	r2,r2,-128
  8011f0:	10000a1e 	bne	r2,zero,80121c <tick+0xa88>
  8011f4:	d0a75903 	ldbu	r2,-25244(gp)
  8011f8:	10803fcc 	andi	r2,r2,255
  8011fc:	1080201c 	xori	r2,r2,128
  801200:	10bfe004 	addi	r2,r2,-128
  801204:	10000726 	beq	r2,zero,801224 <tick+0xa90>
  801208:	d0a79703 	ldbu	r2,-24996(gp)
  80120c:	10803fcc 	andi	r2,r2,255
  801210:	1080201c 	xori	r2,r2,128
  801214:	10bfe004 	addi	r2,r2,-128
  801218:	1000021e 	bne	r2,zero,801224 <tick+0xa90>
  80121c:	00800044 	movi	r2,1
  801220:	00000106 	br	801228 <tick+0xa94>
  801224:	0005883a 	mov	r2,zero
  801228:	d0a78c85 	stb	r2,-25038(gp)
      g32 =((g31b&&_cg31)||(g37&&(!(_cg37))));
  80122c:	d0a75903 	ldbu	r2,-25244(gp)
  801230:	10803fcc 	andi	r2,r2,255
  801234:	1080201c 	xori	r2,r2,128
  801238:	10bfe004 	addi	r2,r2,-128
  80123c:	10000526 	beq	r2,zero,801254 <tick+0xac0>
  801240:	d0a79703 	ldbu	r2,-24996(gp)
  801244:	10803fcc 	andi	r2,r2,255
  801248:	1080201c 	xori	r2,r2,128
  80124c:	10bfe004 	addi	r2,r2,-128
  801250:	10000a1e 	bne	r2,zero,80127c <tick+0xae8>
  801254:	d0a76603 	ldbu	r2,-25192(gp)
  801258:	10803fcc 	andi	r2,r2,255
  80125c:	1080201c 	xori	r2,r2,128
  801260:	10bfe004 	addi	r2,r2,-128
  801264:	10000726 	beq	r2,zero,801284 <tick+0xaf0>
  801268:	d0a78543 	ldbu	r2,-25067(gp)
  80126c:	10803fcc 	andi	r2,r2,255
  801270:	1080201c 	xori	r2,r2,128
  801274:	10bfe004 	addi	r2,r2,-128
  801278:	1000021e 	bne	r2,zero,801284 <tick+0xaf0>
  80127c:	00800044 	movi	r2,1
  801280:	00000106 	br	801288 <tick+0xaf4>
  801284:	0005883a 	mov	r2,zero
  801288:	d0a79145 	stb	r2,-25019(gp)
      g35 =(g38||g34);
  80128c:	d0a76ac3 	ldbu	r2,-25173(gp)
  801290:	10803fcc 	andi	r2,r2,255
  801294:	1080201c 	xori	r2,r2,128
  801298:	10bfe004 	addi	r2,r2,-128
  80129c:	1000051e 	bne	r2,zero,8012b4 <tick+0xb20>
  8012a0:	d0a76f83 	ldbu	r2,-25154(gp)
  8012a4:	10803fcc 	andi	r2,r2,255
  8012a8:	1080201c 	xori	r2,r2,128
  8012ac:	10bfe004 	addi	r2,r2,-128
  8012b0:	10000226 	beq	r2,zero,8012bc <tick+0xb28>
  8012b4:	00800044 	movi	r2,1
  8012b8:	00000106 	br	8012c0 <tick+0xb2c>
  8012bc:	0005883a 	mov	r2,zero
  8012c0:	d0a77bc5 	stb	r2,-25105(gp)
      g40 = g1;
  8012c4:	d0a76203 	ldbu	r2,-25208(gp)
  8012c8:	d0a754c5 	stb	r2,-25261(gp)
      g44 =(PRE_g43);
  8012cc:	d0a78103 	ldbu	r2,-25084(gp)
  8012d0:	d0a76005 	stb	r2,-25216(gp)
      g44b = g44;
  8012d4:	d0a76003 	ldbu	r2,-25216(gp)
  8012d8:	d0a75805 	stb	r2,-25248(gp)
      _cg44 = _Pacemaker1_local_AVI_stop;
  8012dc:	d0a78943 	ldbu	r2,-25051(gp)
  8012e0:	d0a774c5 	stb	r2,-25133(gp)
      g45 =(g44b&&(!(_cg44)));
  8012e4:	d0a75803 	ldbu	r2,-25248(gp)
  8012e8:	10803fcc 	andi	r2,r2,255
  8012ec:	1080201c 	xori	r2,r2,128
  8012f0:	10bfe004 	addi	r2,r2,-128
  8012f4:	10000726 	beq	r2,zero,801314 <tick+0xb80>
  8012f8:	d0a774c3 	ldbu	r2,-25133(gp)
  8012fc:	10803fcc 	andi	r2,r2,255
  801300:	1080201c 	xori	r2,r2,128
  801304:	10bfe004 	addi	r2,r2,-128
  801308:	1000021e 	bne	r2,zero,801314 <tick+0xb80>
  80130c:	00800044 	movi	r2,1
  801310:	00000106 	br	801318 <tick+0xb84>
  801314:	0005883a 	mov	r2,zero
  801318:	d0a79245 	stb	r2,-25015(gp)
      _cg45 = AVITO;
  80131c:	d0a77e03 	ldbu	r2,-25096(gp)
  801320:	d0a76085 	stb	r2,-25214(gp)
      g46 =(g45&&_cg45);
  801324:	d0a79243 	ldbu	r2,-25015(gp)
  801328:	10803fcc 	andi	r2,r2,255
  80132c:	1080201c 	xori	r2,r2,128
  801330:	10bfe004 	addi	r2,r2,-128
  801334:	10000726 	beq	r2,zero,801354 <tick+0xbc0>
  801338:	d0a76083 	ldbu	r2,-25214(gp)
  80133c:	10803fcc 	andi	r2,r2,255
  801340:	1080201c 	xori	r2,r2,128
  801344:	10bfe004 	addi	r2,r2,-128
  801348:	10000226 	beq	r2,zero,801354 <tick+0xbc0>
  80134c:	00800044 	movi	r2,1
  801350:	00000106 	br	801358 <tick+0xbc4>
  801354:	0005883a 	mov	r2,zero
  801358:	d0a78385 	stb	r2,-25074(gp)
      if(g46){
  80135c:	d0a78383 	ldbu	r2,-25074(gp)
  801360:	10803fcc 	andi	r2,r2,255
  801364:	1080201c 	xori	r2,r2,128
  801368:	10bfe004 	addi	r2,r2,-128
  80136c:	10000226 	beq	r2,zero,801378 <tick+0xbe4>
         _Pacemaker1_local_AVI_ex =(_Pacemaker1_local_AVI_ex||1);
  801370:	00800044 	movi	r2,1
  801374:	d0a78185 	stb	r2,-25082(gp)
      }
      g84 =(PRE_g83);
  801378:	d0a77b43 	ldbu	r2,-25107(gp)
  80137c:	d0a766c5 	stb	r2,-25189(gp)
      g84b = g84;
  801380:	d0a766c3 	ldbu	r2,-25189(gp)
  801384:	d0a77fc5 	stb	r2,-25089(gp)
      _cg84 = _Pacemaker1_local_AEI_stop;
  801388:	d0a798c3 	ldbu	r2,-24989(gp)
  80138c:	d0a76045 	stb	r2,-25215(gp)
      g85 =(g84b&&(!(_cg84)));
  801390:	d0a77fc3 	ldbu	r2,-25089(gp)
  801394:	10803fcc 	andi	r2,r2,255
  801398:	1080201c 	xori	r2,r2,128
  80139c:	10bfe004 	addi	r2,r2,-128
  8013a0:	10000726 	beq	r2,zero,8013c0 <tick+0xc2c>
  8013a4:	d0a76043 	ldbu	r2,-25215(gp)
  8013a8:	10803fcc 	andi	r2,r2,255
  8013ac:	1080201c 	xori	r2,r2,128
  8013b0:	10bfe004 	addi	r2,r2,-128
  8013b4:	1000021e 	bne	r2,zero,8013c0 <tick+0xc2c>
  8013b8:	00800044 	movi	r2,1
  8013bc:	00000106 	br	8013c4 <tick+0xc30>
  8013c0:	0005883a 	mov	r2,zero
  8013c4:	d0a75a45 	stb	r2,-25239(gp)
      _cg85 = AEITO;
  8013c8:	d0a797c3 	ldbu	r2,-24993(gp)
  8013cc:	d0a764c5 	stb	r2,-25197(gp)
      g86 =(g85&&_cg85);
  8013d0:	d0a75a43 	ldbu	r2,-25239(gp)
  8013d4:	10803fcc 	andi	r2,r2,255
  8013d8:	1080201c 	xori	r2,r2,128
  8013dc:	10bfe004 	addi	r2,r2,-128
  8013e0:	10000726 	beq	r2,zero,801400 <tick+0xc6c>
  8013e4:	d0a764c3 	ldbu	r2,-25197(gp)
  8013e8:	10803fcc 	andi	r2,r2,255
  8013ec:	1080201c 	xori	r2,r2,128
  8013f0:	10bfe004 	addi	r2,r2,-128
  8013f4:	10000226 	beq	r2,zero,801400 <tick+0xc6c>
  8013f8:	00800044 	movi	r2,1
  8013fc:	00000106 	br	801404 <tick+0xc70>
  801400:	0005883a 	mov	r2,zero
  801404:	d0a78085 	stb	r2,-25086(gp)
      if(g86){
  801408:	d0a78083 	ldbu	r2,-25086(gp)
  80140c:	10803fcc 	andi	r2,r2,255
  801410:	1080201c 	xori	r2,r2,128
  801414:	10bfe004 	addi	r2,r2,-128
  801418:	10000226 	beq	r2,zero,801424 <tick+0xc90>
         _Pacemaker1_local_AEI_ex =(_Pacemaker1_local_AEI_ex||1);
  80141c:	00800044 	movi	r2,1
  801420:	d0a77685 	stb	r2,-25126(gp)
      }
      g73 =(PRE_g72);
  801424:	d0a75ec3 	ldbu	r2,-25221(gp)
  801428:	d0a79085 	stb	r2,-25022(gp)
      g73b = g73;
  80142c:	d0a79083 	ldbu	r2,-25022(gp)
  801430:	d0a78645 	stb	r2,-25063(gp)
      _cg73 = _Pacemaker1_local_AVI_stop;
  801434:	d0a78943 	ldbu	r2,-25051(gp)
  801438:	d0a75f85 	stb	r2,-25218(gp)
      g77 =(g73b&&(!(_cg73)));
  80143c:	d0a78643 	ldbu	r2,-25063(gp)
  801440:	10803fcc 	andi	r2,r2,255
  801444:	1080201c 	xori	r2,r2,128
  801448:	10bfe004 	addi	r2,r2,-128
  80144c:	10000726 	beq	r2,zero,80146c <tick+0xcd8>
  801450:	d0a75f83 	ldbu	r2,-25218(gp)
  801454:	10803fcc 	andi	r2,r2,255
  801458:	1080201c 	xori	r2,r2,128
  80145c:	10bfe004 	addi	r2,r2,-128
  801460:	1000021e 	bne	r2,zero,80146c <tick+0xcd8>
  801464:	00800044 	movi	r2,1
  801468:	00000106 	br	801470 <tick+0xcdc>
  80146c:	0005883a 	mov	r2,zero
  801470:	d0a79105 	stb	r2,-25020(gp)
      _cg77 = ASense;
  801474:	d0a76943 	ldbu	r2,-25179(gp)
  801478:	d0a78e05 	stb	r2,-25032(gp)
      g78 =(g77&&_cg77);
  80147c:	d0a79103 	ldbu	r2,-25020(gp)
  801480:	10803fcc 	andi	r2,r2,255
  801484:	1080201c 	xori	r2,r2,128
  801488:	10bfe004 	addi	r2,r2,-128
  80148c:	10000726 	beq	r2,zero,8014ac <tick+0xd18>
  801490:	d0a78e03 	ldbu	r2,-25032(gp)
  801494:	10803fcc 	andi	r2,r2,255
  801498:	1080201c 	xori	r2,r2,128
  80149c:	10bfe004 	addi	r2,r2,-128
  8014a0:	10000226 	beq	r2,zero,8014ac <tick+0xd18>
  8014a4:	00800044 	movi	r2,1
  8014a8:	00000106 	br	8014b0 <tick+0xd1c>
  8014ac:	0005883a 	mov	r2,zero
  8014b0:	d0a77885 	stb	r2,-25118(gp)
      if(g78){
  8014b4:	d0a77883 	ldbu	r2,-25118(gp)
  8014b8:	10803fcc 	andi	r2,r2,255
  8014bc:	1080201c 	xori	r2,r2,128
  8014c0:	10bfe004 	addi	r2,r2,-128
  8014c4:	10000226 	beq	r2,zero,8014d0 <tick+0xd3c>
         _Pacemaker1_local_FilteredASense =(_Pacemaker1_local_FilteredASense||1);
  8014c8:	00800044 	movi	r2,1
  8014cc:	d0a77ac5 	stb	r2,-25109(gp)
      }
      g92 =(PRE_g91);
  8014d0:	d0a77d43 	ldbu	r2,-25099(gp)
  8014d4:	d0a761c5 	stb	r2,-25209(gp)
      g92b = g92;
  8014d8:	d0a761c3 	ldbu	r2,-25209(gp)
  8014dc:	d0a77945 	stb	r2,-25115(gp)
      _cg92 = _Pacemaker1_local_FilteredASense;
  8014e0:	d0a77ac3 	ldbu	r2,-25109(gp)
  8014e4:	d0a79305 	stb	r2,-25012(gp)
      g93 =(g92b&&(!(_cg92)));
  8014e8:	d0a77943 	ldbu	r2,-25115(gp)
  8014ec:	10803fcc 	andi	r2,r2,255
  8014f0:	1080201c 	xori	r2,r2,128
  8014f4:	10bfe004 	addi	r2,r2,-128
  8014f8:	10000726 	beq	r2,zero,801518 <tick+0xd84>
  8014fc:	d0a79303 	ldbu	r2,-25012(gp)
  801500:	10803fcc 	andi	r2,r2,255
  801504:	1080201c 	xori	r2,r2,128
  801508:	10bfe004 	addi	r2,r2,-128
  80150c:	1000021e 	bne	r2,zero,801518 <tick+0xd84>
  801510:	00800044 	movi	r2,1
  801514:	00000106 	br	80151c <tick+0xd88>
  801518:	0005883a 	mov	r2,zero
  80151c:	d0a77f05 	stb	r2,-25092(gp)
      _cg93 = _Pacemaker1_local_AEI_ex;
  801520:	d0a77683 	ldbu	r2,-25126(gp)
  801524:	d0a78a05 	stb	r2,-25048(gp)
      g94 =(g93&&_cg93);
  801528:	d0a77f03 	ldbu	r2,-25092(gp)
  80152c:	10803fcc 	andi	r2,r2,255
  801530:	1080201c 	xori	r2,r2,128
  801534:	10bfe004 	addi	r2,r2,-128
  801538:	10000726 	beq	r2,zero,801558 <tick+0xdc4>
  80153c:	d0a78a03 	ldbu	r2,-25048(gp)
  801540:	10803fcc 	andi	r2,r2,255
  801544:	1080201c 	xori	r2,r2,128
  801548:	10bfe004 	addi	r2,r2,-128
  80154c:	10000226 	beq	r2,zero,801558 <tick+0xdc4>
  801550:	00800044 	movi	r2,1
  801554:	00000106 	br	80155c <tick+0xdc8>
  801558:	0005883a 	mov	r2,zero
  80155c:	d0a77085 	stb	r2,-25150(gp)
      if(g94){
  801560:	d0a77083 	ldbu	r2,-25150(gp)
  801564:	10803fcc 	andi	r2,r2,255
  801568:	1080201c 	xori	r2,r2,128
  80156c:	10bfe004 	addi	r2,r2,-128
  801570:	10000226 	beq	r2,zero,80157c <tick+0xde8>
         APace =(APace||1);
  801574:	00800044 	movi	r2,1
  801578:	d0a75585 	stb	r2,-25258(gp)
      }
      g50 =(PRE_g49);
  80157c:	d0a76783 	ldbu	r2,-25186(gp)
  801580:	d0a78485 	stb	r2,-25070(gp)
      g50b = g50;
  801584:	d0a78483 	ldbu	r2,-25070(gp)
  801588:	d0a762c5 	stb	r2,-25205(gp)
      _cg50 = _Pacemaker1_local_FilteredASense;
  80158c:	d0a77ac3 	ldbu	r2,-25109(gp)
  801590:	d0a78b85 	stb	r2,-25042(gp)
      g62 =(g50b&&(!(_cg50)));
  801594:	d0a762c3 	ldbu	r2,-25205(gp)
  801598:	10803fcc 	andi	r2,r2,255
  80159c:	1080201c 	xori	r2,r2,128
  8015a0:	10bfe004 	addi	r2,r2,-128
  8015a4:	10000726 	beq	r2,zero,8015c4 <tick+0xe30>
  8015a8:	d0a78b83 	ldbu	r2,-25042(gp)
  8015ac:	10803fcc 	andi	r2,r2,255
  8015b0:	1080201c 	xori	r2,r2,128
  8015b4:	10bfe004 	addi	r2,r2,-128
  8015b8:	1000021e 	bne	r2,zero,8015c4 <tick+0xe30>
  8015bc:	00800044 	movi	r2,1
  8015c0:	00000106 	br	8015c8 <tick+0xe34>
  8015c4:	0005883a 	mov	r2,zero
  8015c8:	d0a76645 	stb	r2,-25191(gp)
      _cg62 = APace;
  8015cc:	d0a75583 	ldbu	r2,-25258(gp)
  8015d0:	d0a79785 	stb	r2,-24994(gp)
      g51 =((g62&&_cg62)||(g50b&&_cg50));
  8015d4:	d0a76643 	ldbu	r2,-25191(gp)
  8015d8:	10803fcc 	andi	r2,r2,255
  8015dc:	1080201c 	xori	r2,r2,128
  8015e0:	10bfe004 	addi	r2,r2,-128
  8015e4:	10000526 	beq	r2,zero,8015fc <tick+0xe68>
  8015e8:	d0a79783 	ldbu	r2,-24994(gp)
  8015ec:	10803fcc 	andi	r2,r2,255
  8015f0:	1080201c 	xori	r2,r2,128
  8015f4:	10bfe004 	addi	r2,r2,-128
  8015f8:	10000a1e 	bne	r2,zero,801624 <tick+0xe90>
  8015fc:	d0a762c3 	ldbu	r2,-25205(gp)
  801600:	10803fcc 	andi	r2,r2,255
  801604:	1080201c 	xori	r2,r2,128
  801608:	10bfe004 	addi	r2,r2,-128
  80160c:	10000726 	beq	r2,zero,80162c <tick+0xe98>
  801610:	d0a78b83 	ldbu	r2,-25042(gp)
  801614:	10803fcc 	andi	r2,r2,255
  801618:	1080201c 	xori	r2,r2,128
  80161c:	10bfe004 	addi	r2,r2,-128
  801620:	10000226 	beq	r2,zero,80162c <tick+0xe98>
  801624:	00800044 	movi	r2,1
  801628:	00000106 	br	801630 <tick+0xe9c>
  80162c:	0005883a 	mov	r2,zero
  801630:	d0a78505 	stb	r2,-25068(gp)
      if(g51){
  801634:	d0a78503 	ldbu	r2,-25068(gp)
  801638:	10803fcc 	andi	r2,r2,255
  80163c:	1080201c 	xori	r2,r2,128
  801640:	10bfe004 	addi	r2,r2,-128
  801644:	10000226 	beq	r2,zero,801650 <tick+0xebc>
         _Pacemaker1_local_AVI_start =(_Pacemaker1_local_AVI_start||1);
  801648:	00800044 	movi	r2,1
  80164c:	d0a75445 	stb	r2,-25263(gp)
      }
      g42 =(PRE_g41);
  801650:	d0a786c3 	ldbu	r2,-25061(gp)
  801654:	d0a75a85 	stb	r2,-25238(gp)
      g42b = g42;
  801658:	d0a75a83 	ldbu	r2,-25238(gp)
  80165c:	d0a76c85 	stb	r2,-25166(gp)
      _cg42 = _Pacemaker1_local_AVI_start;
  801660:	d0a75443 	ldbu	r2,-25263(gp)
  801664:	d0a75405 	stb	r2,-25264(gp)
      g41 =((g44b&&_cg44)||g46||g40||(g42b&&(!(_cg42))));
  801668:	d0a75803 	ldbu	r2,-25248(gp)
  80166c:	10803fcc 	andi	r2,r2,255
  801670:	1080201c 	xori	r2,r2,128
  801674:	10bfe004 	addi	r2,r2,-128
  801678:	10000526 	beq	r2,zero,801690 <tick+0xefc>
  80167c:	d0a774c3 	ldbu	r2,-25133(gp)
  801680:	10803fcc 	andi	r2,r2,255
  801684:	1080201c 	xori	r2,r2,128
  801688:	10bfe004 	addi	r2,r2,-128
  80168c:	1000141e 	bne	r2,zero,8016e0 <tick+0xf4c>
  801690:	d0a78383 	ldbu	r2,-25074(gp)
  801694:	10803fcc 	andi	r2,r2,255
  801698:	1080201c 	xori	r2,r2,128
  80169c:	10bfe004 	addi	r2,r2,-128
  8016a0:	10000f1e 	bne	r2,zero,8016e0 <tick+0xf4c>
  8016a4:	d0a754c3 	ldbu	r2,-25261(gp)
  8016a8:	10803fcc 	andi	r2,r2,255
  8016ac:	1080201c 	xori	r2,r2,128
  8016b0:	10bfe004 	addi	r2,r2,-128
  8016b4:	10000a1e 	bne	r2,zero,8016e0 <tick+0xf4c>
  8016b8:	d0a76c83 	ldbu	r2,-25166(gp)
  8016bc:	10803fcc 	andi	r2,r2,255
  8016c0:	1080201c 	xori	r2,r2,128
  8016c4:	10bfe004 	addi	r2,r2,-128
  8016c8:	10000726 	beq	r2,zero,8016e8 <tick+0xf54>
  8016cc:	d0a75403 	ldbu	r2,-25264(gp)
  8016d0:	10803fcc 	andi	r2,r2,255
  8016d4:	1080201c 	xori	r2,r2,128
  8016d8:	10bfe004 	addi	r2,r2,-128
  8016dc:	1000021e 	bne	r2,zero,8016e8 <tick+0xf54>
  8016e0:	00800044 	movi	r2,1
  8016e4:	00000106 	br	8016ec <tick+0xf58>
  8016e8:	0005883a 	mov	r2,zero
  8016ec:	d0a76705 	stb	r2,-25188(gp)
      g43 =((g42b&&_cg42)||(g45&&(!(_cg45))));
  8016f0:	d0a76c83 	ldbu	r2,-25166(gp)
  8016f4:	10803fcc 	andi	r2,r2,255
  8016f8:	1080201c 	xori	r2,r2,128
  8016fc:	10bfe004 	addi	r2,r2,-128
  801700:	10000526 	beq	r2,zero,801718 <tick+0xf84>
  801704:	d0a75403 	ldbu	r2,-25264(gp)
  801708:	10803fcc 	andi	r2,r2,255
  80170c:	1080201c 	xori	r2,r2,128
  801710:	10bfe004 	addi	r2,r2,-128
  801714:	10000a1e 	bne	r2,zero,801740 <tick+0xfac>
  801718:	d0a79243 	ldbu	r2,-25015(gp)
  80171c:	10803fcc 	andi	r2,r2,255
  801720:	1080201c 	xori	r2,r2,128
  801724:	10bfe004 	addi	r2,r2,-128
  801728:	10000726 	beq	r2,zero,801748 <tick+0xfb4>
  80172c:	d0a76083 	ldbu	r2,-25214(gp)
  801730:	10803fcc 	andi	r2,r2,255
  801734:	1080201c 	xori	r2,r2,128
  801738:	10bfe004 	addi	r2,r2,-128
  80173c:	1000021e 	bne	r2,zero,801748 <tick+0xfb4>
  801740:	00800044 	movi	r2,1
  801744:	00000106 	br	80174c <tick+0xfb8>
  801748:	0005883a 	mov	r2,zero
  80174c:	d0a780c5 	stb	r2,-25085(gp)
      g48 = g1;
  801750:	d0a76203 	ldbu	r2,-25208(gp)
  801754:	d0a76a05 	stb	r2,-25176(gp)
      g49 =(g58||(g62&&(!(_cg62)))||g48||g54);
  801758:	d0a78dc3 	ldbu	r2,-25033(gp)
  80175c:	10803fcc 	andi	r2,r2,255
  801760:	1080201c 	xori	r2,r2,128
  801764:	10bfe004 	addi	r2,r2,-128
  801768:	1000141e 	bne	r2,zero,8017bc <tick+0x1028>
  80176c:	d0a76643 	ldbu	r2,-25191(gp)
  801770:	10803fcc 	andi	r2,r2,255
  801774:	1080201c 	xori	r2,r2,128
  801778:	10bfe004 	addi	r2,r2,-128
  80177c:	10000526 	beq	r2,zero,801794 <tick+0x1000>
  801780:	d0a79783 	ldbu	r2,-24994(gp)
  801784:	10803fcc 	andi	r2,r2,255
  801788:	1080201c 	xori	r2,r2,128
  80178c:	10bfe004 	addi	r2,r2,-128
  801790:	10000a26 	beq	r2,zero,8017bc <tick+0x1028>
  801794:	d0a76a03 	ldbu	r2,-25176(gp)
  801798:	10803fcc 	andi	r2,r2,255
  80179c:	1080201c 	xori	r2,r2,128
  8017a0:	10bfe004 	addi	r2,r2,-128
  8017a4:	1000051e 	bne	r2,zero,8017bc <tick+0x1028>
  8017a8:	d0a773c3 	ldbu	r2,-25137(gp)
  8017ac:	10803fcc 	andi	r2,r2,255
  8017b0:	1080201c 	xori	r2,r2,128
  8017b4:	10bfe004 	addi	r2,r2,-128
  8017b8:	10000226 	beq	r2,zero,8017c4 <tick+0x1030>
  8017bc:	00800044 	movi	r2,1
  8017c0:	00000106 	br	8017c8 <tick+0x1034>
  8017c4:	0005883a 	mov	r2,zero
  8017c8:	d0a77105 	stb	r2,-25148(gp)
      g100 =(PRE_g99);
  8017cc:	d0a78bc3 	ldbu	r2,-25041(gp)
  8017d0:	d0a77305 	stb	r2,-25140(gp)
      _cg100 = URITO;
  8017d4:	d0a77cc3 	ldbu	r2,-25101(gp)
  8017d8:	d0a77745 	stb	r2,-25123(gp)
      g101 =(g100&&_cg100);
  8017dc:	d0a77303 	ldbu	r2,-25140(gp)
  8017e0:	10803fcc 	andi	r2,r2,255
  8017e4:	1080201c 	xori	r2,r2,128
  8017e8:	10bfe004 	addi	r2,r2,-128
  8017ec:	10000726 	beq	r2,zero,80180c <tick+0x1078>
  8017f0:	d0a77743 	ldbu	r2,-25123(gp)
  8017f4:	10803fcc 	andi	r2,r2,255
  8017f8:	1080201c 	xori	r2,r2,128
  8017fc:	10bfe004 	addi	r2,r2,-128
  801800:	10000226 	beq	r2,zero,80180c <tick+0x1078>
  801804:	00800044 	movi	r2,1
  801808:	00000106 	br	801810 <tick+0x107c>
  80180c:	0005883a 	mov	r2,zero
  801810:	d0a77645 	stb	r2,-25127(gp)
      if(g101){
  801814:	d0a77643 	ldbu	r2,-25127(gp)
  801818:	10803fcc 	andi	r2,r2,255
  80181c:	1080201c 	xori	r2,r2,128
  801820:	10bfe004 	addi	r2,r2,-128
  801824:	10000226 	beq	r2,zero,801830 <tick+0x109c>
         _Pacemaker1_local_URI_ex =(_Pacemaker1_local_URI_ex||1);
  801828:	00800044 	movi	r2,1
  80182c:	d0a78a45 	stb	r2,-25047(gp)
      }
      g55 =(g53b&&(!(_cg53)));
  801830:	d0a78243 	ldbu	r2,-25079(gp)
  801834:	10803fcc 	andi	r2,r2,255
  801838:	1080201c 	xori	r2,r2,128
  80183c:	10bfe004 	addi	r2,r2,-128
  801840:	10000726 	beq	r2,zero,801860 <tick+0x10cc>
  801844:	d0a77283 	ldbu	r2,-25142(gp)
  801848:	10803fcc 	andi	r2,r2,255
  80184c:	1080201c 	xori	r2,r2,128
  801850:	10bfe004 	addi	r2,r2,-128
  801854:	1000021e 	bne	r2,zero,801860 <tick+0x10cc>
  801858:	00800044 	movi	r2,1
  80185c:	00000106 	br	801864 <tick+0x10d0>
  801860:	0005883a 	mov	r2,zero
  801864:	d0a756c5 	stb	r2,-25253(gp)
      _cg55 = _Pacemaker1_local_URI_ex;
  801868:	d0a78a43 	ldbu	r2,-25047(gp)
  80186c:	d0a79345 	stb	r2,-25011(gp)
      g52 =(g51||(g55&&(!(_cg55))));
  801870:	d0a78503 	ldbu	r2,-25068(gp)
  801874:	10803fcc 	andi	r2,r2,255
  801878:	1080201c 	xori	r2,r2,128
  80187c:	10bfe004 	addi	r2,r2,-128
  801880:	10000a1e 	bne	r2,zero,8018ac <tick+0x1118>
  801884:	d0a756c3 	ldbu	r2,-25253(gp)
  801888:	10803fcc 	andi	r2,r2,255
  80188c:	1080201c 	xori	r2,r2,128
  801890:	10bfe004 	addi	r2,r2,-128
  801894:	10000726 	beq	r2,zero,8018b4 <tick+0x1120>
  801898:	d0a79343 	ldbu	r2,-25011(gp)
  80189c:	10803fcc 	andi	r2,r2,255
  8018a0:	1080201c 	xori	r2,r2,128
  8018a4:	10bfe004 	addi	r2,r2,-128
  8018a8:	1000021e 	bne	r2,zero,8018b4 <tick+0x1120>
  8018ac:	00800044 	movi	r2,1
  8018b0:	00000106 	br	8018b8 <tick+0x1124>
  8018b4:	0005883a 	mov	r2,zero
  8018b8:	d0a76445 	stb	r2,-25199(gp)
      g56 =((g60&&(!(_cg60)))||(g55&&_cg55));
  8018bc:	d0a77e43 	ldbu	r2,-25095(gp)
  8018c0:	10803fcc 	andi	r2,r2,255
  8018c4:	1080201c 	xori	r2,r2,128
  8018c8:	10bfe004 	addi	r2,r2,-128
  8018cc:	10000526 	beq	r2,zero,8018e4 <tick+0x1150>
  8018d0:	d0a77b03 	ldbu	r2,-25108(gp)
  8018d4:	10803fcc 	andi	r2,r2,255
  8018d8:	1080201c 	xori	r2,r2,128
  8018dc:	10bfe004 	addi	r2,r2,-128
  8018e0:	10000a26 	beq	r2,zero,80190c <tick+0x1178>
  8018e4:	d0a756c3 	ldbu	r2,-25253(gp)
  8018e8:	10803fcc 	andi	r2,r2,255
  8018ec:	1080201c 	xori	r2,r2,128
  8018f0:	10bfe004 	addi	r2,r2,-128
  8018f4:	10000726 	beq	r2,zero,801914 <tick+0x1180>
  8018f8:	d0a79343 	ldbu	r2,-25011(gp)
  8018fc:	10803fcc 	andi	r2,r2,255
  801900:	1080201c 	xori	r2,r2,128
  801904:	10bfe004 	addi	r2,r2,-128
  801908:	10000226 	beq	r2,zero,801914 <tick+0x1180>
  80190c:	00800044 	movi	r2,1
  801910:	00000106 	br	801918 <tick+0x1184>
  801914:	0005883a 	mov	r2,zero
  801918:	d0a777c5 	stb	r2,-25121(gp)
      g64 = g1;
  80191c:	d0a76203 	ldbu	r2,-25208(gp)
  801920:	d0a76dc5 	stb	r2,-25161(gp)
      g68 =(PRE_g67);
  801924:	d0a77a43 	ldbu	r2,-25111(gp)
  801928:	d0a78e85 	stb	r2,-25030(gp)
      _cg68 = PVARPTO;
  80192c:	d0a78283 	ldbu	r2,-25078(gp)
  801930:	d0a76f05 	stb	r2,-25156(gp)
      g69 =(g68&&_cg68);
  801934:	d0a78e83 	ldbu	r2,-25030(gp)
  801938:	10803fcc 	andi	r2,r2,255
  80193c:	1080201c 	xori	r2,r2,128
  801940:	10bfe004 	addi	r2,r2,-128
  801944:	10000726 	beq	r2,zero,801964 <tick+0x11d0>
  801948:	d0a76f03 	ldbu	r2,-25156(gp)
  80194c:	10803fcc 	andi	r2,r2,255
  801950:	1080201c 	xori	r2,r2,128
  801954:	10bfe004 	addi	r2,r2,-128
  801958:	10000226 	beq	r2,zero,801964 <tick+0x11d0>
  80195c:	00800044 	movi	r2,1
  801960:	00000106 	br	801968 <tick+0x11d4>
  801964:	0005883a 	mov	r2,zero
  801968:	d0a79805 	stb	r2,-24992(gp)
      if(g69){
  80196c:	d0a79803 	ldbu	r2,-24992(gp)
  801970:	10803fcc 	andi	r2,r2,255
  801974:	1080201c 	xori	r2,r2,128
  801978:	10bfe004 	addi	r2,r2,-128
  80197c:	10000226 	beq	r2,zero,801988 <tick+0x11f4>
         _Pacemaker1_local_PVARP_ex =(_Pacemaker1_local_PVARP_ex||1);
  801980:	00800044 	movi	r2,1
  801984:	d0a77145 	stb	r2,-25147(gp)
      }
      g66 =(PRE_g65);
  801988:	d0a76103 	ldbu	r2,-25212(gp)
  80198c:	d0a77405 	stb	r2,-25136(gp)
      g66b = g66;
  801990:	d0a77403 	ldbu	r2,-25136(gp)
  801994:	d0a77ec5 	stb	r2,-25093(gp)
      _cg66 = _Pacemaker1_local_AVI_stop;
  801998:	d0a78943 	ldbu	r2,-25051(gp)
  80199c:	d0a78885 	stb	r2,-25054(gp)
      g65 =(g69||g64||(g66b&&(!(_cg66))));
  8019a0:	d0a79803 	ldbu	r2,-24992(gp)
  8019a4:	10803fcc 	andi	r2,r2,255
  8019a8:	1080201c 	xori	r2,r2,128
  8019ac:	10bfe004 	addi	r2,r2,-128
  8019b0:	10000f1e 	bne	r2,zero,8019f0 <tick+0x125c>
  8019b4:	d0a76dc3 	ldbu	r2,-25161(gp)
  8019b8:	10803fcc 	andi	r2,r2,255
  8019bc:	1080201c 	xori	r2,r2,128
  8019c0:	10bfe004 	addi	r2,r2,-128
  8019c4:	10000a1e 	bne	r2,zero,8019f0 <tick+0x125c>
  8019c8:	d0a77ec3 	ldbu	r2,-25093(gp)
  8019cc:	10803fcc 	andi	r2,r2,255
  8019d0:	1080201c 	xori	r2,r2,128
  8019d4:	10bfe004 	addi	r2,r2,-128
  8019d8:	10000726 	beq	r2,zero,8019f8 <tick+0x1264>
  8019dc:	d0a78883 	ldbu	r2,-25054(gp)
  8019e0:	10803fcc 	andi	r2,r2,255
  8019e4:	1080201c 	xori	r2,r2,128
  8019e8:	10bfe004 	addi	r2,r2,-128
  8019ec:	1000021e 	bne	r2,zero,8019f8 <tick+0x1264>
  8019f0:	00800044 	movi	r2,1
  8019f4:	00000106 	br	8019fc <tick+0x1268>
  8019f8:	0005883a 	mov	r2,zero
  8019fc:	d0a78fc5 	stb	r2,-25025(gp)
      g67 =((g66b&&_cg66)||(g68&&(!(_cg68))));
  801a00:	d0a77ec3 	ldbu	r2,-25093(gp)
  801a04:	10803fcc 	andi	r2,r2,255
  801a08:	1080201c 	xori	r2,r2,128
  801a0c:	10bfe004 	addi	r2,r2,-128
  801a10:	10000526 	beq	r2,zero,801a28 <tick+0x1294>
  801a14:	d0a78883 	ldbu	r2,-25054(gp)
  801a18:	10803fcc 	andi	r2,r2,255
  801a1c:	1080201c 	xori	r2,r2,128
  801a20:	10bfe004 	addi	r2,r2,-128
  801a24:	10000a1e 	bne	r2,zero,801a50 <tick+0x12bc>
  801a28:	d0a78e83 	ldbu	r2,-25030(gp)
  801a2c:	10803fcc 	andi	r2,r2,255
  801a30:	1080201c 	xori	r2,r2,128
  801a34:	10bfe004 	addi	r2,r2,-128
  801a38:	10000726 	beq	r2,zero,801a58 <tick+0x12c4>
  801a3c:	d0a76f03 	ldbu	r2,-25156(gp)
  801a40:	10803fcc 	andi	r2,r2,255
  801a44:	1080201c 	xori	r2,r2,128
  801a48:	10bfe004 	addi	r2,r2,-128
  801a4c:	1000021e 	bne	r2,zero,801a58 <tick+0x12c4>
  801a50:	00800044 	movi	r2,1
  801a54:	00000106 	br	801a5c <tick+0x12c8>
  801a58:	0005883a 	mov	r2,zero
  801a5c:	d0a795c5 	stb	r2,-25001(gp)
      g71 = g1;
  801a60:	d0a76203 	ldbu	r2,-25208(gp)
  801a64:	d0a76285 	stb	r2,-25206(gp)
      g76 =(PRE_g75);
  801a68:	d0a75f03 	ldbu	r2,-25220(gp)
  801a6c:	d0a76585 	stb	r2,-25194(gp)
      g76b = g76;
  801a70:	d0a76583 	ldbu	r2,-25194(gp)
  801a74:	d0a758c5 	stb	r2,-25245(gp)
      _cg76 = _Pacemaker1_local_PVARP_ex;
  801a78:	d0a77143 	ldbu	r2,-25147(gp)
  801a7c:	d0a76c05 	stb	r2,-25168(gp)
      g72 =(g78||g71||(g76b&&_cg76)||(g77&&(!(_cg77))));
  801a80:	d0a77883 	ldbu	r2,-25118(gp)
  801a84:	10803fcc 	andi	r2,r2,255
  801a88:	1080201c 	xori	r2,r2,128
  801a8c:	10bfe004 	addi	r2,r2,-128
  801a90:	1000191e 	bne	r2,zero,801af8 <tick+0x1364>
  801a94:	d0a76283 	ldbu	r2,-25206(gp)
  801a98:	10803fcc 	andi	r2,r2,255
  801a9c:	1080201c 	xori	r2,r2,128
  801aa0:	10bfe004 	addi	r2,r2,-128
  801aa4:	1000141e 	bne	r2,zero,801af8 <tick+0x1364>
  801aa8:	d0a758c3 	ldbu	r2,-25245(gp)
  801aac:	10803fcc 	andi	r2,r2,255
  801ab0:	1080201c 	xori	r2,r2,128
  801ab4:	10bfe004 	addi	r2,r2,-128
  801ab8:	10000526 	beq	r2,zero,801ad0 <tick+0x133c>
  801abc:	d0a76c03 	ldbu	r2,-25168(gp)
  801ac0:	10803fcc 	andi	r2,r2,255
  801ac4:	1080201c 	xori	r2,r2,128
  801ac8:	10bfe004 	addi	r2,r2,-128
  801acc:	10000a1e 	bne	r2,zero,801af8 <tick+0x1364>
  801ad0:	d0a79103 	ldbu	r2,-25020(gp)
  801ad4:	10803fcc 	andi	r2,r2,255
  801ad8:	1080201c 	xori	r2,r2,128
  801adc:	10bfe004 	addi	r2,r2,-128
  801ae0:	10000726 	beq	r2,zero,801b00 <tick+0x136c>
  801ae4:	d0a78e03 	ldbu	r2,-25032(gp)
  801ae8:	10803fcc 	andi	r2,r2,255
  801aec:	1080201c 	xori	r2,r2,128
  801af0:	10bfe004 	addi	r2,r2,-128
  801af4:	1000021e 	bne	r2,zero,801b00 <tick+0x136c>
  801af8:	00800044 	movi	r2,1
  801afc:	00000106 	br	801b04 <tick+0x1370>
  801b00:	0005883a 	mov	r2,zero
  801b04:	d0a78ac5 	stb	r2,-25045(gp)
      g74 =(g73b&&_cg73);
  801b08:	d0a78643 	ldbu	r2,-25063(gp)
  801b0c:	10803fcc 	andi	r2,r2,255
  801b10:	1080201c 	xori	r2,r2,128
  801b14:	10bfe004 	addi	r2,r2,-128
  801b18:	10000726 	beq	r2,zero,801b38 <tick+0x13a4>
  801b1c:	d0a75f83 	ldbu	r2,-25218(gp)
  801b20:	10803fcc 	andi	r2,r2,255
  801b24:	1080201c 	xori	r2,r2,128
  801b28:	10bfe004 	addi	r2,r2,-128
  801b2c:	10000226 	beq	r2,zero,801b38 <tick+0x13a4>
  801b30:	00800044 	movi	r2,1
  801b34:	00000106 	br	801b3c <tick+0x13a8>
  801b38:	0005883a 	mov	r2,zero
  801b3c:	d0a79945 	stb	r2,-24987(gp)
      if(g74){
  801b40:	d0a79943 	ldbu	r2,-24987(gp)
  801b44:	10803fcc 	andi	r2,r2,255
  801b48:	1080201c 	xori	r2,r2,128
  801b4c:	10bfe004 	addi	r2,r2,-128
  801b50:	10000226 	beq	r2,zero,801b5c <tick+0x13c8>
         _Pacemaker1_local_PVARP_start =(_Pacemaker1_local_PVARP_start||1);
  801b54:	00800044 	movi	r2,1
  801b58:	d0a760c5 	stb	r2,-25213(gp)
      }
      g75 =((g76b&&(!(_cg76)))||g74);
  801b5c:	d0a758c3 	ldbu	r2,-25245(gp)
  801b60:	10803fcc 	andi	r2,r2,255
  801b64:	1080201c 	xori	r2,r2,128
  801b68:	10bfe004 	addi	r2,r2,-128
  801b6c:	10000526 	beq	r2,zero,801b84 <tick+0x13f0>
  801b70:	d0a76c03 	ldbu	r2,-25168(gp)
  801b74:	10803fcc 	andi	r2,r2,255
  801b78:	1080201c 	xori	r2,r2,128
  801b7c:	10bfe004 	addi	r2,r2,-128
  801b80:	10000526 	beq	r2,zero,801b98 <tick+0x1404>
  801b84:	d0a79943 	ldbu	r2,-24987(gp)
  801b88:	10803fcc 	andi	r2,r2,255
  801b8c:	1080201c 	xori	r2,r2,128
  801b90:	10bfe004 	addi	r2,r2,-128
  801b94:	10000226 	beq	r2,zero,801ba0 <tick+0x140c>
  801b98:	00800044 	movi	r2,1
  801b9c:	00000106 	br	801ba4 <tick+0x1410>
  801ba0:	0005883a 	mov	r2,zero
  801ba4:	d0a78c45 	stb	r2,-25039(gp)
      g80 = g1;
  801ba8:	d0a76203 	ldbu	r2,-25208(gp)
  801bac:	d0a772c5 	stb	r2,-25141(gp)
      g82 =(PRE_g81);
  801bb0:	d0a768c3 	ldbu	r2,-25181(gp)
  801bb4:	d0a76305 	stb	r2,-25204(gp)
      g82b = g82;
  801bb8:	d0a76303 	ldbu	r2,-25204(gp)
  801bbc:	d0a78a85 	stb	r2,-25046(gp)
      _cg82 = _Pacemaker1_local_AVI_stop;
  801bc0:	d0a78943 	ldbu	r2,-25051(gp)
  801bc4:	d0a76cc5 	stb	r2,-25165(gp)
      g81 =(g86||(g82b&&(!(_cg82)))||(g84b&&_cg84)||g80);
  801bc8:	d0a78083 	ldbu	r2,-25086(gp)
  801bcc:	10803fcc 	andi	r2,r2,255
  801bd0:	1080201c 	xori	r2,r2,128
  801bd4:	10bfe004 	addi	r2,r2,-128
  801bd8:	1000191e 	bne	r2,zero,801c40 <tick+0x14ac>
  801bdc:	d0a78a83 	ldbu	r2,-25046(gp)
  801be0:	10803fcc 	andi	r2,r2,255
  801be4:	1080201c 	xori	r2,r2,128
  801be8:	10bfe004 	addi	r2,r2,-128
  801bec:	10000526 	beq	r2,zero,801c04 <tick+0x1470>
  801bf0:	d0a76cc3 	ldbu	r2,-25165(gp)
  801bf4:	10803fcc 	andi	r2,r2,255
  801bf8:	1080201c 	xori	r2,r2,128
  801bfc:	10bfe004 	addi	r2,r2,-128
  801c00:	10000f26 	beq	r2,zero,801c40 <tick+0x14ac>
  801c04:	d0a77fc3 	ldbu	r2,-25089(gp)
  801c08:	10803fcc 	andi	r2,r2,255
  801c0c:	1080201c 	xori	r2,r2,128
  801c10:	10bfe004 	addi	r2,r2,-128
  801c14:	10000526 	beq	r2,zero,801c2c <tick+0x1498>
  801c18:	d0a76043 	ldbu	r2,-25215(gp)
  801c1c:	10803fcc 	andi	r2,r2,255
  801c20:	1080201c 	xori	r2,r2,128
  801c24:	10bfe004 	addi	r2,r2,-128
  801c28:	1000051e 	bne	r2,zero,801c40 <tick+0x14ac>
  801c2c:	d0a772c3 	ldbu	r2,-25141(gp)
  801c30:	10803fcc 	andi	r2,r2,255
  801c34:	1080201c 	xori	r2,r2,128
  801c38:	10bfe004 	addi	r2,r2,-128
  801c3c:	10000226 	beq	r2,zero,801c48 <tick+0x14b4>
  801c40:	00800044 	movi	r2,1
  801c44:	00000106 	br	801c4c <tick+0x14b8>
  801c48:	0005883a 	mov	r2,zero
  801c4c:	d0a78b05 	stb	r2,-25044(gp)
      g83 =((g82b&&_cg82)||(g85&&(!(_cg85))));
  801c50:	d0a78a83 	ldbu	r2,-25046(gp)
  801c54:	10803fcc 	andi	r2,r2,255
  801c58:	1080201c 	xori	r2,r2,128
  801c5c:	10bfe004 	addi	r2,r2,-128
  801c60:	10000526 	beq	r2,zero,801c78 <tick+0x14e4>
  801c64:	d0a76cc3 	ldbu	r2,-25165(gp)
  801c68:	10803fcc 	andi	r2,r2,255
  801c6c:	1080201c 	xori	r2,r2,128
  801c70:	10bfe004 	addi	r2,r2,-128
  801c74:	10000a1e 	bne	r2,zero,801ca0 <tick+0x150c>
  801c78:	d0a75a43 	ldbu	r2,-25239(gp)
  801c7c:	10803fcc 	andi	r2,r2,255
  801c80:	1080201c 	xori	r2,r2,128
  801c84:	10bfe004 	addi	r2,r2,-128
  801c88:	10000726 	beq	r2,zero,801ca8 <tick+0x1514>
  801c8c:	d0a764c3 	ldbu	r2,-25197(gp)
  801c90:	10803fcc 	andi	r2,r2,255
  801c94:	1080201c 	xori	r2,r2,128
  801c98:	10bfe004 	addi	r2,r2,-128
  801c9c:	1000021e 	bne	r2,zero,801ca8 <tick+0x1514>
  801ca0:	00800044 	movi	r2,1
  801ca4:	00000106 	br	801cac <tick+0x1518>
  801ca8:	0005883a 	mov	r2,zero
  801cac:	d0a75485 	stb	r2,-25262(gp)
      g88 = g1;
  801cb0:	d0a76203 	ldbu	r2,-25208(gp)
  801cb4:	d0a79205 	stb	r2,-25016(gp)
      g90 =(PRE_g89);
  801cb8:	d0a78803 	ldbu	r2,-25056(gp)
  801cbc:	d0a77c45 	stb	r2,-25103(gp)
      g90b = g90;
  801cc0:	d0a77c43 	ldbu	r2,-25103(gp)
  801cc4:	d0a78f05 	stb	r2,-25028(gp)
      _cg90 = _Pacemaker1_local_AVI_stop;
  801cc8:	d0a78943 	ldbu	r2,-25051(gp)
  801ccc:	d0a77245 	stb	r2,-25143(gp)
      g89 =((g90b&&(!(_cg90)))||g88||(g92b&&_cg92)||g94);
  801cd0:	d0a78f03 	ldbu	r2,-25028(gp)
  801cd4:	10803fcc 	andi	r2,r2,255
  801cd8:	1080201c 	xori	r2,r2,128
  801cdc:	10bfe004 	addi	r2,r2,-128
  801ce0:	10000526 	beq	r2,zero,801cf8 <tick+0x1564>
  801ce4:	d0a77243 	ldbu	r2,-25143(gp)
  801ce8:	10803fcc 	andi	r2,r2,255
  801cec:	1080201c 	xori	r2,r2,128
  801cf0:	10bfe004 	addi	r2,r2,-128
  801cf4:	10001426 	beq	r2,zero,801d48 <tick+0x15b4>
  801cf8:	d0a79203 	ldbu	r2,-25016(gp)
  801cfc:	10803fcc 	andi	r2,r2,255
  801d00:	1080201c 	xori	r2,r2,128
  801d04:	10bfe004 	addi	r2,r2,-128
  801d08:	10000f1e 	bne	r2,zero,801d48 <tick+0x15b4>
  801d0c:	d0a77943 	ldbu	r2,-25115(gp)
  801d10:	10803fcc 	andi	r2,r2,255
  801d14:	1080201c 	xori	r2,r2,128
  801d18:	10bfe004 	addi	r2,r2,-128
  801d1c:	10000526 	beq	r2,zero,801d34 <tick+0x15a0>
  801d20:	d0a79303 	ldbu	r2,-25012(gp)
  801d24:	10803fcc 	andi	r2,r2,255
  801d28:	1080201c 	xori	r2,r2,128
  801d2c:	10bfe004 	addi	r2,r2,-128
  801d30:	1000051e 	bne	r2,zero,801d48 <tick+0x15b4>
  801d34:	d0a77083 	ldbu	r2,-25150(gp)
  801d38:	10803fcc 	andi	r2,r2,255
  801d3c:	1080201c 	xori	r2,r2,128
  801d40:	10bfe004 	addi	r2,r2,-128
  801d44:	10000226 	beq	r2,zero,801d50 <tick+0x15bc>
  801d48:	00800044 	movi	r2,1
  801d4c:	00000106 	br	801d54 <tick+0x15c0>
  801d50:	0005883a 	mov	r2,zero
  801d54:	d0a78345 	stb	r2,-25075(gp)
      g91 =((g90b&&_cg90)||(g93&&(!(_cg93))));
  801d58:	d0a78f03 	ldbu	r2,-25028(gp)
  801d5c:	10803fcc 	andi	r2,r2,255
  801d60:	1080201c 	xori	r2,r2,128
  801d64:	10bfe004 	addi	r2,r2,-128
  801d68:	10000526 	beq	r2,zero,801d80 <tick+0x15ec>
  801d6c:	d0a77243 	ldbu	r2,-25143(gp)
  801d70:	10803fcc 	andi	r2,r2,255
  801d74:	1080201c 	xori	r2,r2,128
  801d78:	10bfe004 	addi	r2,r2,-128
  801d7c:	10000a1e 	bne	r2,zero,801da8 <tick+0x1614>
  801d80:	d0a77f03 	ldbu	r2,-25092(gp)
  801d84:	10803fcc 	andi	r2,r2,255
  801d88:	1080201c 	xori	r2,r2,128
  801d8c:	10bfe004 	addi	r2,r2,-128
  801d90:	10000726 	beq	r2,zero,801db0 <tick+0x161c>
  801d94:	d0a78a03 	ldbu	r2,-25048(gp)
  801d98:	10803fcc 	andi	r2,r2,255
  801d9c:	1080201c 	xori	r2,r2,128
  801da0:	10bfe004 	addi	r2,r2,-128
  801da4:	1000021e 	bne	r2,zero,801db0 <tick+0x161c>
  801da8:	00800044 	movi	r2,1
  801dac:	00000106 	br	801db4 <tick+0x1620>
  801db0:	0005883a 	mov	r2,zero
  801db4:	d0a75545 	stb	r2,-25259(gp)
      g96 = g1;
  801db8:	d0a76203 	ldbu	r2,-25208(gp)
  801dbc:	d0a784c5 	stb	r2,-25069(gp)
      g98 =(PRE_g97);
  801dc0:	d0a78003 	ldbu	r2,-25088(gp)
  801dc4:	d0a78705 	stb	r2,-25060(gp)
      g98b = g98;
  801dc8:	d0a78703 	ldbu	r2,-25060(gp)
  801dcc:	d0a78205 	stb	r2,-25080(gp)
      _cg98 = _Pacemaker1_local_AVI_stop;
  801dd0:	d0a78943 	ldbu	r2,-25051(gp)
  801dd4:	d0a76385 	stb	r2,-25202(gp)
      g97 =(g96||g101||(g98b&&(!(_cg98))));
  801dd8:	d0a784c3 	ldbu	r2,-25069(gp)
  801ddc:	10803fcc 	andi	r2,r2,255
  801de0:	1080201c 	xori	r2,r2,128
  801de4:	10bfe004 	addi	r2,r2,-128
  801de8:	10000f1e 	bne	r2,zero,801e28 <tick+0x1694>
  801dec:	d0a77643 	ldbu	r2,-25127(gp)
  801df0:	10803fcc 	andi	r2,r2,255
  801df4:	1080201c 	xori	r2,r2,128
  801df8:	10bfe004 	addi	r2,r2,-128
  801dfc:	10000a1e 	bne	r2,zero,801e28 <tick+0x1694>
  801e00:	d0a78203 	ldbu	r2,-25080(gp)
  801e04:	10803fcc 	andi	r2,r2,255
  801e08:	1080201c 	xori	r2,r2,128
  801e0c:	10bfe004 	addi	r2,r2,-128
  801e10:	10000726 	beq	r2,zero,801e30 <tick+0x169c>
  801e14:	d0a76383 	ldbu	r2,-25202(gp)
  801e18:	10803fcc 	andi	r2,r2,255
  801e1c:	1080201c 	xori	r2,r2,128
  801e20:	10bfe004 	addi	r2,r2,-128
  801e24:	1000021e 	bne	r2,zero,801e30 <tick+0x169c>
  801e28:	00800044 	movi	r2,1
  801e2c:	00000106 	br	801e34 <tick+0x16a0>
  801e30:	0005883a 	mov	r2,zero
  801e34:	d0a76405 	stb	r2,-25200(gp)
      g99 =((g98b&&_cg98)||(g100&&(!(_cg100))));
  801e38:	d0a78203 	ldbu	r2,-25080(gp)
  801e3c:	10803fcc 	andi	r2,r2,255
  801e40:	1080201c 	xori	r2,r2,128
  801e44:	10bfe004 	addi	r2,r2,-128
  801e48:	10000526 	beq	r2,zero,801e60 <tick+0x16cc>
  801e4c:	d0a76383 	ldbu	r2,-25202(gp)
  801e50:	10803fcc 	andi	r2,r2,255
  801e54:	1080201c 	xori	r2,r2,128
  801e58:	10bfe004 	addi	r2,r2,-128
  801e5c:	10000a1e 	bne	r2,zero,801e88 <tick+0x16f4>
  801e60:	d0a77303 	ldbu	r2,-25140(gp)
  801e64:	10803fcc 	andi	r2,r2,255
  801e68:	1080201c 	xori	r2,r2,128
  801e6c:	10bfe004 	addi	r2,r2,-128
  801e70:	10000726 	beq	r2,zero,801e90 <tick+0x16fc>
  801e74:	d0a77743 	ldbu	r2,-25123(gp)
  801e78:	10803fcc 	andi	r2,r2,255
  801e7c:	1080201c 	xori	r2,r2,128
  801e80:	10bfe004 	addi	r2,r2,-128
  801e84:	1000021e 	bne	r2,zero,801e90 <tick+0x16fc>
  801e88:	00800044 	movi	r2,1
  801e8c:	00000106 	br	801e94 <tick+0x1700>
  801e90:	0005883a 	mov	r2,zero
  801e94:	d0a77385 	stb	r2,-25138(gp)
      g103 = g1;
  801e98:	d0a76203 	ldbu	r2,-25208(gp)
  801e9c:	d0a75985 	stb	r2,-25242(gp)
      g107 =(PRE_g106);
  801ea0:	d0a77b83 	ldbu	r2,-25106(gp)
  801ea4:	d0a78585 	stb	r2,-25066(gp)
      g107b = g107;
  801ea8:	d0a78583 	ldbu	r2,-25066(gp)
  801eac:	d0a78045 	stb	r2,-25087(gp)
      _cg107 = _Pacemaker1_local_URI_ex;
  801eb0:	d0a78a43 	ldbu	r2,-25047(gp)
  801eb4:	d0a76e85 	stb	r2,-25158(gp)
      g105 =(PRE_g104);
  801eb8:	d0a76983 	ldbu	r2,-25178(gp)
  801ebc:	d0a76b45 	stb	r2,-25171(gp)
      g105b = g105;
  801ec0:	d0a76b43 	ldbu	r2,-25171(gp)
  801ec4:	d0a78d85 	stb	r2,-25034(gp)
      _cg105 = _Pacemaker1_local_AVI_stop;
  801ec8:	d0a78943 	ldbu	r2,-25051(gp)
  801ecc:	d0a79905 	stb	r2,-24988(gp)
      g104 =(g103||(g107b&&_cg107)||(g105b&&(!(_cg105))));
  801ed0:	d0a75983 	ldbu	r2,-25242(gp)
  801ed4:	10803fcc 	andi	r2,r2,255
  801ed8:	1080201c 	xori	r2,r2,128
  801edc:	10bfe004 	addi	r2,r2,-128
  801ee0:	1000141e 	bne	r2,zero,801f34 <tick+0x17a0>
  801ee4:	d0a78043 	ldbu	r2,-25087(gp)
  801ee8:	10803fcc 	andi	r2,r2,255
  801eec:	1080201c 	xori	r2,r2,128
  801ef0:	10bfe004 	addi	r2,r2,-128
  801ef4:	10000526 	beq	r2,zero,801f0c <tick+0x1778>
  801ef8:	d0a76e83 	ldbu	r2,-25158(gp)
  801efc:	10803fcc 	andi	r2,r2,255
  801f00:	1080201c 	xori	r2,r2,128
  801f04:	10bfe004 	addi	r2,r2,-128
  801f08:	10000a1e 	bne	r2,zero,801f34 <tick+0x17a0>
  801f0c:	d0a78d83 	ldbu	r2,-25034(gp)
  801f10:	10803fcc 	andi	r2,r2,255
  801f14:	1080201c 	xori	r2,r2,128
  801f18:	10bfe004 	addi	r2,r2,-128
  801f1c:	10000726 	beq	r2,zero,801f3c <tick+0x17a8>
  801f20:	d0a79903 	ldbu	r2,-24988(gp)
  801f24:	10803fcc 	andi	r2,r2,255
  801f28:	1080201c 	xori	r2,r2,128
  801f2c:	10bfe004 	addi	r2,r2,-128
  801f30:	1000021e 	bne	r2,zero,801f3c <tick+0x17a8>
  801f34:	00800044 	movi	r2,1
  801f38:	00000106 	br	801f40 <tick+0x17ac>
  801f3c:	0005883a 	mov	r2,zero
  801f40:	d0a78605 	stb	r2,-25064(gp)
      g106 =((g105b&&_cg105)||(g107b&&(!(_cg107))));
  801f44:	d0a78d83 	ldbu	r2,-25034(gp)
  801f48:	10803fcc 	andi	r2,r2,255
  801f4c:	1080201c 	xori	r2,r2,128
  801f50:	10bfe004 	addi	r2,r2,-128
  801f54:	10000526 	beq	r2,zero,801f6c <tick+0x17d8>
  801f58:	d0a79903 	ldbu	r2,-24988(gp)
  801f5c:	10803fcc 	andi	r2,r2,255
  801f60:	1080201c 	xori	r2,r2,128
  801f64:	10bfe004 	addi	r2,r2,-128
  801f68:	10000a1e 	bne	r2,zero,801f94 <tick+0x1800>
  801f6c:	d0a78043 	ldbu	r2,-25087(gp)
  801f70:	10803fcc 	andi	r2,r2,255
  801f74:	1080201c 	xori	r2,r2,128
  801f78:	10bfe004 	addi	r2,r2,-128
  801f7c:	10000726 	beq	r2,zero,801f9c <tick+0x1808>
  801f80:	d0a76e83 	ldbu	r2,-25158(gp)
  801f84:	10803fcc 	andi	r2,r2,255
  801f88:	1080201c 	xori	r2,r2,128
  801f8c:	10bfe004 	addi	r2,r2,-128
  801f90:	1000021e 	bne	r2,zero,801f9c <tick+0x1808>
  801f94:	00800044 	movi	r2,1
  801f98:	00000106 	br	801fa0 <tick+0x180c>
  801f9c:	0005883a 	mov	r2,zero
  801fa0:	d0a796c5 	stb	r2,-24997(gp)
      g113 = g1;
  801fa4:	d0a76203 	ldbu	r2,-25208(gp)
  801fa8:	d0a785c5 	stb	r2,-25065(gp)
      g114 =(g113||g115);
  801fac:	d0a785c3 	ldbu	r2,-25065(gp)
  801fb0:	10803fcc 	andi	r2,r2,255
  801fb4:	1080201c 	xori	r2,r2,128
  801fb8:	10bfe004 	addi	r2,r2,-128
  801fbc:	1000051e 	bne	r2,zero,801fd4 <tick+0x1840>
  801fc0:	d0a75d83 	ldbu	r2,-25226(gp)
  801fc4:	10803fcc 	andi	r2,r2,255
  801fc8:	1080201c 	xori	r2,r2,128
  801fcc:	10bfe004 	addi	r2,r2,-128
  801fd0:	10000226 	beq	r2,zero,801fdc <tick+0x1848>
  801fd4:	00800044 	movi	r2,1
  801fd8:	00000106 	br	801fe0 <tick+0x184c>
  801fdc:	0005883a 	mov	r2,zero
  801fe0:	d0a77785 	stb	r2,-25122(gp)
      if(g114){
  801fe4:	d0a77783 	ldbu	r2,-25122(gp)
  801fe8:	10803fcc 	andi	r2,r2,255
  801fec:	1080201c 	xori	r2,r2,128
  801ff0:	10bfe004 	addi	r2,r2,-128
  801ff4:	10000226 	beq	r2,zero,802000 <tick+0x186c>
         _Pacemaker1_local__reg_FilteredVSense21 = _Pacemaker1_local_FilteredVSense;
  801ff8:	d0a77703 	ldbu	r2,-25124(gp)
  801ffc:	d0a76b05 	stb	r2,-25172(gp)
      }
      g114b = g114;
  802000:	d0a77783 	ldbu	r2,-25122(gp)
  802004:	d0a75b85 	stb	r2,-25234(gp)
      if(g114b){
  802008:	d0a75b83 	ldbu	r2,-25234(gp)
  80200c:	10803fcc 	andi	r2,r2,255
  802010:	1080201c 	xori	r2,r2,128
  802014:	10bfe004 	addi	r2,r2,-128
  802018:	10000226 	beq	r2,zero,802024 <tick+0x1890>
         _Pacemaker1_local__reg_AVI_ex21 = _Pacemaker1_local_AVI_ex;
  80201c:	d0a78183 	ldbu	r2,-25082(gp)
  802020:	d0a77045 	stb	r2,-25151(gp)
      }
      g8_e1 =(!((g4||g6)));
  802024:	d0a755c3 	ldbu	r2,-25257(gp)
  802028:	10803fcc 	andi	r2,r2,255
  80202c:	1080201c 	xori	r2,r2,128
  802030:	10bfe004 	addi	r2,r2,-128
  802034:	1000071e 	bne	r2,zero,802054 <tick+0x18c0>
  802038:	d0a789c3 	ldbu	r2,-25049(gp)
  80203c:	10803fcc 	andi	r2,r2,255
  802040:	1080201c 	xori	r2,r2,128
  802044:	10bfe004 	addi	r2,r2,-128
  802048:	1000021e 	bne	r2,zero,802054 <tick+0x18c0>
  80204c:	00800044 	movi	r2,1
  802050:	00000106 	br	802058 <tick+0x18c4>
  802054:	0005883a 	mov	r2,zero
  802058:	d0a76805 	stb	r2,-25184(gp)
      g17_e2 =(!((g11||g14)));
  80205c:	d0a78f43 	ldbu	r2,-25027(gp)
  802060:	10803fcc 	andi	r2,r2,255
  802064:	1080201c 	xori	r2,r2,128
  802068:	10bfe004 	addi	r2,r2,-128
  80206c:	1000071e 	bne	r2,zero,80208c <tick+0x18f8>
  802070:	d0a77503 	ldbu	r2,-25132(gp)
  802074:	10803fcc 	andi	r2,r2,255
  802078:	1080201c 	xori	r2,r2,128
  80207c:	10bfe004 	addi	r2,r2,-128
  802080:	1000021e 	bne	r2,zero,80208c <tick+0x18f8>
  802084:	00800044 	movi	r2,1
  802088:	00000106 	br	802090 <tick+0x18fc>
  80208c:	0005883a 	mov	r2,zero
  802090:	d0a77005 	stb	r2,-25152(gp)
      g25_e3 =(!((g20||g22)));
  802094:	d0a77dc3 	ldbu	r2,-25097(gp)
  802098:	10803fcc 	andi	r2,r2,255
  80209c:	1080201c 	xori	r2,r2,128
  8020a0:	10bfe004 	addi	r2,r2,-128
  8020a4:	1000071e 	bne	r2,zero,8020c4 <tick+0x1930>
  8020a8:	d0a79003 	ldbu	r2,-25024(gp)
  8020ac:	10803fcc 	andi	r2,r2,255
  8020b0:	1080201c 	xori	r2,r2,128
  8020b4:	10bfe004 	addi	r2,r2,-128
  8020b8:	1000021e 	bne	r2,zero,8020c4 <tick+0x1930>
  8020bc:	00800044 	movi	r2,1
  8020c0:	00000106 	br	8020c8 <tick+0x1934>
  8020c4:	0005883a 	mov	r2,zero
  8020c8:	d0a76185 	stb	r2,-25210(gp)
      g39_e4 =(!((g28||g31||g33||g36)));
  8020cc:	d0a79043 	ldbu	r2,-25023(gp)
  8020d0:	10803fcc 	andi	r2,r2,255
  8020d4:	1080201c 	xori	r2,r2,128
  8020d8:	10bfe004 	addi	r2,r2,-128
  8020dc:	1000111e 	bne	r2,zero,802124 <tick+0x1990>
  8020e0:	d0a765c3 	ldbu	r2,-25193(gp)
  8020e4:	10803fcc 	andi	r2,r2,255
  8020e8:	1080201c 	xori	r2,r2,128
  8020ec:	10bfe004 	addi	r2,r2,-128
  8020f0:	10000c1e 	bne	r2,zero,802124 <tick+0x1990>
  8020f4:	d0a778c3 	ldbu	r2,-25117(gp)
  8020f8:	10803fcc 	andi	r2,r2,255
  8020fc:	1080201c 	xori	r2,r2,128
  802100:	10bfe004 	addi	r2,r2,-128
  802104:	1000071e 	bne	r2,zero,802124 <tick+0x1990>
  802108:	d0a782c3 	ldbu	r2,-25077(gp)
  80210c:	10803fcc 	andi	r2,r2,255
  802110:	1080201c 	xori	r2,r2,128
  802114:	10bfe004 	addi	r2,r2,-128
  802118:	1000021e 	bne	r2,zero,802124 <tick+0x1990>
  80211c:	00800044 	movi	r2,1
  802120:	00000106 	br	802128 <tick+0x1994>
  802124:	0005883a 	mov	r2,zero
  802128:	d0a76e45 	stb	r2,-25159(gp)
      g47_e5 =(!((g42||g44)));
  80212c:	d0a75a83 	ldbu	r2,-25238(gp)
  802130:	10803fcc 	andi	r2,r2,255
  802134:	1080201c 	xori	r2,r2,128
  802138:	10bfe004 	addi	r2,r2,-128
  80213c:	1000071e 	bne	r2,zero,80215c <tick+0x19c8>
  802140:	d0a76003 	ldbu	r2,-25216(gp)
  802144:	10803fcc 	andi	r2,r2,255
  802148:	1080201c 	xori	r2,r2,128
  80214c:	10bfe004 	addi	r2,r2,-128
  802150:	1000021e 	bne	r2,zero,80215c <tick+0x19c8>
  802154:	00800044 	movi	r2,1
  802158:	00000106 	br	802160 <tick+0x19cc>
  80215c:	0005883a 	mov	r2,zero
  802160:	d0a783c5 	stb	r2,-25073(gp)
      g63_e6 =(!((g50||g53||g57)));
  802164:	d0a78483 	ldbu	r2,-25070(gp)
  802168:	10803fcc 	andi	r2,r2,255
  80216c:	1080201c 	xori	r2,r2,128
  802170:	10bfe004 	addi	r2,r2,-128
  802174:	10000c1e 	bne	r2,zero,8021a8 <tick+0x1a14>
  802178:	d0a78743 	ldbu	r2,-25059(gp)
  80217c:	10803fcc 	andi	r2,r2,255
  802180:	1080201c 	xori	r2,r2,128
  802184:	10bfe004 	addi	r2,r2,-128
  802188:	1000071e 	bne	r2,zero,8021a8 <tick+0x1a14>
  80218c:	d0a787c3 	ldbu	r2,-25057(gp)
  802190:	10803fcc 	andi	r2,r2,255
  802194:	1080201c 	xori	r2,r2,128
  802198:	10bfe004 	addi	r2,r2,-128
  80219c:	1000021e 	bne	r2,zero,8021a8 <tick+0x1a14>
  8021a0:	00800044 	movi	r2,1
  8021a4:	00000106 	br	8021ac <tick+0x1a18>
  8021a8:	0005883a 	mov	r2,zero
  8021ac:	d0a77585 	stb	r2,-25130(gp)
      g70_e7 =(!((g66||g68)));
  8021b0:	d0a77403 	ldbu	r2,-25136(gp)
  8021b4:	10803fcc 	andi	r2,r2,255
  8021b8:	1080201c 	xori	r2,r2,128
  8021bc:	10bfe004 	addi	r2,r2,-128
  8021c0:	1000071e 	bne	r2,zero,8021e0 <tick+0x1a4c>
  8021c4:	d0a78e83 	ldbu	r2,-25030(gp)
  8021c8:	10803fcc 	andi	r2,r2,255
  8021cc:	1080201c 	xori	r2,r2,128
  8021d0:	10bfe004 	addi	r2,r2,-128
  8021d4:	1000021e 	bne	r2,zero,8021e0 <tick+0x1a4c>
  8021d8:	00800044 	movi	r2,1
  8021dc:	00000106 	br	8021e4 <tick+0x1a50>
  8021e0:	0005883a 	mov	r2,zero
  8021e4:	d0a77185 	stb	r2,-25146(gp)
      g79_e8 =(!((g73||g76)));
  8021e8:	d0a79083 	ldbu	r2,-25022(gp)
  8021ec:	10803fcc 	andi	r2,r2,255
  8021f0:	1080201c 	xori	r2,r2,128
  8021f4:	10bfe004 	addi	r2,r2,-128
  8021f8:	1000071e 	bne	r2,zero,802218 <tick+0x1a84>
  8021fc:	d0a76583 	ldbu	r2,-25194(gp)
  802200:	10803fcc 	andi	r2,r2,255
  802204:	1080201c 	xori	r2,r2,128
  802208:	10bfe004 	addi	r2,r2,-128
  80220c:	1000021e 	bne	r2,zero,802218 <tick+0x1a84>
  802210:	00800044 	movi	r2,1
  802214:	00000106 	br	80221c <tick+0x1a88>
  802218:	0005883a 	mov	r2,zero
  80221c:	d0a78cc5 	stb	r2,-25037(gp)
      g87_e9 =(!((g82||g84)));
  802220:	d0a76303 	ldbu	r2,-25204(gp)
  802224:	10803fcc 	andi	r2,r2,255
  802228:	1080201c 	xori	r2,r2,128
  80222c:	10bfe004 	addi	r2,r2,-128
  802230:	1000071e 	bne	r2,zero,802250 <tick+0x1abc>
  802234:	d0a766c3 	ldbu	r2,-25189(gp)
  802238:	10803fcc 	andi	r2,r2,255
  80223c:	1080201c 	xori	r2,r2,128
  802240:	10bfe004 	addi	r2,r2,-128
  802244:	1000021e 	bne	r2,zero,802250 <tick+0x1abc>
  802248:	00800044 	movi	r2,1
  80224c:	00000106 	br	802254 <tick+0x1ac0>
  802250:	0005883a 	mov	r2,zero
  802254:	d0a75505 	stb	r2,-25260(gp)
      g95_e10 =(!((g90||g92)));
  802258:	d0a77c43 	ldbu	r2,-25103(gp)
  80225c:	10803fcc 	andi	r2,r2,255
  802260:	1080201c 	xori	r2,r2,128
  802264:	10bfe004 	addi	r2,r2,-128
  802268:	1000071e 	bne	r2,zero,802288 <tick+0x1af4>
  80226c:	d0a761c3 	ldbu	r2,-25209(gp)
  802270:	10803fcc 	andi	r2,r2,255
  802274:	1080201c 	xori	r2,r2,128
  802278:	10bfe004 	addi	r2,r2,-128
  80227c:	1000021e 	bne	r2,zero,802288 <tick+0x1af4>
  802280:	00800044 	movi	r2,1
  802284:	00000106 	br	80228c <tick+0x1af8>
  802288:	0005883a 	mov	r2,zero
  80228c:	d0a78f85 	stb	r2,-25026(gp)
      g102_e11 =(!((g98||g100)));
  802290:	d0a78703 	ldbu	r2,-25060(gp)
  802294:	10803fcc 	andi	r2,r2,255
  802298:	1080201c 	xori	r2,r2,128
  80229c:	10bfe004 	addi	r2,r2,-128
  8022a0:	1000071e 	bne	r2,zero,8022c0 <tick+0x1b2c>
  8022a4:	d0a77303 	ldbu	r2,-25140(gp)
  8022a8:	10803fcc 	andi	r2,r2,255
  8022ac:	1080201c 	xori	r2,r2,128
  8022b0:	10bfe004 	addi	r2,r2,-128
  8022b4:	1000021e 	bne	r2,zero,8022c0 <tick+0x1b2c>
  8022b8:	00800044 	movi	r2,1
  8022bc:	00000106 	br	8022c4 <tick+0x1b30>
  8022c0:	0005883a 	mov	r2,zero
  8022c4:	d0a788c5 	stb	r2,-25053(gp)
      g108_e12 =(!((g105||g107)));
  8022c8:	d0a76b43 	ldbu	r2,-25171(gp)
  8022cc:	10803fcc 	andi	r2,r2,255
  8022d0:	1080201c 	xori	r2,r2,128
  8022d4:	10bfe004 	addi	r2,r2,-128
  8022d8:	1000071e 	bne	r2,zero,8022f8 <tick+0x1b64>
  8022dc:	d0a78583 	ldbu	r2,-25066(gp)
  8022e0:	10803fcc 	andi	r2,r2,255
  8022e4:	1080201c 	xori	r2,r2,128
  8022e8:	10bfe004 	addi	r2,r2,-128
  8022ec:	1000021e 	bne	r2,zero,8022f8 <tick+0x1b64>
  8022f0:	00800044 	movi	r2,1
  8022f4:	00000106 	br	8022fc <tick+0x1b68>
  8022f8:	0005883a 	mov	r2,zero
  8022fc:	d0a77605 	stb	r2,-25128(gp)
      g112_e13 =(!(g111));
  802300:	d0a75683 	ldbu	r2,-25254(gp)
  802304:	10803fcc 	andi	r2,r2,255
  802308:	1080201c 	xori	r2,r2,128
  80230c:	10bfe004 	addi	r2,r2,-128
  802310:	1005003a 	cmpeq	r2,r2,zero
  802314:	d0a76c45 	stb	r2,-25167(gp)
      g116_e14 =(!(g115));
  802318:	d0a75d83 	ldbu	r2,-25226(gp)
  80231c:	10803fcc 	andi	r2,r2,255
  802320:	1080201c 	xori	r2,r2,128
  802324:	10bfe004 	addi	r2,r2,-128
  802328:	1005003a 	cmpeq	r2,r2,zero
  80232c:	d0a79885 	stb	r2,-24990(gp)
      g117_fix0 =((g8_e1||g8)&&(g17_e2||g17)&&(g25_e3||g25)&&(g39_e4||g39));
  802330:	d0a76803 	ldbu	r2,-25184(gp)
  802334:	10803fcc 	andi	r2,r2,255
  802338:	1080201c 	xori	r2,r2,128
  80233c:	10bfe004 	addi	r2,r2,-128
  802340:	1000051e 	bne	r2,zero,802358 <tick+0x1bc4>
  802344:	d0a78783 	ldbu	r2,-25058(gp)
  802348:	10803fcc 	andi	r2,r2,255
  80234c:	1080201c 	xori	r2,r2,128
  802350:	10bfe004 	addi	r2,r2,-128
  802354:	10002026 	beq	r2,zero,8023d8 <tick+0x1c44>
  802358:	d0a77003 	ldbu	r2,-25152(gp)
  80235c:	10803fcc 	andi	r2,r2,255
  802360:	1080201c 	xori	r2,r2,128
  802364:	10bfe004 	addi	r2,r2,-128
  802368:	1000051e 	bne	r2,zero,802380 <tick+0x1bec>
  80236c:	d0a76503 	ldbu	r2,-25196(gp)
  802370:	10803fcc 	andi	r2,r2,255
  802374:	1080201c 	xori	r2,r2,128
  802378:	10bfe004 	addi	r2,r2,-128
  80237c:	10001626 	beq	r2,zero,8023d8 <tick+0x1c44>
  802380:	d0a76183 	ldbu	r2,-25210(gp)
  802384:	10803fcc 	andi	r2,r2,255
  802388:	1080201c 	xori	r2,r2,128
  80238c:	10bfe004 	addi	r2,r2,-128
  802390:	1000051e 	bne	r2,zero,8023a8 <tick+0x1c14>
  802394:	d0a78ec3 	ldbu	r2,-25029(gp)
  802398:	10803fcc 	andi	r2,r2,255
  80239c:	1080201c 	xori	r2,r2,128
  8023a0:	10bfe004 	addi	r2,r2,-128
  8023a4:	10000c26 	beq	r2,zero,8023d8 <tick+0x1c44>
  8023a8:	d0a76e43 	ldbu	r2,-25159(gp)
  8023ac:	10803fcc 	andi	r2,r2,255
  8023b0:	1080201c 	xori	r2,r2,128
  8023b4:	10bfe004 	addi	r2,r2,-128
  8023b8:	1000051e 	bne	r2,zero,8023d0 <tick+0x1c3c>
  8023bc:	d0a79483 	ldbu	r2,-25006(gp)
  8023c0:	10803fcc 	andi	r2,r2,255
  8023c4:	1080201c 	xori	r2,r2,128
  8023c8:	10bfe004 	addi	r2,r2,-128
  8023cc:	10000226 	beq	r2,zero,8023d8 <tick+0x1c44>
  8023d0:	00800044 	movi	r2,1
  8023d4:	00000106 	br	8023dc <tick+0x1c48>
  8023d8:	0005883a 	mov	r2,zero
  8023dc:	d0a76905 	stb	r2,-25180(gp)
      g117_fix1 =(g117_fix0&&(g47_e5||g47)&&(g63_e6||g63)&&(g70_e7||g70));
  8023e0:	d0a76903 	ldbu	r2,-25180(gp)
  8023e4:	10803fcc 	andi	r2,r2,255
  8023e8:	1080201c 	xori	r2,r2,128
  8023ec:	10bfe004 	addi	r2,r2,-128
  8023f0:	10002026 	beq	r2,zero,802474 <tick+0x1ce0>
  8023f4:	d0a783c3 	ldbu	r2,-25073(gp)
  8023f8:	10803fcc 	andi	r2,r2,255
  8023fc:	1080201c 	xori	r2,r2,128
  802400:	10bfe004 	addi	r2,r2,-128
  802404:	1000051e 	bne	r2,zero,80241c <tick+0x1c88>
  802408:	d0a75a03 	ldbu	r2,-25240(gp)
  80240c:	10803fcc 	andi	r2,r2,255
  802410:	1080201c 	xori	r2,r2,128
  802414:	10bfe004 	addi	r2,r2,-128
  802418:	10001626 	beq	r2,zero,802474 <tick+0x1ce0>
  80241c:	d0a77583 	ldbu	r2,-25130(gp)
  802420:	10803fcc 	andi	r2,r2,255
  802424:	1080201c 	xori	r2,r2,128
  802428:	10bfe004 	addi	r2,r2,-128
  80242c:	1000051e 	bne	r2,zero,802444 <tick+0x1cb0>
  802430:	d0a77d83 	ldbu	r2,-25098(gp)
  802434:	10803fcc 	andi	r2,r2,255
  802438:	1080201c 	xori	r2,r2,128
  80243c:	10bfe004 	addi	r2,r2,-128
  802440:	10000c26 	beq	r2,zero,802474 <tick+0x1ce0>
  802444:	d0a77183 	ldbu	r2,-25146(gp)
  802448:	10803fcc 	andi	r2,r2,255
  80244c:	1080201c 	xori	r2,r2,128
  802450:	10bfe004 	addi	r2,r2,-128
  802454:	1000051e 	bne	r2,zero,80246c <tick+0x1cd8>
  802458:	d0a78843 	ldbu	r2,-25055(gp)
  80245c:	10803fcc 	andi	r2,r2,255
  802460:	1080201c 	xori	r2,r2,128
  802464:	10bfe004 	addi	r2,r2,-128
  802468:	10000226 	beq	r2,zero,802474 <tick+0x1ce0>
  80246c:	00800044 	movi	r2,1
  802470:	00000106 	br	802478 <tick+0x1ce4>
  802474:	0005883a 	mov	r2,zero
  802478:	d0a77545 	stb	r2,-25131(gp)
      g117_fix2 =(g117_fix1&&(g79_e8||g79)&&(g87_e9||g87)&&(g95_e10||g95));
  80247c:	d0a77543 	ldbu	r2,-25131(gp)
  802480:	10803fcc 	andi	r2,r2,255
  802484:	1080201c 	xori	r2,r2,128
  802488:	10bfe004 	addi	r2,r2,-128
  80248c:	10002026 	beq	r2,zero,802510 <tick+0x1d7c>
  802490:	d0a78cc3 	ldbu	r2,-25037(gp)
  802494:	10803fcc 	andi	r2,r2,255
  802498:	1080201c 	xori	r2,r2,128
  80249c:	10bfe004 	addi	r2,r2,-128
  8024a0:	1000051e 	bne	r2,zero,8024b8 <tick+0x1d24>
  8024a4:	d0a76f43 	ldbu	r2,-25155(gp)
  8024a8:	10803fcc 	andi	r2,r2,255
  8024ac:	1080201c 	xori	r2,r2,128
  8024b0:	10bfe004 	addi	r2,r2,-128
  8024b4:	10001626 	beq	r2,zero,802510 <tick+0x1d7c>
  8024b8:	d0a75503 	ldbu	r2,-25260(gp)
  8024bc:	10803fcc 	andi	r2,r2,255
  8024c0:	1080201c 	xori	r2,r2,128
  8024c4:	10bfe004 	addi	r2,r2,-128
  8024c8:	1000051e 	bne	r2,zero,8024e0 <tick+0x1d4c>
  8024cc:	d0a75fc3 	ldbu	r2,-25217(gp)
  8024d0:	10803fcc 	andi	r2,r2,255
  8024d4:	1080201c 	xori	r2,r2,128
  8024d8:	10bfe004 	addi	r2,r2,-128
  8024dc:	10000c26 	beq	r2,zero,802510 <tick+0x1d7c>
  8024e0:	d0a78f83 	ldbu	r2,-25026(gp)
  8024e4:	10803fcc 	andi	r2,r2,255
  8024e8:	1080201c 	xori	r2,r2,128
  8024ec:	10bfe004 	addi	r2,r2,-128
  8024f0:	1000051e 	bne	r2,zero,802508 <tick+0x1d74>
  8024f4:	d0a78443 	ldbu	r2,-25071(gp)
  8024f8:	10803fcc 	andi	r2,r2,255
  8024fc:	1080201c 	xori	r2,r2,128
  802500:	10bfe004 	addi	r2,r2,-128
  802504:	10000226 	beq	r2,zero,802510 <tick+0x1d7c>
  802508:	00800044 	movi	r2,1
  80250c:	00000106 	br	802514 <tick+0x1d80>
  802510:	0005883a 	mov	r2,zero
  802514:	d0a79505 	stb	r2,-25004(gp)
      g117_fix3 =(g8||g17||g25||g39);
  802518:	d0a78783 	ldbu	r2,-25058(gp)
  80251c:	10803fcc 	andi	r2,r2,255
  802520:	1080201c 	xori	r2,r2,128
  802524:	10bfe004 	addi	r2,r2,-128
  802528:	10000f1e 	bne	r2,zero,802568 <tick+0x1dd4>
  80252c:	d0a76503 	ldbu	r2,-25196(gp)
  802530:	10803fcc 	andi	r2,r2,255
  802534:	1080201c 	xori	r2,r2,128
  802538:	10bfe004 	addi	r2,r2,-128
  80253c:	10000a1e 	bne	r2,zero,802568 <tick+0x1dd4>
  802540:	d0a78ec3 	ldbu	r2,-25029(gp)
  802544:	10803fcc 	andi	r2,r2,255
  802548:	1080201c 	xori	r2,r2,128
  80254c:	10bfe004 	addi	r2,r2,-128
  802550:	1000051e 	bne	r2,zero,802568 <tick+0x1dd4>
  802554:	d0a79483 	ldbu	r2,-25006(gp)
  802558:	10803fcc 	andi	r2,r2,255
  80255c:	1080201c 	xori	r2,r2,128
  802560:	10bfe004 	addi	r2,r2,-128
  802564:	10000226 	beq	r2,zero,802570 <tick+0x1ddc>
  802568:	00800044 	movi	r2,1
  80256c:	00000106 	br	802574 <tick+0x1de0>
  802570:	0005883a 	mov	r2,zero
  802574:	d0a77485 	stb	r2,-25134(gp)
      g117_fix4 =(g117_fix3||g47||g63||g70);
  802578:	d0a77483 	ldbu	r2,-25134(gp)
  80257c:	10803fcc 	andi	r2,r2,255
  802580:	1080201c 	xori	r2,r2,128
  802584:	10bfe004 	addi	r2,r2,-128
  802588:	10000f1e 	bne	r2,zero,8025c8 <tick+0x1e34>
  80258c:	d0a75a03 	ldbu	r2,-25240(gp)
  802590:	10803fcc 	andi	r2,r2,255
  802594:	1080201c 	xori	r2,r2,128
  802598:	10bfe004 	addi	r2,r2,-128
  80259c:	10000a1e 	bne	r2,zero,8025c8 <tick+0x1e34>
  8025a0:	d0a77d83 	ldbu	r2,-25098(gp)
  8025a4:	10803fcc 	andi	r2,r2,255
  8025a8:	1080201c 	xori	r2,r2,128
  8025ac:	10bfe004 	addi	r2,r2,-128
  8025b0:	1000051e 	bne	r2,zero,8025c8 <tick+0x1e34>
  8025b4:	d0a78843 	ldbu	r2,-25055(gp)
  8025b8:	10803fcc 	andi	r2,r2,255
  8025bc:	1080201c 	xori	r2,r2,128
  8025c0:	10bfe004 	addi	r2,r2,-128
  8025c4:	10000226 	beq	r2,zero,8025d0 <tick+0x1e3c>
  8025c8:	00800044 	movi	r2,1
  8025cc:	00000106 	br	8025d4 <tick+0x1e40>
  8025d0:	0005883a 	mov	r2,zero
  8025d4:	d0a76685 	stb	r2,-25190(gp)
      g117_e1_fix_fix =(g84||g92||g100||g107||g115||g14||g31||g53||g76||g33||g57);
  8025d8:	d0a766c3 	ldbu	r2,-25189(gp)
  8025dc:	10803fcc 	andi	r2,r2,255
  8025e0:	1080201c 	xori	r2,r2,128
  8025e4:	10bfe004 	addi	r2,r2,-128
  8025e8:	1000321e 	bne	r2,zero,8026b4 <tick+0x1f20>
  8025ec:	d0a761c3 	ldbu	r2,-25209(gp)
  8025f0:	10803fcc 	andi	r2,r2,255
  8025f4:	1080201c 	xori	r2,r2,128
  8025f8:	10bfe004 	addi	r2,r2,-128
  8025fc:	10002d1e 	bne	r2,zero,8026b4 <tick+0x1f20>
  802600:	d0a77303 	ldbu	r2,-25140(gp)
  802604:	10803fcc 	andi	r2,r2,255
  802608:	1080201c 	xori	r2,r2,128
  80260c:	10bfe004 	addi	r2,r2,-128
  802610:	1000281e 	bne	r2,zero,8026b4 <tick+0x1f20>
  802614:	d0a78583 	ldbu	r2,-25066(gp)
  802618:	10803fcc 	andi	r2,r2,255
  80261c:	1080201c 	xori	r2,r2,128
  802620:	10bfe004 	addi	r2,r2,-128
  802624:	1000231e 	bne	r2,zero,8026b4 <tick+0x1f20>
  802628:	d0a75d83 	ldbu	r2,-25226(gp)
  80262c:	10803fcc 	andi	r2,r2,255
  802630:	1080201c 	xori	r2,r2,128
  802634:	10bfe004 	addi	r2,r2,-128
  802638:	10001e1e 	bne	r2,zero,8026b4 <tick+0x1f20>
  80263c:	d0a77503 	ldbu	r2,-25132(gp)
  802640:	10803fcc 	andi	r2,r2,255
  802644:	1080201c 	xori	r2,r2,128
  802648:	10bfe004 	addi	r2,r2,-128
  80264c:	1000191e 	bne	r2,zero,8026b4 <tick+0x1f20>
  802650:	d0a765c3 	ldbu	r2,-25193(gp)
  802654:	10803fcc 	andi	r2,r2,255
  802658:	1080201c 	xori	r2,r2,128
  80265c:	10bfe004 	addi	r2,r2,-128
  802660:	1000141e 	bne	r2,zero,8026b4 <tick+0x1f20>
  802664:	d0a78743 	ldbu	r2,-25059(gp)
  802668:	10803fcc 	andi	r2,r2,255
  80266c:	1080201c 	xori	r2,r2,128
  802670:	10bfe004 	addi	r2,r2,-128
  802674:	10000f1e 	bne	r2,zero,8026b4 <tick+0x1f20>
  802678:	d0a76583 	ldbu	r2,-25194(gp)
  80267c:	10803fcc 	andi	r2,r2,255
  802680:	1080201c 	xori	r2,r2,128
  802684:	10bfe004 	addi	r2,r2,-128
  802688:	10000a1e 	bne	r2,zero,8026b4 <tick+0x1f20>
  80268c:	d0a778c3 	ldbu	r2,-25117(gp)
  802690:	10803fcc 	andi	r2,r2,255
  802694:	1080201c 	xori	r2,r2,128
  802698:	10bfe004 	addi	r2,r2,-128
  80269c:	1000051e 	bne	r2,zero,8026b4 <tick+0x1f20>
  8026a0:	d0a787c3 	ldbu	r2,-25057(gp)
  8026a4:	10803fcc 	andi	r2,r2,255
  8026a8:	1080201c 	xori	r2,r2,128
  8026ac:	10bfe004 	addi	r2,r2,-128
  8026b0:	10000226 	beq	r2,zero,8026bc <tick+0x1f28>
  8026b4:	00800044 	movi	r2,1
  8026b8:	00000106 	br	8026c0 <tick+0x1f2c>
  8026bc:	0005883a 	mov	r2,zero
  8026c0:	d0a76545 	stb	r2,-25195(gp)
      g117_e1_fix =(g82||g90||g98||g105||g6||g22||g44||g68||g36||g117_e1_fix_fix);
  8026c4:	d0a76303 	ldbu	r2,-25204(gp)
  8026c8:	10803fcc 	andi	r2,r2,255
  8026cc:	1080201c 	xori	r2,r2,128
  8026d0:	10bfe004 	addi	r2,r2,-128
  8026d4:	10002d1e 	bne	r2,zero,80278c <tick+0x1ff8>
  8026d8:	d0a77c43 	ldbu	r2,-25103(gp)
  8026dc:	10803fcc 	andi	r2,r2,255
  8026e0:	1080201c 	xori	r2,r2,128
  8026e4:	10bfe004 	addi	r2,r2,-128
  8026e8:	1000281e 	bne	r2,zero,80278c <tick+0x1ff8>
  8026ec:	d0a78703 	ldbu	r2,-25060(gp)
  8026f0:	10803fcc 	andi	r2,r2,255
  8026f4:	1080201c 	xori	r2,r2,128
  8026f8:	10bfe004 	addi	r2,r2,-128
  8026fc:	1000231e 	bne	r2,zero,80278c <tick+0x1ff8>
  802700:	d0a76b43 	ldbu	r2,-25171(gp)
  802704:	10803fcc 	andi	r2,r2,255
  802708:	1080201c 	xori	r2,r2,128
  80270c:	10bfe004 	addi	r2,r2,-128
  802710:	10001e1e 	bne	r2,zero,80278c <tick+0x1ff8>
  802714:	d0a789c3 	ldbu	r2,-25049(gp)
  802718:	10803fcc 	andi	r2,r2,255
  80271c:	1080201c 	xori	r2,r2,128
  802720:	10bfe004 	addi	r2,r2,-128
  802724:	1000191e 	bne	r2,zero,80278c <tick+0x1ff8>
  802728:	d0a79003 	ldbu	r2,-25024(gp)
  80272c:	10803fcc 	andi	r2,r2,255
  802730:	1080201c 	xori	r2,r2,128
  802734:	10bfe004 	addi	r2,r2,-128
  802738:	1000141e 	bne	r2,zero,80278c <tick+0x1ff8>
  80273c:	d0a76003 	ldbu	r2,-25216(gp)
  802740:	10803fcc 	andi	r2,r2,255
  802744:	1080201c 	xori	r2,r2,128
  802748:	10bfe004 	addi	r2,r2,-128
  80274c:	10000f1e 	bne	r2,zero,80278c <tick+0x1ff8>
  802750:	d0a78e83 	ldbu	r2,-25030(gp)
  802754:	10803fcc 	andi	r2,r2,255
  802758:	1080201c 	xori	r2,r2,128
  80275c:	10bfe004 	addi	r2,r2,-128
  802760:	10000a1e 	bne	r2,zero,80278c <tick+0x1ff8>
  802764:	d0a782c3 	ldbu	r2,-25077(gp)
  802768:	10803fcc 	andi	r2,r2,255
  80276c:	1080201c 	xori	r2,r2,128
  802770:	10bfe004 	addi	r2,r2,-128
  802774:	1000051e 	bne	r2,zero,80278c <tick+0x1ff8>
  802778:	d0a76543 	ldbu	r2,-25195(gp)
  80277c:	10803fcc 	andi	r2,r2,255
  802780:	1080201c 	xori	r2,r2,128
  802784:	10bfe004 	addi	r2,r2,-128
  802788:	10000226 	beq	r2,zero,802794 <tick+0x2000>
  80278c:	00800044 	movi	r2,1
  802790:	00000106 	br	802798 <tick+0x2004>
  802794:	0005883a 	mov	r2,zero
  802798:	d0a77a85 	stb	r2,-25110(gp)
      g117_e1 =(!((g4||g11||g20||g28||g42||g50||g66||g73||g111||g117_e1_fix)));
  80279c:	d0a755c3 	ldbu	r2,-25257(gp)
  8027a0:	10803fcc 	andi	r2,r2,255
  8027a4:	1080201c 	xori	r2,r2,128
  8027a8:	10bfe004 	addi	r2,r2,-128
  8027ac:	10002f1e 	bne	r2,zero,80286c <tick+0x20d8>
  8027b0:	d0a78f43 	ldbu	r2,-25027(gp)
  8027b4:	10803fcc 	andi	r2,r2,255
  8027b8:	1080201c 	xori	r2,r2,128
  8027bc:	10bfe004 	addi	r2,r2,-128
  8027c0:	10002a1e 	bne	r2,zero,80286c <tick+0x20d8>
  8027c4:	d0a77dc3 	ldbu	r2,-25097(gp)
  8027c8:	10803fcc 	andi	r2,r2,255
  8027cc:	1080201c 	xori	r2,r2,128
  8027d0:	10bfe004 	addi	r2,r2,-128
  8027d4:	1000251e 	bne	r2,zero,80286c <tick+0x20d8>
  8027d8:	d0a79043 	ldbu	r2,-25023(gp)
  8027dc:	10803fcc 	andi	r2,r2,255
  8027e0:	1080201c 	xori	r2,r2,128
  8027e4:	10bfe004 	addi	r2,r2,-128
  8027e8:	1000201e 	bne	r2,zero,80286c <tick+0x20d8>
  8027ec:	d0a75a83 	ldbu	r2,-25238(gp)
  8027f0:	10803fcc 	andi	r2,r2,255
  8027f4:	1080201c 	xori	r2,r2,128
  8027f8:	10bfe004 	addi	r2,r2,-128
  8027fc:	10001b1e 	bne	r2,zero,80286c <tick+0x20d8>
  802800:	d0a78483 	ldbu	r2,-25070(gp)
  802804:	10803fcc 	andi	r2,r2,255
  802808:	1080201c 	xori	r2,r2,128
  80280c:	10bfe004 	addi	r2,r2,-128
  802810:	1000161e 	bne	r2,zero,80286c <tick+0x20d8>
  802814:	d0a77403 	ldbu	r2,-25136(gp)
  802818:	10803fcc 	andi	r2,r2,255
  80281c:	1080201c 	xori	r2,r2,128
  802820:	10bfe004 	addi	r2,r2,-128
  802824:	1000111e 	bne	r2,zero,80286c <tick+0x20d8>
  802828:	d0a79083 	ldbu	r2,-25022(gp)
  80282c:	10803fcc 	andi	r2,r2,255
  802830:	1080201c 	xori	r2,r2,128
  802834:	10bfe004 	addi	r2,r2,-128
  802838:	10000c1e 	bne	r2,zero,80286c <tick+0x20d8>
  80283c:	d0a75683 	ldbu	r2,-25254(gp)
  802840:	10803fcc 	andi	r2,r2,255
  802844:	1080201c 	xori	r2,r2,128
  802848:	10bfe004 	addi	r2,r2,-128
  80284c:	1000071e 	bne	r2,zero,80286c <tick+0x20d8>
  802850:	d0a77a83 	ldbu	r2,-25110(gp)
  802854:	10803fcc 	andi	r2,r2,255
  802858:	1080201c 	xori	r2,r2,128
  80285c:	10bfe004 	addi	r2,r2,-128
  802860:	1000021e 	bne	r2,zero,80286c <tick+0x20d8>
  802864:	00800044 	movi	r2,1
  802868:	00000106 	br	802870 <tick+0x20dc>
  80286c:	0005883a 	mov	r2,zero
  802870:	d0a790c5 	stb	r2,-25021(gp)
      g121_e2 =(!(g120));
  802874:	d0a794c3 	ldbu	r2,-25005(gp)
  802878:	10803fcc 	andi	r2,r2,255
  80287c:	1080201c 	xori	r2,r2,128
  802880:	10bfe004 	addi	r2,r2,-128
  802884:	1005003a 	cmpeq	r2,r2,zero
  802888:	d0a767c5 	stb	r2,-25185(gp)
   }
   PRE_g3 = g3;
  80288c:	d0a75883 	ldbu	r2,-25246(gp)
  802890:	d0a75d05 	stb	r2,-25228(gp)
   PRE_g5 = g5;
  802894:	d0a76fc3 	ldbu	r2,-25153(gp)
  802898:	d0a79385 	stb	r2,-25010(gp)
   PRE_g10 = g10;
  80289c:	d0a79743 	ldbu	r2,-24995(gp)
  8028a0:	d0a769c5 	stb	r2,-25177(gp)
   PRE_g13 = g13;
  8028a4:	d0a78683 	ldbu	r2,-25062(gp)
  8028a8:	d0a75e85 	stb	r2,-25222(gp)
   PRE_g19 = g19;
  8028ac:	d0a75643 	ldbu	r2,-25255(gp)
  8028b0:	d0a77e85 	stb	r2,-25094(gp)
   PRE_g21 = g21;
  8028b4:	d0a76e03 	ldbu	r2,-25160(gp)
  8028b8:	d0a78d05 	stb	r2,-25036(gp)
   PRE_g27 = g27;
  8028bc:	d0a75743 	ldbu	r2,-25251(gp)
  8028c0:	d0a759c5 	stb	r2,-25241(gp)
   PRE_g30 = g30;
  8028c4:	d0a78c83 	ldbu	r2,-25038(gp)
  8028c8:	d0a793c5 	stb	r2,-25009(gp)
   PRE_g32 = g32;
  8028cc:	d0a79143 	ldbu	r2,-25019(gp)
  8028d0:	d0a75f45 	stb	r2,-25219(gp)
   PRE_g35 = g35;
  8028d4:	d0a77bc3 	ldbu	r2,-25105(gp)
  8028d8:	d0a76a45 	stb	r2,-25175(gp)
   PRE_g41 = g41;
  8028dc:	d0a76703 	ldbu	r2,-25188(gp)
  8028e0:	d0a786c5 	stb	r2,-25061(gp)
   PRE_g43 = g43;
  8028e4:	d0a780c3 	ldbu	r2,-25085(gp)
  8028e8:	d0a78105 	stb	r2,-25084(gp)
   PRE_g49 = g49;
  8028ec:	d0a77103 	ldbu	r2,-25148(gp)
  8028f0:	d0a76785 	stb	r2,-25186(gp)
   PRE_g52 = g52;
  8028f4:	d0a76443 	ldbu	r2,-25199(gp)
  8028f8:	d0a77805 	stb	r2,-25120(gp)
   PRE_g56 = g56;
  8028fc:	d0a777c3 	ldbu	r2,-25121(gp)
  802900:	d0a75e45 	stb	r2,-25223(gp)
   PRE_g65 = g65;
  802904:	d0a78fc3 	ldbu	r2,-25025(gp)
  802908:	d0a76105 	stb	r2,-25212(gp)
   PRE_g67 = g67;
  80290c:	d0a795c3 	ldbu	r2,-25001(gp)
  802910:	d0a77a45 	stb	r2,-25111(gp)
   PRE_g72 = g72;
  802914:	d0a78ac3 	ldbu	r2,-25045(gp)
  802918:	d0a75ec5 	stb	r2,-25221(gp)
   PRE_g75 = g75;
  80291c:	d0a78c43 	ldbu	r2,-25039(gp)
  802920:	d0a75f05 	stb	r2,-25220(gp)
   PRE_g81 = g81;
  802924:	d0a78b03 	ldbu	r2,-25044(gp)
  802928:	d0a768c5 	stb	r2,-25181(gp)
   PRE_g83 = g83;
  80292c:	d0a75483 	ldbu	r2,-25262(gp)
  802930:	d0a77b45 	stb	r2,-25107(gp)
   PRE_g89 = g89;
  802934:	d0a78343 	ldbu	r2,-25075(gp)
  802938:	d0a78805 	stb	r2,-25056(gp)
   PRE_g91 = g91;
  80293c:	d0a75543 	ldbu	r2,-25259(gp)
  802940:	d0a77d45 	stb	r2,-25099(gp)
   PRE_g97 = g97;
  802944:	d0a76403 	ldbu	r2,-25200(gp)
  802948:	d0a78005 	stb	r2,-25088(gp)
   PRE_g99 = g99;
  80294c:	d0a77383 	ldbu	r2,-25138(gp)
  802950:	d0a78bc5 	stb	r2,-25041(gp)
   PRE_g104 = g104;
  802954:	d0a78603 	ldbu	r2,-25064(gp)
  802958:	d0a76985 	stb	r2,-25178(gp)
   PRE_g106 = g106;
  80295c:	d0a796c3 	ldbu	r2,-24997(gp)
  802960:	d0a77b85 	stb	r2,-25106(gp)
   PRE_g110 = g110;
  802964:	d0a770c3 	ldbu	r2,-25149(gp)
  802968:	d0a78b45 	stb	r2,-25043(gp)
   PRE_g114 = g114;
  80296c:	d0a77783 	ldbu	r2,-25122(gp)
  802970:	d0a75ac5 	stb	r2,-25237(gp)
   PRE_g119 = g119;
  802974:	d0a77f83 	ldbu	r2,-25090(gp)
  802978:	d0a77905 	stb	r2,-25116(gp)
   _PRE_GO = _GO;
  80297c:	d0a77c83 	ldbu	r2,-25102(gp)
  802980:	10803fcc 	andi	r2,r2,255
  802984:	1080201c 	xori	r2,r2,128
  802988:	10bfe004 	addi	r2,r2,-128
  80298c:	d0a75c15 	stw	r2,-25232(gp)
   return;
  802990:	0001883a 	nop
}
  802994:	e037883a 	mov	sp,fp
  802998:	df000017 	ldw	fp,0(sp)
  80299c:	dec00104 	addi	sp,sp,4
  8029a0:	f800283a 	ret

008029a4 <_printf_r>:
  8029a4:	defffd04 	addi	sp,sp,-12
  8029a8:	2805883a 	mov	r2,r5
  8029ac:	dfc00015 	stw	ra,0(sp)
  8029b0:	d9800115 	stw	r6,4(sp)
  8029b4:	d9c00215 	stw	r7,8(sp)
  8029b8:	21400217 	ldw	r5,8(r4)
  8029bc:	d9c00104 	addi	r7,sp,4
  8029c0:	100d883a 	mov	r6,r2
  8029c4:	0802a100 	call	802a10 <___vfprintf_internal_r>
  8029c8:	dfc00017 	ldw	ra,0(sp)
  8029cc:	dec00304 	addi	sp,sp,12
  8029d0:	f800283a 	ret

008029d4 <printf>:
  8029d4:	defffc04 	addi	sp,sp,-16
  8029d8:	dfc00015 	stw	ra,0(sp)
  8029dc:	d9400115 	stw	r5,4(sp)
  8029e0:	d9800215 	stw	r6,8(sp)
  8029e4:	d9c00315 	stw	r7,12(sp)
  8029e8:	00802074 	movhi	r2,129
  8029ec:	10956904 	addi	r2,r2,21924
  8029f0:	10800017 	ldw	r2,0(r2)
  8029f4:	200b883a 	mov	r5,r4
  8029f8:	d9800104 	addi	r6,sp,4
  8029fc:	11000217 	ldw	r4,8(r2)
  802a00:	0804c080 	call	804c08 <__vfprintf_internal>
  802a04:	dfc00017 	ldw	ra,0(sp)
  802a08:	dec00404 	addi	sp,sp,16
  802a0c:	f800283a 	ret

00802a10 <___vfprintf_internal_r>:
  802a10:	deffb804 	addi	sp,sp,-288
  802a14:	dfc04715 	stw	ra,284(sp)
  802a18:	ddc04515 	stw	r23,276(sp)
  802a1c:	dd404315 	stw	r21,268(sp)
  802a20:	d9002c15 	stw	r4,176(sp)
  802a24:	282f883a 	mov	r23,r5
  802a28:	302b883a 	mov	r21,r6
  802a2c:	d9c02d15 	stw	r7,180(sp)
  802a30:	df004615 	stw	fp,280(sp)
  802a34:	dd804415 	stw	r22,272(sp)
  802a38:	dd004215 	stw	r20,264(sp)
  802a3c:	dcc04115 	stw	r19,260(sp)
  802a40:	dc804015 	stw	r18,256(sp)
  802a44:	dc403f15 	stw	r17,252(sp)
  802a48:	dc003e15 	stw	r16,248(sp)
  802a4c:	080736c0 	call	80736c <_localeconv_r>
  802a50:	10800017 	ldw	r2,0(r2)
  802a54:	1009883a 	mov	r4,r2
  802a58:	d8803415 	stw	r2,208(sp)
  802a5c:	08093940 	call	809394 <strlen>
  802a60:	d8803715 	stw	r2,220(sp)
  802a64:	d8802c17 	ldw	r2,176(sp)
  802a68:	10000226 	beq	r2,zero,802a74 <___vfprintf_internal_r+0x64>
  802a6c:	10800e17 	ldw	r2,56(r2)
  802a70:	1000f926 	beq	r2,zero,802e58 <___vfprintf_internal_r+0x448>
  802a74:	b880030b 	ldhu	r2,12(r23)
  802a78:	10c8000c 	andi	r3,r2,8192
  802a7c:	1800061e 	bne	r3,zero,802a98 <___vfprintf_internal_r+0x88>
  802a80:	b9001917 	ldw	r4,100(r23)
  802a84:	00f7ffc4 	movi	r3,-8193
  802a88:	10880014 	ori	r2,r2,8192
  802a8c:	20c6703a 	and	r3,r4,r3
  802a90:	b880030d 	sth	r2,12(r23)
  802a94:	b8c01915 	stw	r3,100(r23)
  802a98:	10c0020c 	andi	r3,r2,8
  802a9c:	1800c126 	beq	r3,zero,802da4 <___vfprintf_internal_r+0x394>
  802aa0:	b8c00417 	ldw	r3,16(r23)
  802aa4:	1800bf26 	beq	r3,zero,802da4 <___vfprintf_internal_r+0x394>
  802aa8:	1080068c 	andi	r2,r2,26
  802aac:	00c00284 	movi	r3,10
  802ab0:	10c0c426 	beq	r2,r3,802dc4 <___vfprintf_internal_r+0x3b4>
  802ab4:	d8c00404 	addi	r3,sp,16
  802ab8:	05002074 	movhi	r20,129
  802abc:	d9001e04 	addi	r4,sp,120
  802ac0:	a50cf184 	addi	r20,r20,13254
  802ac4:	d8c01e15 	stw	r3,120(sp)
  802ac8:	d8002015 	stw	zero,128(sp)
  802acc:	d8001f15 	stw	zero,124(sp)
  802ad0:	d8003315 	stw	zero,204(sp)
  802ad4:	d8003615 	stw	zero,216(sp)
  802ad8:	d8003815 	stw	zero,224(sp)
  802adc:	1811883a 	mov	r8,r3
  802ae0:	d8003915 	stw	zero,228(sp)
  802ae4:	d8003a15 	stw	zero,232(sp)
  802ae8:	d8002f15 	stw	zero,188(sp)
  802aec:	d9002815 	stw	r4,160(sp)
  802af0:	a8800007 	ldb	r2,0(r21)
  802af4:	10027b26 	beq	r2,zero,8034e4 <___vfprintf_internal_r+0xad4>
  802af8:	00c00944 	movi	r3,37
  802afc:	a821883a 	mov	r16,r21
  802b00:	10c0021e 	bne	r2,r3,802b0c <___vfprintf_internal_r+0xfc>
  802b04:	00001406 	br	802b58 <___vfprintf_internal_r+0x148>
  802b08:	10c00326 	beq	r2,r3,802b18 <___vfprintf_internal_r+0x108>
  802b0c:	84000044 	addi	r16,r16,1
  802b10:	80800007 	ldb	r2,0(r16)
  802b14:	103ffc1e 	bne	r2,zero,802b08 <__alt_mem_onchip_mem+0xff782b08>
  802b18:	8563c83a 	sub	r17,r16,r21
  802b1c:	88000e26 	beq	r17,zero,802b58 <___vfprintf_internal_r+0x148>
  802b20:	d8c02017 	ldw	r3,128(sp)
  802b24:	d8801f17 	ldw	r2,124(sp)
  802b28:	45400015 	stw	r21,0(r8)
  802b2c:	1c47883a 	add	r3,r3,r17
  802b30:	10800044 	addi	r2,r2,1
  802b34:	d8c02015 	stw	r3,128(sp)
  802b38:	44400115 	stw	r17,4(r8)
  802b3c:	d8801f15 	stw	r2,124(sp)
  802b40:	00c001c4 	movi	r3,7
  802b44:	1880a716 	blt	r3,r2,802de4 <___vfprintf_internal_r+0x3d4>
  802b48:	42000204 	addi	r8,r8,8
  802b4c:	d9402f17 	ldw	r5,188(sp)
  802b50:	2c4b883a 	add	r5,r5,r17
  802b54:	d9402f15 	stw	r5,188(sp)
  802b58:	80800007 	ldb	r2,0(r16)
  802b5c:	1000a826 	beq	r2,zero,802e00 <___vfprintf_internal_r+0x3f0>
  802b60:	84400047 	ldb	r17,1(r16)
  802b64:	00bfffc4 	movi	r2,-1
  802b68:	85400044 	addi	r21,r16,1
  802b6c:	d8002785 	stb	zero,158(sp)
  802b70:	0007883a 	mov	r3,zero
  802b74:	000f883a 	mov	r7,zero
  802b78:	d8802915 	stw	r2,164(sp)
  802b7c:	d8003115 	stw	zero,196(sp)
  802b80:	0025883a 	mov	r18,zero
  802b84:	01401604 	movi	r5,88
  802b88:	01800244 	movi	r6,9
  802b8c:	02800a84 	movi	r10,42
  802b90:	02401b04 	movi	r9,108
  802b94:	ad400044 	addi	r21,r21,1
  802b98:	88bff804 	addi	r2,r17,-32
  802b9c:	28830436 	bltu	r5,r2,8037b0 <___vfprintf_internal_r+0xda0>
  802ba0:	100490ba 	slli	r2,r2,2
  802ba4:	01002034 	movhi	r4,128
  802ba8:	210aee04 	addi	r4,r4,11192
  802bac:	1105883a 	add	r2,r2,r4
  802bb0:	10800017 	ldw	r2,0(r2)
  802bb4:	1000683a 	jmp	r2
  802bb8:	008036d0 	cmplti	r2,zero,219
  802bbc:	008037b0 	cmpltui	r2,zero,222
  802bc0:	008037b0 	cmpltui	r2,zero,222
  802bc4:	008036f0 	cmpltui	r2,zero,219
  802bc8:	008037b0 	cmpltui	r2,zero,222
  802bcc:	008037b0 	cmpltui	r2,zero,222
  802bd0:	008037b0 	cmpltui	r2,zero,222
  802bd4:	008037b0 	cmpltui	r2,zero,222
  802bd8:	008037b0 	cmpltui	r2,zero,222
  802bdc:	008037b0 	cmpltui	r2,zero,222
  802be0:	00802e64 	muli	r2,zero,185
  802be4:	0080360c 	andi	r2,zero,216
  802be8:	008037b0 	cmpltui	r2,zero,222
  802bec:	00802d2c 	andhi	r2,zero,180
  802bf0:	00802e8c 	andi	r2,zero,186
  802bf4:	008037b0 	cmpltui	r2,zero,222
  802bf8:	00802ecc 	andi	r2,zero,187
  802bfc:	00802ed8 	cmpnei	r2,zero,187
  802c00:	00802ed8 	cmpnei	r2,zero,187
  802c04:	00802ed8 	cmpnei	r2,zero,187
  802c08:	00802ed8 	cmpnei	r2,zero,187
  802c0c:	00802ed8 	cmpnei	r2,zero,187
  802c10:	00802ed8 	cmpnei	r2,zero,187
  802c14:	00802ed8 	cmpnei	r2,zero,187
  802c18:	00802ed8 	cmpnei	r2,zero,187
  802c1c:	00802ed8 	cmpnei	r2,zero,187
  802c20:	008037b0 	cmpltui	r2,zero,222
  802c24:	008037b0 	cmpltui	r2,zero,222
  802c28:	008037b0 	cmpltui	r2,zero,222
  802c2c:	008037b0 	cmpltui	r2,zero,222
  802c30:	008037b0 	cmpltui	r2,zero,222
  802c34:	008037b0 	cmpltui	r2,zero,222
  802c38:	008037b0 	cmpltui	r2,zero,222
  802c3c:	008037b0 	cmpltui	r2,zero,222
  802c40:	008037b0 	cmpltui	r2,zero,222
  802c44:	008037b0 	cmpltui	r2,zero,222
  802c48:	00802f0c 	andi	r2,zero,188
  802c4c:	00802fc8 	cmpgei	r2,zero,191
  802c50:	008037b0 	cmpltui	r2,zero,222
  802c54:	00802fc8 	cmpgei	r2,zero,191
  802c58:	008037b0 	cmpltui	r2,zero,222
  802c5c:	008037b0 	cmpltui	r2,zero,222
  802c60:	008037b0 	cmpltui	r2,zero,222
  802c64:	008037b0 	cmpltui	r2,zero,222
  802c68:	00803068 	cmpgeui	r2,zero,193
  802c6c:	008037b0 	cmpltui	r2,zero,222
  802c70:	008037b0 	cmpltui	r2,zero,222
  802c74:	00803074 	movhi	r2,193
  802c78:	008037b0 	cmpltui	r2,zero,222
  802c7c:	008037b0 	cmpltui	r2,zero,222
  802c80:	008037b0 	cmpltui	r2,zero,222
  802c84:	008037b0 	cmpltui	r2,zero,222
  802c88:	008037b0 	cmpltui	r2,zero,222
  802c8c:	008034ec 	andhi	r2,zero,211
  802c90:	008037b0 	cmpltui	r2,zero,222
  802c94:	008037b0 	cmpltui	r2,zero,222
  802c98:	0080354c 	andi	r2,zero,213
  802c9c:	008037b0 	cmpltui	r2,zero,222
  802ca0:	008037b0 	cmpltui	r2,zero,222
  802ca4:	008037b0 	cmpltui	r2,zero,222
  802ca8:	008037b0 	cmpltui	r2,zero,222
  802cac:	008037b0 	cmpltui	r2,zero,222
  802cb0:	008037b0 	cmpltui	r2,zero,222
  802cb4:	008037b0 	cmpltui	r2,zero,222
  802cb8:	008037b0 	cmpltui	r2,zero,222
  802cbc:	008037b0 	cmpltui	r2,zero,222
  802cc0:	008037b0 	cmpltui	r2,zero,222
  802cc4:	0080375c 	xori	r2,zero,221
  802cc8:	008036fc 	xorhi	r2,zero,219
  802ccc:	00802fc8 	cmpgei	r2,zero,191
  802cd0:	00802fc8 	cmpgei	r2,zero,191
  802cd4:	00802fc8 	cmpgei	r2,zero,191
  802cd8:	0080370c 	andi	r2,zero,220
  802cdc:	008036fc 	xorhi	r2,zero,219
  802ce0:	008037b0 	cmpltui	r2,zero,222
  802ce4:	008037b0 	cmpltui	r2,zero,222
  802ce8:	00803718 	cmpnei	r2,zero,220
  802cec:	008037b0 	cmpltui	r2,zero,222
  802cf0:	00803728 	cmpgeui	r2,zero,220
  802cf4:	008035fc 	xorhi	r2,zero,215
  802cf8:	00802d38 	rdprs	r2,zero,180
  802cfc:	0080361c 	xori	r2,zero,216
  802d00:	008037b0 	cmpltui	r2,zero,222
  802d04:	00803628 	cmpgeui	r2,zero,216
  802d08:	008037b0 	cmpltui	r2,zero,222
  802d0c:	00803684 	movi	r2,218
  802d10:	008037b0 	cmpltui	r2,zero,222
  802d14:	008037b0 	cmpltui	r2,zero,222
  802d18:	00803694 	movui	r2,218
  802d1c:	d9003117 	ldw	r4,196(sp)
  802d20:	d8802d15 	stw	r2,180(sp)
  802d24:	0109c83a 	sub	r4,zero,r4
  802d28:	d9003115 	stw	r4,196(sp)
  802d2c:	94800114 	ori	r18,r18,4
  802d30:	ac400007 	ldb	r17,0(r21)
  802d34:	003f9706 	br	802b94 <__alt_mem_onchip_mem+0xff782b94>
  802d38:	00800c04 	movi	r2,48
  802d3c:	d9002d17 	ldw	r4,180(sp)
  802d40:	d9402917 	ldw	r5,164(sp)
  802d44:	d8802705 	stb	r2,156(sp)
  802d48:	00801e04 	movi	r2,120
  802d4c:	d8802745 	stb	r2,157(sp)
  802d50:	d8002785 	stb	zero,158(sp)
  802d54:	20c00104 	addi	r3,r4,4
  802d58:	24c00017 	ldw	r19,0(r4)
  802d5c:	002d883a 	mov	r22,zero
  802d60:	90800094 	ori	r2,r18,2
  802d64:	28029a16 	blt	r5,zero,8037d0 <___vfprintf_internal_r+0xdc0>
  802d68:	00bfdfc4 	movi	r2,-129
  802d6c:	90a4703a 	and	r18,r18,r2
  802d70:	d8c02d15 	stw	r3,180(sp)
  802d74:	94800094 	ori	r18,r18,2
  802d78:	9802871e 	bne	r19,zero,803798 <___vfprintf_internal_r+0xd88>
  802d7c:	00802074 	movhi	r2,129
  802d80:	108cea04 	addi	r2,r2,13224
  802d84:	d8803915 	stw	r2,228(sp)
  802d88:	04401e04 	movi	r17,120
  802d8c:	d8802917 	ldw	r2,164(sp)
  802d90:	0039883a 	mov	fp,zero
  802d94:	1001e926 	beq	r2,zero,80353c <___vfprintf_internal_r+0xb2c>
  802d98:	0027883a 	mov	r19,zero
  802d9c:	002d883a 	mov	r22,zero
  802da0:	00020506 	br	8035b8 <___vfprintf_internal_r+0xba8>
  802da4:	d9002c17 	ldw	r4,176(sp)
  802da8:	b80b883a 	mov	r5,r23
  802dac:	0804ce00 	call	804ce0 <__swsetup_r>
  802db0:	1005ac1e 	bne	r2,zero,804464 <___vfprintf_internal_r+0x1a54>
  802db4:	b880030b 	ldhu	r2,12(r23)
  802db8:	00c00284 	movi	r3,10
  802dbc:	1080068c 	andi	r2,r2,26
  802dc0:	10ff3c1e 	bne	r2,r3,802ab4 <__alt_mem_onchip_mem+0xff782ab4>
  802dc4:	b880038f 	ldh	r2,14(r23)
  802dc8:	103f3a16 	blt	r2,zero,802ab4 <__alt_mem_onchip_mem+0xff782ab4>
  802dcc:	d9c02d17 	ldw	r7,180(sp)
  802dd0:	d9002c17 	ldw	r4,176(sp)
  802dd4:	a80d883a 	mov	r6,r21
  802dd8:	b80b883a 	mov	r5,r23
  802ddc:	0804c240 	call	804c24 <__sbprintf>
  802de0:	00001106 	br	802e28 <___vfprintf_internal_r+0x418>
  802de4:	d9002c17 	ldw	r4,176(sp)
  802de8:	d9801e04 	addi	r6,sp,120
  802dec:	b80b883a 	mov	r5,r23
  802df0:	08095280 	call	809528 <__sprint_r>
  802df4:	1000081e 	bne	r2,zero,802e18 <___vfprintf_internal_r+0x408>
  802df8:	da000404 	addi	r8,sp,16
  802dfc:	003f5306 	br	802b4c <__alt_mem_onchip_mem+0xff782b4c>
  802e00:	d8802017 	ldw	r2,128(sp)
  802e04:	10000426 	beq	r2,zero,802e18 <___vfprintf_internal_r+0x408>
  802e08:	d9002c17 	ldw	r4,176(sp)
  802e0c:	d9801e04 	addi	r6,sp,120
  802e10:	b80b883a 	mov	r5,r23
  802e14:	08095280 	call	809528 <__sprint_r>
  802e18:	b880030b 	ldhu	r2,12(r23)
  802e1c:	1080100c 	andi	r2,r2,64
  802e20:	1005901e 	bne	r2,zero,804464 <___vfprintf_internal_r+0x1a54>
  802e24:	d8802f17 	ldw	r2,188(sp)
  802e28:	dfc04717 	ldw	ra,284(sp)
  802e2c:	df004617 	ldw	fp,280(sp)
  802e30:	ddc04517 	ldw	r23,276(sp)
  802e34:	dd804417 	ldw	r22,272(sp)
  802e38:	dd404317 	ldw	r21,268(sp)
  802e3c:	dd004217 	ldw	r20,264(sp)
  802e40:	dcc04117 	ldw	r19,260(sp)
  802e44:	dc804017 	ldw	r18,256(sp)
  802e48:	dc403f17 	ldw	r17,252(sp)
  802e4c:	dc003e17 	ldw	r16,248(sp)
  802e50:	dec04804 	addi	sp,sp,288
  802e54:	f800283a 	ret
  802e58:	d9002c17 	ldw	r4,176(sp)
  802e5c:	0806cb40 	call	806cb4 <__sinit>
  802e60:	003f0406 	br	802a74 <__alt_mem_onchip_mem+0xff782a74>
  802e64:	d8802d17 	ldw	r2,180(sp)
  802e68:	d9002d17 	ldw	r4,180(sp)
  802e6c:	10800017 	ldw	r2,0(r2)
  802e70:	d8803115 	stw	r2,196(sp)
  802e74:	20800104 	addi	r2,r4,4
  802e78:	d9003117 	ldw	r4,196(sp)
  802e7c:	203fa716 	blt	r4,zero,802d1c <__alt_mem_onchip_mem+0xff782d1c>
  802e80:	d8802d15 	stw	r2,180(sp)
  802e84:	ac400007 	ldb	r17,0(r21)
  802e88:	003f4206 	br	802b94 <__alt_mem_onchip_mem+0xff782b94>
  802e8c:	ac400007 	ldb	r17,0(r21)
  802e90:	aac00044 	addi	r11,r21,1
  802e94:	8a872826 	beq	r17,r10,804b38 <___vfprintf_internal_r+0x2128>
  802e98:	88bff404 	addi	r2,r17,-48
  802e9c:	0009883a 	mov	r4,zero
  802ea0:	30867d36 	bltu	r6,r2,804898 <___vfprintf_internal_r+0x1e88>
  802ea4:	5c400007 	ldb	r17,0(r11)
  802ea8:	210002a4 	muli	r4,r4,10
  802eac:	5d400044 	addi	r21,r11,1
  802eb0:	a817883a 	mov	r11,r21
  802eb4:	2089883a 	add	r4,r4,r2
  802eb8:	88bff404 	addi	r2,r17,-48
  802ebc:	30bff92e 	bgeu	r6,r2,802ea4 <__alt_mem_onchip_mem+0xff782ea4>
  802ec0:	2005c916 	blt	r4,zero,8045e8 <___vfprintf_internal_r+0x1bd8>
  802ec4:	d9002915 	stw	r4,164(sp)
  802ec8:	003f3306 	br	802b98 <__alt_mem_onchip_mem+0xff782b98>
  802ecc:	94802014 	ori	r18,r18,128
  802ed0:	ac400007 	ldb	r17,0(r21)
  802ed4:	003f2f06 	br	802b94 <__alt_mem_onchip_mem+0xff782b94>
  802ed8:	a809883a 	mov	r4,r21
  802edc:	d8003115 	stw	zero,196(sp)
  802ee0:	88bff404 	addi	r2,r17,-48
  802ee4:	0017883a 	mov	r11,zero
  802ee8:	24400007 	ldb	r17,0(r4)
  802eec:	5ac002a4 	muli	r11,r11,10
  802ef0:	ad400044 	addi	r21,r21,1
  802ef4:	a809883a 	mov	r4,r21
  802ef8:	12d7883a 	add	r11,r2,r11
  802efc:	88bff404 	addi	r2,r17,-48
  802f00:	30bff92e 	bgeu	r6,r2,802ee8 <__alt_mem_onchip_mem+0xff782ee8>
  802f04:	dac03115 	stw	r11,196(sp)
  802f08:	003f2306 	br	802b98 <__alt_mem_onchip_mem+0xff782b98>
  802f0c:	18c03fcc 	andi	r3,r3,255
  802f10:	18072b1e 	bne	r3,zero,804bc0 <___vfprintf_internal_r+0x21b0>
  802f14:	94800414 	ori	r18,r18,16
  802f18:	9080080c 	andi	r2,r18,32
  802f1c:	10037b26 	beq	r2,zero,803d0c <___vfprintf_internal_r+0x12fc>
  802f20:	d9402d17 	ldw	r5,180(sp)
  802f24:	28800117 	ldw	r2,4(r5)
  802f28:	2cc00017 	ldw	r19,0(r5)
  802f2c:	29400204 	addi	r5,r5,8
  802f30:	d9402d15 	stw	r5,180(sp)
  802f34:	102d883a 	mov	r22,r2
  802f38:	10044b16 	blt	r2,zero,804068 <___vfprintf_internal_r+0x1658>
  802f3c:	d9402917 	ldw	r5,164(sp)
  802f40:	df002783 	ldbu	fp,158(sp)
  802f44:	2803bc16 	blt	r5,zero,803e38 <___vfprintf_internal_r+0x1428>
  802f48:	00ffdfc4 	movi	r3,-129
  802f4c:	9d84b03a 	or	r2,r19,r22
  802f50:	90e4703a 	and	r18,r18,r3
  802f54:	10017726 	beq	r2,zero,803534 <___vfprintf_internal_r+0xb24>
  802f58:	b0038326 	beq	r22,zero,803d68 <___vfprintf_internal_r+0x1358>
  802f5c:	dc402a15 	stw	r17,168(sp)
  802f60:	dc001e04 	addi	r16,sp,120
  802f64:	b023883a 	mov	r17,r22
  802f68:	402d883a 	mov	r22,r8
  802f6c:	9809883a 	mov	r4,r19
  802f70:	880b883a 	mov	r5,r17
  802f74:	01800284 	movi	r6,10
  802f78:	000f883a 	mov	r7,zero
  802f7c:	080c49c0 	call	80c49c <__umoddi3>
  802f80:	10800c04 	addi	r2,r2,48
  802f84:	843fffc4 	addi	r16,r16,-1
  802f88:	9809883a 	mov	r4,r19
  802f8c:	880b883a 	mov	r5,r17
  802f90:	80800005 	stb	r2,0(r16)
  802f94:	01800284 	movi	r6,10
  802f98:	000f883a 	mov	r7,zero
  802f9c:	080bf240 	call	80bf24 <__udivdi3>
  802fa0:	1027883a 	mov	r19,r2
  802fa4:	10c4b03a 	or	r2,r2,r3
  802fa8:	1823883a 	mov	r17,r3
  802fac:	103fef1e 	bne	r2,zero,802f6c <__alt_mem_onchip_mem+0xff782f6c>
  802fb0:	d8c02817 	ldw	r3,160(sp)
  802fb4:	dc402a17 	ldw	r17,168(sp)
  802fb8:	b011883a 	mov	r8,r22
  802fbc:	1c07c83a 	sub	r3,r3,r16
  802fc0:	d8c02e15 	stw	r3,184(sp)
  802fc4:	00005906 	br	80312c <___vfprintf_internal_r+0x71c>
  802fc8:	18c03fcc 	andi	r3,r3,255
  802fcc:	1806fa1e 	bne	r3,zero,804bb8 <___vfprintf_internal_r+0x21a8>
  802fd0:	9080020c 	andi	r2,r18,8
  802fd4:	10048a26 	beq	r2,zero,804200 <___vfprintf_internal_r+0x17f0>
  802fd8:	d8c02d17 	ldw	r3,180(sp)
  802fdc:	d9002d17 	ldw	r4,180(sp)
  802fe0:	d9402d17 	ldw	r5,180(sp)
  802fe4:	18c00017 	ldw	r3,0(r3)
  802fe8:	21000117 	ldw	r4,4(r4)
  802fec:	29400204 	addi	r5,r5,8
  802ff0:	d8c03615 	stw	r3,216(sp)
  802ff4:	d9003815 	stw	r4,224(sp)
  802ff8:	d9402d15 	stw	r5,180(sp)
  802ffc:	d9003617 	ldw	r4,216(sp)
  803000:	d9403817 	ldw	r5,224(sp)
  803004:	da003d15 	stw	r8,244(sp)
  803008:	04000044 	movi	r16,1
  80300c:	08090b40 	call	8090b4 <__fpclassifyd>
  803010:	da003d17 	ldw	r8,244(sp)
  803014:	14041f1e 	bne	r2,r16,804094 <___vfprintf_internal_r+0x1684>
  803018:	d9003617 	ldw	r4,216(sp)
  80301c:	d9403817 	ldw	r5,224(sp)
  803020:	000d883a 	mov	r6,zero
  803024:	000f883a 	mov	r7,zero
  803028:	080de800 	call	80de80 <__ledf2>
  80302c:	da003d17 	ldw	r8,244(sp)
  803030:	1005be16 	blt	r2,zero,80472c <___vfprintf_internal_r+0x1d1c>
  803034:	df002783 	ldbu	fp,158(sp)
  803038:	008011c4 	movi	r2,71
  80303c:	1445330e 	bge	r2,r17,80450c <___vfprintf_internal_r+0x1afc>
  803040:	04002074 	movhi	r16,129
  803044:	840ce204 	addi	r16,r16,13192
  803048:	00c000c4 	movi	r3,3
  80304c:	00bfdfc4 	movi	r2,-129
  803050:	d8c02a15 	stw	r3,168(sp)
  803054:	90a4703a 	and	r18,r18,r2
  803058:	d8c02e15 	stw	r3,184(sp)
  80305c:	d8002915 	stw	zero,164(sp)
  803060:	d8003215 	stw	zero,200(sp)
  803064:	00003706 	br	803144 <___vfprintf_internal_r+0x734>
  803068:	94800214 	ori	r18,r18,8
  80306c:	ac400007 	ldb	r17,0(r21)
  803070:	003ec806 	br	802b94 <__alt_mem_onchip_mem+0xff782b94>
  803074:	18c03fcc 	andi	r3,r3,255
  803078:	1806db1e 	bne	r3,zero,804be8 <___vfprintf_internal_r+0x21d8>
  80307c:	94800414 	ori	r18,r18,16
  803080:	9080080c 	andi	r2,r18,32
  803084:	1002d826 	beq	r2,zero,803be8 <___vfprintf_internal_r+0x11d8>
  803088:	d9402d17 	ldw	r5,180(sp)
  80308c:	d8c02917 	ldw	r3,164(sp)
  803090:	d8002785 	stb	zero,158(sp)
  803094:	28800204 	addi	r2,r5,8
  803098:	2cc00017 	ldw	r19,0(r5)
  80309c:	2d800117 	ldw	r22,4(r5)
  8030a0:	18048f16 	blt	r3,zero,8042e0 <___vfprintf_internal_r+0x18d0>
  8030a4:	013fdfc4 	movi	r4,-129
  8030a8:	9d86b03a 	or	r3,r19,r22
  8030ac:	d8802d15 	stw	r2,180(sp)
  8030b0:	9124703a 	and	r18,r18,r4
  8030b4:	1802d91e 	bne	r3,zero,803c1c <___vfprintf_internal_r+0x120c>
  8030b8:	d8c02917 	ldw	r3,164(sp)
  8030bc:	0039883a 	mov	fp,zero
  8030c0:	1805c326 	beq	r3,zero,8047d0 <___vfprintf_internal_r+0x1dc0>
  8030c4:	0027883a 	mov	r19,zero
  8030c8:	002d883a 	mov	r22,zero
  8030cc:	dc001e04 	addi	r16,sp,120
  8030d0:	9806d0fa 	srli	r3,r19,3
  8030d4:	b008977a 	slli	r4,r22,29
  8030d8:	b02cd0fa 	srli	r22,r22,3
  8030dc:	9cc001cc 	andi	r19,r19,7
  8030e0:	98800c04 	addi	r2,r19,48
  8030e4:	843fffc4 	addi	r16,r16,-1
  8030e8:	20e6b03a 	or	r19,r4,r3
  8030ec:	80800005 	stb	r2,0(r16)
  8030f0:	9d86b03a 	or	r3,r19,r22
  8030f4:	183ff61e 	bne	r3,zero,8030d0 <__alt_mem_onchip_mem+0xff7830d0>
  8030f8:	90c0004c 	andi	r3,r18,1
  8030fc:	18013b26 	beq	r3,zero,8035ec <___vfprintf_internal_r+0xbdc>
  803100:	10803fcc 	andi	r2,r2,255
  803104:	1080201c 	xori	r2,r2,128
  803108:	10bfe004 	addi	r2,r2,-128
  80310c:	00c00c04 	movi	r3,48
  803110:	10c13626 	beq	r2,r3,8035ec <___vfprintf_internal_r+0xbdc>
  803114:	80ffffc5 	stb	r3,-1(r16)
  803118:	d8c02817 	ldw	r3,160(sp)
  80311c:	80bfffc4 	addi	r2,r16,-1
  803120:	1021883a 	mov	r16,r2
  803124:	1887c83a 	sub	r3,r3,r2
  803128:	d8c02e15 	stw	r3,184(sp)
  80312c:	d8802e17 	ldw	r2,184(sp)
  803130:	d9002917 	ldw	r4,164(sp)
  803134:	1100010e 	bge	r2,r4,80313c <___vfprintf_internal_r+0x72c>
  803138:	2005883a 	mov	r2,r4
  80313c:	d8802a15 	stw	r2,168(sp)
  803140:	d8003215 	stw	zero,200(sp)
  803144:	e7003fcc 	andi	fp,fp,255
  803148:	e700201c 	xori	fp,fp,128
  80314c:	e73fe004 	addi	fp,fp,-128
  803150:	e0000326 	beq	fp,zero,803160 <___vfprintf_internal_r+0x750>
  803154:	d8c02a17 	ldw	r3,168(sp)
  803158:	18c00044 	addi	r3,r3,1
  80315c:	d8c02a15 	stw	r3,168(sp)
  803160:	90c0008c 	andi	r3,r18,2
  803164:	d8c02b15 	stw	r3,172(sp)
  803168:	18000326 	beq	r3,zero,803178 <___vfprintf_internal_r+0x768>
  80316c:	d8c02a17 	ldw	r3,168(sp)
  803170:	18c00084 	addi	r3,r3,2
  803174:	d8c02a15 	stw	r3,168(sp)
  803178:	90c0210c 	andi	r3,r18,132
  80317c:	d8c03015 	stw	r3,192(sp)
  803180:	1801a31e 	bne	r3,zero,803810 <___vfprintf_internal_r+0xe00>
  803184:	d9003117 	ldw	r4,196(sp)
  803188:	d8c02a17 	ldw	r3,168(sp)
  80318c:	20e7c83a 	sub	r19,r4,r3
  803190:	04c19f0e 	bge	zero,r19,803810 <___vfprintf_internal_r+0xe00>
  803194:	02400404 	movi	r9,16
  803198:	d8c02017 	ldw	r3,128(sp)
  80319c:	d8801f17 	ldw	r2,124(sp)
  8031a0:	4cc50d0e 	bge	r9,r19,8045d8 <___vfprintf_internal_r+0x1bc8>
  8031a4:	01402074 	movhi	r5,129
  8031a8:	294cf584 	addi	r5,r5,13270
  8031ac:	dc403b15 	stw	r17,236(sp)
  8031b0:	d9403515 	stw	r5,212(sp)
  8031b4:	9823883a 	mov	r17,r19
  8031b8:	482d883a 	mov	r22,r9
  8031bc:	9027883a 	mov	r19,r18
  8031c0:	070001c4 	movi	fp,7
  8031c4:	8025883a 	mov	r18,r16
  8031c8:	dc002c17 	ldw	r16,176(sp)
  8031cc:	00000306 	br	8031dc <___vfprintf_internal_r+0x7cc>
  8031d0:	8c7ffc04 	addi	r17,r17,-16
  8031d4:	42000204 	addi	r8,r8,8
  8031d8:	b440130e 	bge	r22,r17,803228 <___vfprintf_internal_r+0x818>
  8031dc:	01002074 	movhi	r4,129
  8031e0:	18c00404 	addi	r3,r3,16
  8031e4:	10800044 	addi	r2,r2,1
  8031e8:	210cf584 	addi	r4,r4,13270
  8031ec:	41000015 	stw	r4,0(r8)
  8031f0:	45800115 	stw	r22,4(r8)
  8031f4:	d8c02015 	stw	r3,128(sp)
  8031f8:	d8801f15 	stw	r2,124(sp)
  8031fc:	e0bff40e 	bge	fp,r2,8031d0 <__alt_mem_onchip_mem+0xff7831d0>
  803200:	d9801e04 	addi	r6,sp,120
  803204:	b80b883a 	mov	r5,r23
  803208:	8009883a 	mov	r4,r16
  80320c:	08095280 	call	809528 <__sprint_r>
  803210:	103f011e 	bne	r2,zero,802e18 <__alt_mem_onchip_mem+0xff782e18>
  803214:	8c7ffc04 	addi	r17,r17,-16
  803218:	d8c02017 	ldw	r3,128(sp)
  80321c:	d8801f17 	ldw	r2,124(sp)
  803220:	da000404 	addi	r8,sp,16
  803224:	b47fed16 	blt	r22,r17,8031dc <__alt_mem_onchip_mem+0xff7831dc>
  803228:	9021883a 	mov	r16,r18
  80322c:	9825883a 	mov	r18,r19
  803230:	8827883a 	mov	r19,r17
  803234:	dc403b17 	ldw	r17,236(sp)
  803238:	d9403517 	ldw	r5,212(sp)
  80323c:	98c7883a 	add	r3,r19,r3
  803240:	10800044 	addi	r2,r2,1
  803244:	41400015 	stw	r5,0(r8)
  803248:	44c00115 	stw	r19,4(r8)
  80324c:	d8c02015 	stw	r3,128(sp)
  803250:	d8801f15 	stw	r2,124(sp)
  803254:	010001c4 	movi	r4,7
  803258:	2082a316 	blt	r4,r2,803ce8 <___vfprintf_internal_r+0x12d8>
  80325c:	df002787 	ldb	fp,158(sp)
  803260:	42000204 	addi	r8,r8,8
  803264:	e0000c26 	beq	fp,zero,803298 <___vfprintf_internal_r+0x888>
  803268:	d8801f17 	ldw	r2,124(sp)
  80326c:	d9002784 	addi	r4,sp,158
  803270:	18c00044 	addi	r3,r3,1
  803274:	10800044 	addi	r2,r2,1
  803278:	41000015 	stw	r4,0(r8)
  80327c:	01000044 	movi	r4,1
  803280:	41000115 	stw	r4,4(r8)
  803284:	d8c02015 	stw	r3,128(sp)
  803288:	d8801f15 	stw	r2,124(sp)
  80328c:	010001c4 	movi	r4,7
  803290:	20823c16 	blt	r4,r2,803b84 <___vfprintf_internal_r+0x1174>
  803294:	42000204 	addi	r8,r8,8
  803298:	d8802b17 	ldw	r2,172(sp)
  80329c:	10000c26 	beq	r2,zero,8032d0 <___vfprintf_internal_r+0x8c0>
  8032a0:	d8801f17 	ldw	r2,124(sp)
  8032a4:	d9002704 	addi	r4,sp,156
  8032a8:	18c00084 	addi	r3,r3,2
  8032ac:	10800044 	addi	r2,r2,1
  8032b0:	41000015 	stw	r4,0(r8)
  8032b4:	01000084 	movi	r4,2
  8032b8:	41000115 	stw	r4,4(r8)
  8032bc:	d8c02015 	stw	r3,128(sp)
  8032c0:	d8801f15 	stw	r2,124(sp)
  8032c4:	010001c4 	movi	r4,7
  8032c8:	20823616 	blt	r4,r2,803ba4 <___vfprintf_internal_r+0x1194>
  8032cc:	42000204 	addi	r8,r8,8
  8032d0:	d9003017 	ldw	r4,192(sp)
  8032d4:	00802004 	movi	r2,128
  8032d8:	20819926 	beq	r4,r2,803940 <___vfprintf_internal_r+0xf30>
  8032dc:	d9402917 	ldw	r5,164(sp)
  8032e0:	d8802e17 	ldw	r2,184(sp)
  8032e4:	28adc83a 	sub	r22,r5,r2
  8032e8:	0580310e 	bge	zero,r22,8033b0 <___vfprintf_internal_r+0x9a0>
  8032ec:	07000404 	movi	fp,16
  8032f0:	d8801f17 	ldw	r2,124(sp)
  8032f4:	e584140e 	bge	fp,r22,804348 <___vfprintf_internal_r+0x1938>
  8032f8:	01402074 	movhi	r5,129
  8032fc:	294cf184 	addi	r5,r5,13254
  803300:	dc402915 	stw	r17,164(sp)
  803304:	d9402b15 	stw	r5,172(sp)
  803308:	b023883a 	mov	r17,r22
  80330c:	04c001c4 	movi	r19,7
  803310:	a82d883a 	mov	r22,r21
  803314:	902b883a 	mov	r21,r18
  803318:	8025883a 	mov	r18,r16
  80331c:	dc002c17 	ldw	r16,176(sp)
  803320:	00000306 	br	803330 <___vfprintf_internal_r+0x920>
  803324:	8c7ffc04 	addi	r17,r17,-16
  803328:	42000204 	addi	r8,r8,8
  80332c:	e440110e 	bge	fp,r17,803374 <___vfprintf_internal_r+0x964>
  803330:	18c00404 	addi	r3,r3,16
  803334:	10800044 	addi	r2,r2,1
  803338:	45000015 	stw	r20,0(r8)
  80333c:	47000115 	stw	fp,4(r8)
  803340:	d8c02015 	stw	r3,128(sp)
  803344:	d8801f15 	stw	r2,124(sp)
  803348:	98bff60e 	bge	r19,r2,803324 <__alt_mem_onchip_mem+0xff783324>
  80334c:	d9801e04 	addi	r6,sp,120
  803350:	b80b883a 	mov	r5,r23
  803354:	8009883a 	mov	r4,r16
  803358:	08095280 	call	809528 <__sprint_r>
  80335c:	103eae1e 	bne	r2,zero,802e18 <__alt_mem_onchip_mem+0xff782e18>
  803360:	8c7ffc04 	addi	r17,r17,-16
  803364:	d8c02017 	ldw	r3,128(sp)
  803368:	d8801f17 	ldw	r2,124(sp)
  80336c:	da000404 	addi	r8,sp,16
  803370:	e47fef16 	blt	fp,r17,803330 <__alt_mem_onchip_mem+0xff783330>
  803374:	9021883a 	mov	r16,r18
  803378:	a825883a 	mov	r18,r21
  80337c:	b02b883a 	mov	r21,r22
  803380:	882d883a 	mov	r22,r17
  803384:	dc402917 	ldw	r17,164(sp)
  803388:	d9002b17 	ldw	r4,172(sp)
  80338c:	1d87883a 	add	r3,r3,r22
  803390:	10800044 	addi	r2,r2,1
  803394:	41000015 	stw	r4,0(r8)
  803398:	45800115 	stw	r22,4(r8)
  80339c:	d8c02015 	stw	r3,128(sp)
  8033a0:	d8801f15 	stw	r2,124(sp)
  8033a4:	010001c4 	movi	r4,7
  8033a8:	2081ee16 	blt	r4,r2,803b64 <___vfprintf_internal_r+0x1154>
  8033ac:	42000204 	addi	r8,r8,8
  8033b0:	9080400c 	andi	r2,r18,256
  8033b4:	1001181e 	bne	r2,zero,803818 <___vfprintf_internal_r+0xe08>
  8033b8:	d9402e17 	ldw	r5,184(sp)
  8033bc:	d8801f17 	ldw	r2,124(sp)
  8033c0:	44000015 	stw	r16,0(r8)
  8033c4:	1947883a 	add	r3,r3,r5
  8033c8:	10800044 	addi	r2,r2,1
  8033cc:	41400115 	stw	r5,4(r8)
  8033d0:	d8c02015 	stw	r3,128(sp)
  8033d4:	d8801f15 	stw	r2,124(sp)
  8033d8:	010001c4 	movi	r4,7
  8033dc:	2081d316 	blt	r4,r2,803b2c <___vfprintf_internal_r+0x111c>
  8033e0:	42000204 	addi	r8,r8,8
  8033e4:	9480010c 	andi	r18,r18,4
  8033e8:	90003226 	beq	r18,zero,8034b4 <___vfprintf_internal_r+0xaa4>
  8033ec:	d9403117 	ldw	r5,196(sp)
  8033f0:	d8802a17 	ldw	r2,168(sp)
  8033f4:	28a1c83a 	sub	r16,r5,r2
  8033f8:	04002e0e 	bge	zero,r16,8034b4 <___vfprintf_internal_r+0xaa4>
  8033fc:	04400404 	movi	r17,16
  803400:	d8801f17 	ldw	r2,124(sp)
  803404:	8c04a20e 	bge	r17,r16,804690 <___vfprintf_internal_r+0x1c80>
  803408:	01402074 	movhi	r5,129
  80340c:	294cf584 	addi	r5,r5,13270
  803410:	d9403515 	stw	r5,212(sp)
  803414:	048001c4 	movi	r18,7
  803418:	dcc02c17 	ldw	r19,176(sp)
  80341c:	00000306 	br	80342c <___vfprintf_internal_r+0xa1c>
  803420:	843ffc04 	addi	r16,r16,-16
  803424:	42000204 	addi	r8,r8,8
  803428:	8c00130e 	bge	r17,r16,803478 <___vfprintf_internal_r+0xa68>
  80342c:	01002074 	movhi	r4,129
  803430:	18c00404 	addi	r3,r3,16
  803434:	10800044 	addi	r2,r2,1
  803438:	210cf584 	addi	r4,r4,13270
  80343c:	41000015 	stw	r4,0(r8)
  803440:	44400115 	stw	r17,4(r8)
  803444:	d8c02015 	stw	r3,128(sp)
  803448:	d8801f15 	stw	r2,124(sp)
  80344c:	90bff40e 	bge	r18,r2,803420 <__alt_mem_onchip_mem+0xff783420>
  803450:	d9801e04 	addi	r6,sp,120
  803454:	b80b883a 	mov	r5,r23
  803458:	9809883a 	mov	r4,r19
  80345c:	08095280 	call	809528 <__sprint_r>
  803460:	103e6d1e 	bne	r2,zero,802e18 <__alt_mem_onchip_mem+0xff782e18>
  803464:	843ffc04 	addi	r16,r16,-16
  803468:	d8c02017 	ldw	r3,128(sp)
  80346c:	d8801f17 	ldw	r2,124(sp)
  803470:	da000404 	addi	r8,sp,16
  803474:	8c3fed16 	blt	r17,r16,80342c <__alt_mem_onchip_mem+0xff78342c>
  803478:	d9403517 	ldw	r5,212(sp)
  80347c:	1c07883a 	add	r3,r3,r16
  803480:	10800044 	addi	r2,r2,1
  803484:	41400015 	stw	r5,0(r8)
  803488:	44000115 	stw	r16,4(r8)
  80348c:	d8c02015 	stw	r3,128(sp)
  803490:	d8801f15 	stw	r2,124(sp)
  803494:	010001c4 	movi	r4,7
  803498:	2080060e 	bge	r4,r2,8034b4 <___vfprintf_internal_r+0xaa4>
  80349c:	d9002c17 	ldw	r4,176(sp)
  8034a0:	d9801e04 	addi	r6,sp,120
  8034a4:	b80b883a 	mov	r5,r23
  8034a8:	08095280 	call	809528 <__sprint_r>
  8034ac:	103e5a1e 	bne	r2,zero,802e18 <__alt_mem_onchip_mem+0xff782e18>
  8034b0:	d8c02017 	ldw	r3,128(sp)
  8034b4:	d8803117 	ldw	r2,196(sp)
  8034b8:	d9002a17 	ldw	r4,168(sp)
  8034bc:	1100010e 	bge	r2,r4,8034c4 <___vfprintf_internal_r+0xab4>
  8034c0:	2005883a 	mov	r2,r4
  8034c4:	d9402f17 	ldw	r5,188(sp)
  8034c8:	288b883a 	add	r5,r5,r2
  8034cc:	d9402f15 	stw	r5,188(sp)
  8034d0:	18019e1e 	bne	r3,zero,803b4c <___vfprintf_internal_r+0x113c>
  8034d4:	a8800007 	ldb	r2,0(r21)
  8034d8:	d8001f15 	stw	zero,124(sp)
  8034dc:	da000404 	addi	r8,sp,16
  8034e0:	103d851e 	bne	r2,zero,802af8 <__alt_mem_onchip_mem+0xff782af8>
  8034e4:	a821883a 	mov	r16,r21
  8034e8:	003d9b06 	br	802b58 <__alt_mem_onchip_mem+0xff782b58>
  8034ec:	18c03fcc 	andi	r3,r3,255
  8034f0:	1805c11e 	bne	r3,zero,804bf8 <___vfprintf_internal_r+0x21e8>
  8034f4:	94800414 	ori	r18,r18,16
  8034f8:	9080080c 	andi	r2,r18,32
  8034fc:	10020c26 	beq	r2,zero,803d30 <___vfprintf_internal_r+0x1320>
  803500:	d8802d17 	ldw	r2,180(sp)
  803504:	d9002917 	ldw	r4,164(sp)
  803508:	d8002785 	stb	zero,158(sp)
  80350c:	10c00204 	addi	r3,r2,8
  803510:	14c00017 	ldw	r19,0(r2)
  803514:	15800117 	ldw	r22,4(r2)
  803518:	20040f16 	blt	r4,zero,804558 <___vfprintf_internal_r+0x1b48>
  80351c:	013fdfc4 	movi	r4,-129
  803520:	9d84b03a 	or	r2,r19,r22
  803524:	d8c02d15 	stw	r3,180(sp)
  803528:	9124703a 	and	r18,r18,r4
  80352c:	0039883a 	mov	fp,zero
  803530:	103e891e 	bne	r2,zero,802f58 <__alt_mem_onchip_mem+0xff782f58>
  803534:	d9002917 	ldw	r4,164(sp)
  803538:	2002c11e 	bne	r4,zero,804040 <___vfprintf_internal_r+0x1630>
  80353c:	d8002915 	stw	zero,164(sp)
  803540:	d8002e15 	stw	zero,184(sp)
  803544:	dc001e04 	addi	r16,sp,120
  803548:	003ef806 	br	80312c <__alt_mem_onchip_mem+0xff78312c>
  80354c:	18c03fcc 	andi	r3,r3,255
  803550:	18059d1e 	bne	r3,zero,804bc8 <___vfprintf_internal_r+0x21b8>
  803554:	01402074 	movhi	r5,129
  803558:	294ce504 	addi	r5,r5,13204
  80355c:	d9403915 	stw	r5,228(sp)
  803560:	9080080c 	andi	r2,r18,32
  803564:	10005226 	beq	r2,zero,8036b0 <___vfprintf_internal_r+0xca0>
  803568:	d8802d17 	ldw	r2,180(sp)
  80356c:	14c00017 	ldw	r19,0(r2)
  803570:	15800117 	ldw	r22,4(r2)
  803574:	10800204 	addi	r2,r2,8
  803578:	d8802d15 	stw	r2,180(sp)
  80357c:	9080004c 	andi	r2,r18,1
  803580:	10019026 	beq	r2,zero,803bc4 <___vfprintf_internal_r+0x11b4>
  803584:	9d84b03a 	or	r2,r19,r22
  803588:	10036926 	beq	r2,zero,804330 <___vfprintf_internal_r+0x1920>
  80358c:	d8c02917 	ldw	r3,164(sp)
  803590:	00800c04 	movi	r2,48
  803594:	d8802705 	stb	r2,156(sp)
  803598:	dc402745 	stb	r17,157(sp)
  80359c:	d8002785 	stb	zero,158(sp)
  8035a0:	90800094 	ori	r2,r18,2
  8035a4:	18045d16 	blt	r3,zero,80471c <___vfprintf_internal_r+0x1d0c>
  8035a8:	00bfdfc4 	movi	r2,-129
  8035ac:	90a4703a 	and	r18,r18,r2
  8035b0:	94800094 	ori	r18,r18,2
  8035b4:	0039883a 	mov	fp,zero
  8035b8:	d9003917 	ldw	r4,228(sp)
  8035bc:	dc001e04 	addi	r16,sp,120
  8035c0:	988003cc 	andi	r2,r19,15
  8035c4:	b006973a 	slli	r3,r22,28
  8035c8:	2085883a 	add	r2,r4,r2
  8035cc:	9826d13a 	srli	r19,r19,4
  8035d0:	10800003 	ldbu	r2,0(r2)
  8035d4:	b02cd13a 	srli	r22,r22,4
  8035d8:	843fffc4 	addi	r16,r16,-1
  8035dc:	1ce6b03a 	or	r19,r3,r19
  8035e0:	80800005 	stb	r2,0(r16)
  8035e4:	9d84b03a 	or	r2,r19,r22
  8035e8:	103ff51e 	bne	r2,zero,8035c0 <__alt_mem_onchip_mem+0xff7835c0>
  8035ec:	d8c02817 	ldw	r3,160(sp)
  8035f0:	1c07c83a 	sub	r3,r3,r16
  8035f4:	d8c02e15 	stw	r3,184(sp)
  8035f8:	003ecc06 	br	80312c <__alt_mem_onchip_mem+0xff78312c>
  8035fc:	18c03fcc 	andi	r3,r3,255
  803600:	183e9f26 	beq	r3,zero,803080 <__alt_mem_onchip_mem+0xff783080>
  803604:	d9c02785 	stb	r7,158(sp)
  803608:	003e9d06 	br	803080 <__alt_mem_onchip_mem+0xff783080>
  80360c:	00c00044 	movi	r3,1
  803610:	01c00ac4 	movi	r7,43
  803614:	ac400007 	ldb	r17,0(r21)
  803618:	003d5e06 	br	802b94 <__alt_mem_onchip_mem+0xff782b94>
  80361c:	94800814 	ori	r18,r18,32
  803620:	ac400007 	ldb	r17,0(r21)
  803624:	003d5b06 	br	802b94 <__alt_mem_onchip_mem+0xff782b94>
  803628:	d8c02d17 	ldw	r3,180(sp)
  80362c:	d8002785 	stb	zero,158(sp)
  803630:	1c000017 	ldw	r16,0(r3)
  803634:	1cc00104 	addi	r19,r3,4
  803638:	80041926 	beq	r16,zero,8046a0 <___vfprintf_internal_r+0x1c90>
  80363c:	d9002917 	ldw	r4,164(sp)
  803640:	2003d016 	blt	r4,zero,804584 <___vfprintf_internal_r+0x1b74>
  803644:	200d883a 	mov	r6,r4
  803648:	000b883a 	mov	r5,zero
  80364c:	8009883a 	mov	r4,r16
  803650:	da003d15 	stw	r8,244(sp)
  803654:	0807d640 	call	807d64 <memchr>
  803658:	da003d17 	ldw	r8,244(sp)
  80365c:	10045426 	beq	r2,zero,8047b0 <___vfprintf_internal_r+0x1da0>
  803660:	1405c83a 	sub	r2,r2,r16
  803664:	d8802e15 	stw	r2,184(sp)
  803668:	1003cc16 	blt	r2,zero,80459c <___vfprintf_internal_r+0x1b8c>
  80366c:	df002783 	ldbu	fp,158(sp)
  803670:	d8802a15 	stw	r2,168(sp)
  803674:	dcc02d15 	stw	r19,180(sp)
  803678:	d8002915 	stw	zero,164(sp)
  80367c:	d8003215 	stw	zero,200(sp)
  803680:	003eb006 	br	803144 <__alt_mem_onchip_mem+0xff783144>
  803684:	18c03fcc 	andi	r3,r3,255
  803688:	183f9b26 	beq	r3,zero,8034f8 <__alt_mem_onchip_mem+0xff7834f8>
  80368c:	d9c02785 	stb	r7,158(sp)
  803690:	003f9906 	br	8034f8 <__alt_mem_onchip_mem+0xff7834f8>
  803694:	18c03fcc 	andi	r3,r3,255
  803698:	1805551e 	bne	r3,zero,804bf0 <___vfprintf_internal_r+0x21e0>
  80369c:	01402074 	movhi	r5,129
  8036a0:	294cea04 	addi	r5,r5,13224
  8036a4:	d9403915 	stw	r5,228(sp)
  8036a8:	9080080c 	andi	r2,r18,32
  8036ac:	103fae1e 	bne	r2,zero,803568 <__alt_mem_onchip_mem+0xff783568>
  8036b0:	9080040c 	andi	r2,r18,16
  8036b4:	1002de26 	beq	r2,zero,804230 <___vfprintf_internal_r+0x1820>
  8036b8:	d8c02d17 	ldw	r3,180(sp)
  8036bc:	002d883a 	mov	r22,zero
  8036c0:	1cc00017 	ldw	r19,0(r3)
  8036c4:	18c00104 	addi	r3,r3,4
  8036c8:	d8c02d15 	stw	r3,180(sp)
  8036cc:	003fab06 	br	80357c <__alt_mem_onchip_mem+0xff78357c>
  8036d0:	38803fcc 	andi	r2,r7,255
  8036d4:	1080201c 	xori	r2,r2,128
  8036d8:	10bfe004 	addi	r2,r2,-128
  8036dc:	1002d21e 	bne	r2,zero,804228 <___vfprintf_internal_r+0x1818>
  8036e0:	00c00044 	movi	r3,1
  8036e4:	01c00804 	movi	r7,32
  8036e8:	ac400007 	ldb	r17,0(r21)
  8036ec:	003d2906 	br	802b94 <__alt_mem_onchip_mem+0xff782b94>
  8036f0:	94800054 	ori	r18,r18,1
  8036f4:	ac400007 	ldb	r17,0(r21)
  8036f8:	003d2606 	br	802b94 <__alt_mem_onchip_mem+0xff782b94>
  8036fc:	18c03fcc 	andi	r3,r3,255
  803700:	183e0526 	beq	r3,zero,802f18 <__alt_mem_onchip_mem+0xff782f18>
  803704:	d9c02785 	stb	r7,158(sp)
  803708:	003e0306 	br	802f18 <__alt_mem_onchip_mem+0xff782f18>
  80370c:	94801014 	ori	r18,r18,64
  803710:	ac400007 	ldb	r17,0(r21)
  803714:	003d1f06 	br	802b94 <__alt_mem_onchip_mem+0xff782b94>
  803718:	ac400007 	ldb	r17,0(r21)
  80371c:	8a438726 	beq	r17,r9,80453c <___vfprintf_internal_r+0x1b2c>
  803720:	94800414 	ori	r18,r18,16
  803724:	003d1b06 	br	802b94 <__alt_mem_onchip_mem+0xff782b94>
  803728:	18c03fcc 	andi	r3,r3,255
  80372c:	1805341e 	bne	r3,zero,804c00 <___vfprintf_internal_r+0x21f0>
  803730:	9080080c 	andi	r2,r18,32
  803734:	1002cd26 	beq	r2,zero,80426c <___vfprintf_internal_r+0x185c>
  803738:	d9402d17 	ldw	r5,180(sp)
  80373c:	d9002f17 	ldw	r4,188(sp)
  803740:	28800017 	ldw	r2,0(r5)
  803744:	2007d7fa 	srai	r3,r4,31
  803748:	29400104 	addi	r5,r5,4
  80374c:	d9402d15 	stw	r5,180(sp)
  803750:	11000015 	stw	r4,0(r2)
  803754:	10c00115 	stw	r3,4(r2)
  803758:	003ce506 	br	802af0 <__alt_mem_onchip_mem+0xff782af0>
  80375c:	d8c02d17 	ldw	r3,180(sp)
  803760:	d9002d17 	ldw	r4,180(sp)
  803764:	d8002785 	stb	zero,158(sp)
  803768:	18800017 	ldw	r2,0(r3)
  80376c:	21000104 	addi	r4,r4,4
  803770:	00c00044 	movi	r3,1
  803774:	d8c02a15 	stw	r3,168(sp)
  803778:	d8801405 	stb	r2,80(sp)
  80377c:	d9002d15 	stw	r4,180(sp)
  803780:	d8c02e15 	stw	r3,184(sp)
  803784:	d8002915 	stw	zero,164(sp)
  803788:	d8003215 	stw	zero,200(sp)
  80378c:	dc001404 	addi	r16,sp,80
  803790:	0039883a 	mov	fp,zero
  803794:	003e7206 	br	803160 <__alt_mem_onchip_mem+0xff783160>
  803798:	01002074 	movhi	r4,129
  80379c:	210cea04 	addi	r4,r4,13224
  8037a0:	0039883a 	mov	fp,zero
  8037a4:	d9003915 	stw	r4,228(sp)
  8037a8:	04401e04 	movi	r17,120
  8037ac:	003f8206 	br	8035b8 <__alt_mem_onchip_mem+0xff7835b8>
  8037b0:	18c03fcc 	andi	r3,r3,255
  8037b4:	1805061e 	bne	r3,zero,804bd0 <___vfprintf_internal_r+0x21c0>
  8037b8:	883d9126 	beq	r17,zero,802e00 <__alt_mem_onchip_mem+0xff782e00>
  8037bc:	00c00044 	movi	r3,1
  8037c0:	d8c02a15 	stw	r3,168(sp)
  8037c4:	dc401405 	stb	r17,80(sp)
  8037c8:	d8002785 	stb	zero,158(sp)
  8037cc:	003fec06 	br	803780 <__alt_mem_onchip_mem+0xff783780>
  8037d0:	01402074 	movhi	r5,129
  8037d4:	294cea04 	addi	r5,r5,13224
  8037d8:	d9403915 	stw	r5,228(sp)
  8037dc:	d8c02d15 	stw	r3,180(sp)
  8037e0:	1025883a 	mov	r18,r2
  8037e4:	04401e04 	movi	r17,120
  8037e8:	9d84b03a 	or	r2,r19,r22
  8037ec:	1000fc1e 	bne	r2,zero,803be0 <___vfprintf_internal_r+0x11d0>
  8037f0:	0039883a 	mov	fp,zero
  8037f4:	00800084 	movi	r2,2
  8037f8:	10803fcc 	andi	r2,r2,255
  8037fc:	00c00044 	movi	r3,1
  803800:	10c20f26 	beq	r2,r3,804040 <___vfprintf_internal_r+0x1630>
  803804:	00c00084 	movi	r3,2
  803808:	10fd6326 	beq	r2,r3,802d98 <__alt_mem_onchip_mem+0xff782d98>
  80380c:	003e2d06 	br	8030c4 <__alt_mem_onchip_mem+0xff7830c4>
  803810:	d8c02017 	ldw	r3,128(sp)
  803814:	003e9306 	br	803264 <__alt_mem_onchip_mem+0xff783264>
  803818:	00801944 	movi	r2,101
  80381c:	14407e0e 	bge	r2,r17,803a18 <___vfprintf_internal_r+0x1008>
  803820:	d9003617 	ldw	r4,216(sp)
  803824:	d9403817 	ldw	r5,224(sp)
  803828:	000d883a 	mov	r6,zero
  80382c:	000f883a 	mov	r7,zero
  803830:	d8c03c15 	stw	r3,240(sp)
  803834:	da003d15 	stw	r8,244(sp)
  803838:	080dd1c0 	call	80dd1c <__eqdf2>
  80383c:	d8c03c17 	ldw	r3,240(sp)
  803840:	da003d17 	ldw	r8,244(sp)
  803844:	1000f71e 	bne	r2,zero,803c24 <___vfprintf_internal_r+0x1214>
  803848:	d8801f17 	ldw	r2,124(sp)
  80384c:	01002074 	movhi	r4,129
  803850:	210cf104 	addi	r4,r4,13252
  803854:	18c00044 	addi	r3,r3,1
  803858:	10800044 	addi	r2,r2,1
  80385c:	41000015 	stw	r4,0(r8)
  803860:	01000044 	movi	r4,1
  803864:	41000115 	stw	r4,4(r8)
  803868:	d8c02015 	stw	r3,128(sp)
  80386c:	d8801f15 	stw	r2,124(sp)
  803870:	010001c4 	movi	r4,7
  803874:	2082b816 	blt	r4,r2,804358 <___vfprintf_internal_r+0x1948>
  803878:	42000204 	addi	r8,r8,8
  80387c:	d8802617 	ldw	r2,152(sp)
  803880:	d9403317 	ldw	r5,204(sp)
  803884:	11400216 	blt	r2,r5,803890 <___vfprintf_internal_r+0xe80>
  803888:	9080004c 	andi	r2,r18,1
  80388c:	103ed526 	beq	r2,zero,8033e4 <__alt_mem_onchip_mem+0xff7833e4>
  803890:	d8803717 	ldw	r2,220(sp)
  803894:	d9003417 	ldw	r4,208(sp)
  803898:	d9403717 	ldw	r5,220(sp)
  80389c:	1887883a 	add	r3,r3,r2
  8038a0:	d8801f17 	ldw	r2,124(sp)
  8038a4:	41000015 	stw	r4,0(r8)
  8038a8:	41400115 	stw	r5,4(r8)
  8038ac:	10800044 	addi	r2,r2,1
  8038b0:	d8c02015 	stw	r3,128(sp)
  8038b4:	d8801f15 	stw	r2,124(sp)
  8038b8:	010001c4 	movi	r4,7
  8038bc:	20832916 	blt	r4,r2,804564 <___vfprintf_internal_r+0x1b54>
  8038c0:	42000204 	addi	r8,r8,8
  8038c4:	d8803317 	ldw	r2,204(sp)
  8038c8:	143fffc4 	addi	r16,r2,-1
  8038cc:	043ec50e 	bge	zero,r16,8033e4 <__alt_mem_onchip_mem+0xff7833e4>
  8038d0:	04400404 	movi	r17,16
  8038d4:	d8801f17 	ldw	r2,124(sp)
  8038d8:	8c00880e 	bge	r17,r16,803afc <___vfprintf_internal_r+0x10ec>
  8038dc:	01402074 	movhi	r5,129
  8038e0:	294cf184 	addi	r5,r5,13254
  8038e4:	d9402b15 	stw	r5,172(sp)
  8038e8:	058001c4 	movi	r22,7
  8038ec:	dcc02c17 	ldw	r19,176(sp)
  8038f0:	00000306 	br	803900 <___vfprintf_internal_r+0xef0>
  8038f4:	42000204 	addi	r8,r8,8
  8038f8:	843ffc04 	addi	r16,r16,-16
  8038fc:	8c00820e 	bge	r17,r16,803b08 <___vfprintf_internal_r+0x10f8>
  803900:	18c00404 	addi	r3,r3,16
  803904:	10800044 	addi	r2,r2,1
  803908:	45000015 	stw	r20,0(r8)
  80390c:	44400115 	stw	r17,4(r8)
  803910:	d8c02015 	stw	r3,128(sp)
  803914:	d8801f15 	stw	r2,124(sp)
  803918:	b0bff60e 	bge	r22,r2,8038f4 <__alt_mem_onchip_mem+0xff7838f4>
  80391c:	d9801e04 	addi	r6,sp,120
  803920:	b80b883a 	mov	r5,r23
  803924:	9809883a 	mov	r4,r19
  803928:	08095280 	call	809528 <__sprint_r>
  80392c:	103d3a1e 	bne	r2,zero,802e18 <__alt_mem_onchip_mem+0xff782e18>
  803930:	d8c02017 	ldw	r3,128(sp)
  803934:	d8801f17 	ldw	r2,124(sp)
  803938:	da000404 	addi	r8,sp,16
  80393c:	003fee06 	br	8038f8 <__alt_mem_onchip_mem+0xff7838f8>
  803940:	d9403117 	ldw	r5,196(sp)
  803944:	d8802a17 	ldw	r2,168(sp)
  803948:	28adc83a 	sub	r22,r5,r2
  80394c:	05be630e 	bge	zero,r22,8032dc <__alt_mem_onchip_mem+0xff7832dc>
  803950:	07000404 	movi	fp,16
  803954:	d8801f17 	ldw	r2,124(sp)
  803958:	e5838f0e 	bge	fp,r22,804798 <___vfprintf_internal_r+0x1d88>
  80395c:	01402074 	movhi	r5,129
  803960:	294cf184 	addi	r5,r5,13254
  803964:	dc403015 	stw	r17,192(sp)
  803968:	d9402b15 	stw	r5,172(sp)
  80396c:	b023883a 	mov	r17,r22
  803970:	04c001c4 	movi	r19,7
  803974:	a82d883a 	mov	r22,r21
  803978:	902b883a 	mov	r21,r18
  80397c:	8025883a 	mov	r18,r16
  803980:	dc002c17 	ldw	r16,176(sp)
  803984:	00000306 	br	803994 <___vfprintf_internal_r+0xf84>
  803988:	8c7ffc04 	addi	r17,r17,-16
  80398c:	42000204 	addi	r8,r8,8
  803990:	e440110e 	bge	fp,r17,8039d8 <___vfprintf_internal_r+0xfc8>
  803994:	18c00404 	addi	r3,r3,16
  803998:	10800044 	addi	r2,r2,1
  80399c:	45000015 	stw	r20,0(r8)
  8039a0:	47000115 	stw	fp,4(r8)
  8039a4:	d8c02015 	stw	r3,128(sp)
  8039a8:	d8801f15 	stw	r2,124(sp)
  8039ac:	98bff60e 	bge	r19,r2,803988 <__alt_mem_onchip_mem+0xff783988>
  8039b0:	d9801e04 	addi	r6,sp,120
  8039b4:	b80b883a 	mov	r5,r23
  8039b8:	8009883a 	mov	r4,r16
  8039bc:	08095280 	call	809528 <__sprint_r>
  8039c0:	103d151e 	bne	r2,zero,802e18 <__alt_mem_onchip_mem+0xff782e18>
  8039c4:	8c7ffc04 	addi	r17,r17,-16
  8039c8:	d8c02017 	ldw	r3,128(sp)
  8039cc:	d8801f17 	ldw	r2,124(sp)
  8039d0:	da000404 	addi	r8,sp,16
  8039d4:	e47fef16 	blt	fp,r17,803994 <__alt_mem_onchip_mem+0xff783994>
  8039d8:	9021883a 	mov	r16,r18
  8039dc:	a825883a 	mov	r18,r21
  8039e0:	b02b883a 	mov	r21,r22
  8039e4:	882d883a 	mov	r22,r17
  8039e8:	dc403017 	ldw	r17,192(sp)
  8039ec:	d9002b17 	ldw	r4,172(sp)
  8039f0:	1d87883a 	add	r3,r3,r22
  8039f4:	10800044 	addi	r2,r2,1
  8039f8:	41000015 	stw	r4,0(r8)
  8039fc:	45800115 	stw	r22,4(r8)
  803a00:	d8c02015 	stw	r3,128(sp)
  803a04:	d8801f15 	stw	r2,124(sp)
  803a08:	010001c4 	movi	r4,7
  803a0c:	20818e16 	blt	r4,r2,804048 <___vfprintf_internal_r+0x1638>
  803a10:	42000204 	addi	r8,r8,8
  803a14:	003e3106 	br	8032dc <__alt_mem_onchip_mem+0xff7832dc>
  803a18:	d9403317 	ldw	r5,204(sp)
  803a1c:	00800044 	movi	r2,1
  803a20:	18c00044 	addi	r3,r3,1
  803a24:	1141530e 	bge	r2,r5,803f74 <___vfprintf_internal_r+0x1564>
  803a28:	dc401f17 	ldw	r17,124(sp)
  803a2c:	00800044 	movi	r2,1
  803a30:	40800115 	stw	r2,4(r8)
  803a34:	8c400044 	addi	r17,r17,1
  803a38:	44000015 	stw	r16,0(r8)
  803a3c:	d8c02015 	stw	r3,128(sp)
  803a40:	dc401f15 	stw	r17,124(sp)
  803a44:	008001c4 	movi	r2,7
  803a48:	14416b16 	blt	r2,r17,803ff8 <___vfprintf_internal_r+0x15e8>
  803a4c:	42000204 	addi	r8,r8,8
  803a50:	d8803717 	ldw	r2,220(sp)
  803a54:	d9003417 	ldw	r4,208(sp)
  803a58:	8c400044 	addi	r17,r17,1
  803a5c:	10c7883a 	add	r3,r2,r3
  803a60:	40800115 	stw	r2,4(r8)
  803a64:	41000015 	stw	r4,0(r8)
  803a68:	d8c02015 	stw	r3,128(sp)
  803a6c:	dc401f15 	stw	r17,124(sp)
  803a70:	008001c4 	movi	r2,7
  803a74:	14416916 	blt	r2,r17,80401c <___vfprintf_internal_r+0x160c>
  803a78:	45800204 	addi	r22,r8,8
  803a7c:	d9003617 	ldw	r4,216(sp)
  803a80:	d9403817 	ldw	r5,224(sp)
  803a84:	000d883a 	mov	r6,zero
  803a88:	000f883a 	mov	r7,zero
  803a8c:	d8c03c15 	stw	r3,240(sp)
  803a90:	080dd1c0 	call	80dd1c <__eqdf2>
  803a94:	d8c03c17 	ldw	r3,240(sp)
  803a98:	1000bc26 	beq	r2,zero,803d8c <___vfprintf_internal_r+0x137c>
  803a9c:	d9403317 	ldw	r5,204(sp)
  803aa0:	84000044 	addi	r16,r16,1
  803aa4:	8c400044 	addi	r17,r17,1
  803aa8:	28bfffc4 	addi	r2,r5,-1
  803aac:	1887883a 	add	r3,r3,r2
  803ab0:	b0800115 	stw	r2,4(r22)
  803ab4:	b4000015 	stw	r16,0(r22)
  803ab8:	d8c02015 	stw	r3,128(sp)
  803abc:	dc401f15 	stw	r17,124(sp)
  803ac0:	008001c4 	movi	r2,7
  803ac4:	14414316 	blt	r2,r17,803fd4 <___vfprintf_internal_r+0x15c4>
  803ac8:	b5800204 	addi	r22,r22,8
  803acc:	d9003a17 	ldw	r4,232(sp)
  803ad0:	df0022c4 	addi	fp,sp,139
  803ad4:	8c400044 	addi	r17,r17,1
  803ad8:	20c7883a 	add	r3,r4,r3
  803adc:	b7000015 	stw	fp,0(r22)
  803ae0:	b1000115 	stw	r4,4(r22)
  803ae4:	d8c02015 	stw	r3,128(sp)
  803ae8:	dc401f15 	stw	r17,124(sp)
  803aec:	008001c4 	movi	r2,7
  803af0:	14400e16 	blt	r2,r17,803b2c <___vfprintf_internal_r+0x111c>
  803af4:	b2000204 	addi	r8,r22,8
  803af8:	003e3a06 	br	8033e4 <__alt_mem_onchip_mem+0xff7833e4>
  803afc:	01002074 	movhi	r4,129
  803b00:	210cf184 	addi	r4,r4,13254
  803b04:	d9002b15 	stw	r4,172(sp)
  803b08:	d9002b17 	ldw	r4,172(sp)
  803b0c:	1c07883a 	add	r3,r3,r16
  803b10:	44000115 	stw	r16,4(r8)
  803b14:	41000015 	stw	r4,0(r8)
  803b18:	10800044 	addi	r2,r2,1
  803b1c:	d8c02015 	stw	r3,128(sp)
  803b20:	d8801f15 	stw	r2,124(sp)
  803b24:	010001c4 	movi	r4,7
  803b28:	20be2d0e 	bge	r4,r2,8033e0 <__alt_mem_onchip_mem+0xff7833e0>
  803b2c:	d9002c17 	ldw	r4,176(sp)
  803b30:	d9801e04 	addi	r6,sp,120
  803b34:	b80b883a 	mov	r5,r23
  803b38:	08095280 	call	809528 <__sprint_r>
  803b3c:	103cb61e 	bne	r2,zero,802e18 <__alt_mem_onchip_mem+0xff782e18>
  803b40:	d8c02017 	ldw	r3,128(sp)
  803b44:	da000404 	addi	r8,sp,16
  803b48:	003e2606 	br	8033e4 <__alt_mem_onchip_mem+0xff7833e4>
  803b4c:	d9002c17 	ldw	r4,176(sp)
  803b50:	d9801e04 	addi	r6,sp,120
  803b54:	b80b883a 	mov	r5,r23
  803b58:	08095280 	call	809528 <__sprint_r>
  803b5c:	103e5d26 	beq	r2,zero,8034d4 <__alt_mem_onchip_mem+0xff7834d4>
  803b60:	003cad06 	br	802e18 <__alt_mem_onchip_mem+0xff782e18>
  803b64:	d9002c17 	ldw	r4,176(sp)
  803b68:	d9801e04 	addi	r6,sp,120
  803b6c:	b80b883a 	mov	r5,r23
  803b70:	08095280 	call	809528 <__sprint_r>
  803b74:	103ca81e 	bne	r2,zero,802e18 <__alt_mem_onchip_mem+0xff782e18>
  803b78:	d8c02017 	ldw	r3,128(sp)
  803b7c:	da000404 	addi	r8,sp,16
  803b80:	003e0b06 	br	8033b0 <__alt_mem_onchip_mem+0xff7833b0>
  803b84:	d9002c17 	ldw	r4,176(sp)
  803b88:	d9801e04 	addi	r6,sp,120
  803b8c:	b80b883a 	mov	r5,r23
  803b90:	08095280 	call	809528 <__sprint_r>
  803b94:	103ca01e 	bne	r2,zero,802e18 <__alt_mem_onchip_mem+0xff782e18>
  803b98:	d8c02017 	ldw	r3,128(sp)
  803b9c:	da000404 	addi	r8,sp,16
  803ba0:	003dbd06 	br	803298 <__alt_mem_onchip_mem+0xff783298>
  803ba4:	d9002c17 	ldw	r4,176(sp)
  803ba8:	d9801e04 	addi	r6,sp,120
  803bac:	b80b883a 	mov	r5,r23
  803bb0:	08095280 	call	809528 <__sprint_r>
  803bb4:	103c981e 	bne	r2,zero,802e18 <__alt_mem_onchip_mem+0xff782e18>
  803bb8:	d8c02017 	ldw	r3,128(sp)
  803bbc:	da000404 	addi	r8,sp,16
  803bc0:	003dc306 	br	8032d0 <__alt_mem_onchip_mem+0xff7832d0>
  803bc4:	d8802917 	ldw	r2,164(sp)
  803bc8:	d8002785 	stb	zero,158(sp)
  803bcc:	103f0616 	blt	r2,zero,8037e8 <__alt_mem_onchip_mem+0xff7837e8>
  803bd0:	00ffdfc4 	movi	r3,-129
  803bd4:	9d84b03a 	or	r2,r19,r22
  803bd8:	90e4703a 	and	r18,r18,r3
  803bdc:	103c6b26 	beq	r2,zero,802d8c <__alt_mem_onchip_mem+0xff782d8c>
  803be0:	0039883a 	mov	fp,zero
  803be4:	003e7406 	br	8035b8 <__alt_mem_onchip_mem+0xff7835b8>
  803be8:	9080040c 	andi	r2,r18,16
  803bec:	1001b326 	beq	r2,zero,8042bc <___vfprintf_internal_r+0x18ac>
  803bf0:	d9002d17 	ldw	r4,180(sp)
  803bf4:	d9402917 	ldw	r5,164(sp)
  803bf8:	d8002785 	stb	zero,158(sp)
  803bfc:	20800104 	addi	r2,r4,4
  803c00:	24c00017 	ldw	r19,0(r4)
  803c04:	002d883a 	mov	r22,zero
  803c08:	2801b516 	blt	r5,zero,8042e0 <___vfprintf_internal_r+0x18d0>
  803c0c:	00ffdfc4 	movi	r3,-129
  803c10:	d8802d15 	stw	r2,180(sp)
  803c14:	90e4703a 	and	r18,r18,r3
  803c18:	983d2726 	beq	r19,zero,8030b8 <__alt_mem_onchip_mem+0xff7830b8>
  803c1c:	0039883a 	mov	fp,zero
  803c20:	003d2a06 	br	8030cc <__alt_mem_onchip_mem+0xff7830cc>
  803c24:	dc402617 	ldw	r17,152(sp)
  803c28:	0441d30e 	bge	zero,r17,804378 <___vfprintf_internal_r+0x1968>
  803c2c:	dc403217 	ldw	r17,200(sp)
  803c30:	d8803317 	ldw	r2,204(sp)
  803c34:	1440010e 	bge	r2,r17,803c3c <___vfprintf_internal_r+0x122c>
  803c38:	1023883a 	mov	r17,r2
  803c3c:	04400a0e 	bge	zero,r17,803c68 <___vfprintf_internal_r+0x1258>
  803c40:	d8801f17 	ldw	r2,124(sp)
  803c44:	1c47883a 	add	r3,r3,r17
  803c48:	44000015 	stw	r16,0(r8)
  803c4c:	10800044 	addi	r2,r2,1
  803c50:	44400115 	stw	r17,4(r8)
  803c54:	d8c02015 	stw	r3,128(sp)
  803c58:	d8801f15 	stw	r2,124(sp)
  803c5c:	010001c4 	movi	r4,7
  803c60:	20826516 	blt	r4,r2,8045f8 <___vfprintf_internal_r+0x1be8>
  803c64:	42000204 	addi	r8,r8,8
  803c68:	88026116 	blt	r17,zero,8045f0 <___vfprintf_internal_r+0x1be0>
  803c6c:	d9003217 	ldw	r4,200(sp)
  803c70:	2463c83a 	sub	r17,r4,r17
  803c74:	04407b0e 	bge	zero,r17,803e64 <___vfprintf_internal_r+0x1454>
  803c78:	05800404 	movi	r22,16
  803c7c:	d8801f17 	ldw	r2,124(sp)
  803c80:	b4419d0e 	bge	r22,r17,8042f8 <___vfprintf_internal_r+0x18e8>
  803c84:	01002074 	movhi	r4,129
  803c88:	210cf184 	addi	r4,r4,13254
  803c8c:	d9002b15 	stw	r4,172(sp)
  803c90:	070001c4 	movi	fp,7
  803c94:	dcc02c17 	ldw	r19,176(sp)
  803c98:	00000306 	br	803ca8 <___vfprintf_internal_r+0x1298>
  803c9c:	42000204 	addi	r8,r8,8
  803ca0:	8c7ffc04 	addi	r17,r17,-16
  803ca4:	b441970e 	bge	r22,r17,804304 <___vfprintf_internal_r+0x18f4>
  803ca8:	18c00404 	addi	r3,r3,16
  803cac:	10800044 	addi	r2,r2,1
  803cb0:	45000015 	stw	r20,0(r8)
  803cb4:	45800115 	stw	r22,4(r8)
  803cb8:	d8c02015 	stw	r3,128(sp)
  803cbc:	d8801f15 	stw	r2,124(sp)
  803cc0:	e0bff60e 	bge	fp,r2,803c9c <__alt_mem_onchip_mem+0xff783c9c>
  803cc4:	d9801e04 	addi	r6,sp,120
  803cc8:	b80b883a 	mov	r5,r23
  803ccc:	9809883a 	mov	r4,r19
  803cd0:	08095280 	call	809528 <__sprint_r>
  803cd4:	103c501e 	bne	r2,zero,802e18 <__alt_mem_onchip_mem+0xff782e18>
  803cd8:	d8c02017 	ldw	r3,128(sp)
  803cdc:	d8801f17 	ldw	r2,124(sp)
  803ce0:	da000404 	addi	r8,sp,16
  803ce4:	003fee06 	br	803ca0 <__alt_mem_onchip_mem+0xff783ca0>
  803ce8:	d9002c17 	ldw	r4,176(sp)
  803cec:	d9801e04 	addi	r6,sp,120
  803cf0:	b80b883a 	mov	r5,r23
  803cf4:	08095280 	call	809528 <__sprint_r>
  803cf8:	103c471e 	bne	r2,zero,802e18 <__alt_mem_onchip_mem+0xff782e18>
  803cfc:	d8c02017 	ldw	r3,128(sp)
  803d00:	df002787 	ldb	fp,158(sp)
  803d04:	da000404 	addi	r8,sp,16
  803d08:	003d5606 	br	803264 <__alt_mem_onchip_mem+0xff783264>
  803d0c:	9080040c 	andi	r2,r18,16
  803d10:	10016126 	beq	r2,zero,804298 <___vfprintf_internal_r+0x1888>
  803d14:	d8802d17 	ldw	r2,180(sp)
  803d18:	14c00017 	ldw	r19,0(r2)
  803d1c:	10800104 	addi	r2,r2,4
  803d20:	d8802d15 	stw	r2,180(sp)
  803d24:	982dd7fa 	srai	r22,r19,31
  803d28:	b005883a 	mov	r2,r22
  803d2c:	003c8206 	br	802f38 <__alt_mem_onchip_mem+0xff782f38>
  803d30:	9080040c 	andi	r2,r18,16
  803d34:	10003526 	beq	r2,zero,803e0c <___vfprintf_internal_r+0x13fc>
  803d38:	d9402d17 	ldw	r5,180(sp)
  803d3c:	d8c02917 	ldw	r3,164(sp)
  803d40:	d8002785 	stb	zero,158(sp)
  803d44:	28800104 	addi	r2,r5,4
  803d48:	2cc00017 	ldw	r19,0(r5)
  803d4c:	002d883a 	mov	r22,zero
  803d50:	18003716 	blt	r3,zero,803e30 <___vfprintf_internal_r+0x1420>
  803d54:	00ffdfc4 	movi	r3,-129
  803d58:	d8802d15 	stw	r2,180(sp)
  803d5c:	90e4703a 	and	r18,r18,r3
  803d60:	0039883a 	mov	fp,zero
  803d64:	983df326 	beq	r19,zero,803534 <__alt_mem_onchip_mem+0xff783534>
  803d68:	00800244 	movi	r2,9
  803d6c:	14fc7b36 	bltu	r2,r19,802f5c <__alt_mem_onchip_mem+0xff782f5c>
  803d70:	d8c02817 	ldw	r3,160(sp)
  803d74:	dc001dc4 	addi	r16,sp,119
  803d78:	9cc00c04 	addi	r19,r19,48
  803d7c:	1c07c83a 	sub	r3,r3,r16
  803d80:	dcc01dc5 	stb	r19,119(sp)
  803d84:	d8c02e15 	stw	r3,184(sp)
  803d88:	003ce806 	br	80312c <__alt_mem_onchip_mem+0xff78312c>
  803d8c:	d8803317 	ldw	r2,204(sp)
  803d90:	143fffc4 	addi	r16,r2,-1
  803d94:	043f4d0e 	bge	zero,r16,803acc <__alt_mem_onchip_mem+0xff783acc>
  803d98:	07000404 	movi	fp,16
  803d9c:	e400810e 	bge	fp,r16,803fa4 <___vfprintf_internal_r+0x1594>
  803da0:	01402074 	movhi	r5,129
  803da4:	294cf184 	addi	r5,r5,13254
  803da8:	d9402b15 	stw	r5,172(sp)
  803dac:	01c001c4 	movi	r7,7
  803db0:	dcc02c17 	ldw	r19,176(sp)
  803db4:	00000306 	br	803dc4 <___vfprintf_internal_r+0x13b4>
  803db8:	b5800204 	addi	r22,r22,8
  803dbc:	843ffc04 	addi	r16,r16,-16
  803dc0:	e4007b0e 	bge	fp,r16,803fb0 <___vfprintf_internal_r+0x15a0>
  803dc4:	18c00404 	addi	r3,r3,16
  803dc8:	8c400044 	addi	r17,r17,1
  803dcc:	b5000015 	stw	r20,0(r22)
  803dd0:	b7000115 	stw	fp,4(r22)
  803dd4:	d8c02015 	stw	r3,128(sp)
  803dd8:	dc401f15 	stw	r17,124(sp)
  803ddc:	3c7ff60e 	bge	r7,r17,803db8 <__alt_mem_onchip_mem+0xff783db8>
  803de0:	d9801e04 	addi	r6,sp,120
  803de4:	b80b883a 	mov	r5,r23
  803de8:	9809883a 	mov	r4,r19
  803dec:	d9c03c15 	stw	r7,240(sp)
  803df0:	08095280 	call	809528 <__sprint_r>
  803df4:	d9c03c17 	ldw	r7,240(sp)
  803df8:	103c071e 	bne	r2,zero,802e18 <__alt_mem_onchip_mem+0xff782e18>
  803dfc:	d8c02017 	ldw	r3,128(sp)
  803e00:	dc401f17 	ldw	r17,124(sp)
  803e04:	dd800404 	addi	r22,sp,16
  803e08:	003fec06 	br	803dbc <__alt_mem_onchip_mem+0xff783dbc>
  803e0c:	9080100c 	andi	r2,r18,64
  803e10:	d8002785 	stb	zero,158(sp)
  803e14:	10010e26 	beq	r2,zero,804250 <___vfprintf_internal_r+0x1840>
  803e18:	d9002d17 	ldw	r4,180(sp)
  803e1c:	d9402917 	ldw	r5,164(sp)
  803e20:	002d883a 	mov	r22,zero
  803e24:	20800104 	addi	r2,r4,4
  803e28:	24c0000b 	ldhu	r19,0(r4)
  803e2c:	283fc90e 	bge	r5,zero,803d54 <__alt_mem_onchip_mem+0xff783d54>
  803e30:	d8802d15 	stw	r2,180(sp)
  803e34:	0039883a 	mov	fp,zero
  803e38:	9d84b03a 	or	r2,r19,r22
  803e3c:	103c461e 	bne	r2,zero,802f58 <__alt_mem_onchip_mem+0xff782f58>
  803e40:	00800044 	movi	r2,1
  803e44:	003e6c06 	br	8037f8 <__alt_mem_onchip_mem+0xff7837f8>
  803e48:	d9002c17 	ldw	r4,176(sp)
  803e4c:	d9801e04 	addi	r6,sp,120
  803e50:	b80b883a 	mov	r5,r23
  803e54:	08095280 	call	809528 <__sprint_r>
  803e58:	103bef1e 	bne	r2,zero,802e18 <__alt_mem_onchip_mem+0xff782e18>
  803e5c:	d8c02017 	ldw	r3,128(sp)
  803e60:	da000404 	addi	r8,sp,16
  803e64:	d9003217 	ldw	r4,200(sp)
  803e68:	d8802617 	ldw	r2,152(sp)
  803e6c:	d9403317 	ldw	r5,204(sp)
  803e70:	8123883a 	add	r17,r16,r4
  803e74:	11400216 	blt	r2,r5,803e80 <___vfprintf_internal_r+0x1470>
  803e78:	9100004c 	andi	r4,r18,1
  803e7c:	20000d26 	beq	r4,zero,803eb4 <___vfprintf_internal_r+0x14a4>
  803e80:	d9003717 	ldw	r4,220(sp)
  803e84:	d9403417 	ldw	r5,208(sp)
  803e88:	1907883a 	add	r3,r3,r4
  803e8c:	d9001f17 	ldw	r4,124(sp)
  803e90:	41400015 	stw	r5,0(r8)
  803e94:	d9403717 	ldw	r5,220(sp)
  803e98:	21000044 	addi	r4,r4,1
  803e9c:	d8c02015 	stw	r3,128(sp)
  803ea0:	41400115 	stw	r5,4(r8)
  803ea4:	d9001f15 	stw	r4,124(sp)
  803ea8:	014001c4 	movi	r5,7
  803eac:	2901e816 	blt	r5,r4,804650 <___vfprintf_internal_r+0x1c40>
  803eb0:	42000204 	addi	r8,r8,8
  803eb4:	d9003317 	ldw	r4,204(sp)
  803eb8:	8121883a 	add	r16,r16,r4
  803ebc:	2085c83a 	sub	r2,r4,r2
  803ec0:	8461c83a 	sub	r16,r16,r17
  803ec4:	1400010e 	bge	r2,r16,803ecc <___vfprintf_internal_r+0x14bc>
  803ec8:	1021883a 	mov	r16,r2
  803ecc:	04000a0e 	bge	zero,r16,803ef8 <___vfprintf_internal_r+0x14e8>
  803ed0:	d9001f17 	ldw	r4,124(sp)
  803ed4:	1c07883a 	add	r3,r3,r16
  803ed8:	44400015 	stw	r17,0(r8)
  803edc:	21000044 	addi	r4,r4,1
  803ee0:	44000115 	stw	r16,4(r8)
  803ee4:	d8c02015 	stw	r3,128(sp)
  803ee8:	d9001f15 	stw	r4,124(sp)
  803eec:	014001c4 	movi	r5,7
  803ef0:	2901fb16 	blt	r5,r4,8046e0 <___vfprintf_internal_r+0x1cd0>
  803ef4:	42000204 	addi	r8,r8,8
  803ef8:	8001f716 	blt	r16,zero,8046d8 <___vfprintf_internal_r+0x1cc8>
  803efc:	1421c83a 	sub	r16,r2,r16
  803f00:	043d380e 	bge	zero,r16,8033e4 <__alt_mem_onchip_mem+0xff7833e4>
  803f04:	04400404 	movi	r17,16
  803f08:	d8801f17 	ldw	r2,124(sp)
  803f0c:	8c3efb0e 	bge	r17,r16,803afc <__alt_mem_onchip_mem+0xff783afc>
  803f10:	01402074 	movhi	r5,129
  803f14:	294cf184 	addi	r5,r5,13254
  803f18:	d9402b15 	stw	r5,172(sp)
  803f1c:	058001c4 	movi	r22,7
  803f20:	dcc02c17 	ldw	r19,176(sp)
  803f24:	00000306 	br	803f34 <___vfprintf_internal_r+0x1524>
  803f28:	42000204 	addi	r8,r8,8
  803f2c:	843ffc04 	addi	r16,r16,-16
  803f30:	8c3ef50e 	bge	r17,r16,803b08 <__alt_mem_onchip_mem+0xff783b08>
  803f34:	18c00404 	addi	r3,r3,16
  803f38:	10800044 	addi	r2,r2,1
  803f3c:	45000015 	stw	r20,0(r8)
  803f40:	44400115 	stw	r17,4(r8)
  803f44:	d8c02015 	stw	r3,128(sp)
  803f48:	d8801f15 	stw	r2,124(sp)
  803f4c:	b0bff60e 	bge	r22,r2,803f28 <__alt_mem_onchip_mem+0xff783f28>
  803f50:	d9801e04 	addi	r6,sp,120
  803f54:	b80b883a 	mov	r5,r23
  803f58:	9809883a 	mov	r4,r19
  803f5c:	08095280 	call	809528 <__sprint_r>
  803f60:	103bad1e 	bne	r2,zero,802e18 <__alt_mem_onchip_mem+0xff782e18>
  803f64:	d8c02017 	ldw	r3,128(sp)
  803f68:	d8801f17 	ldw	r2,124(sp)
  803f6c:	da000404 	addi	r8,sp,16
  803f70:	003fee06 	br	803f2c <__alt_mem_onchip_mem+0xff783f2c>
  803f74:	9088703a 	and	r4,r18,r2
  803f78:	203eab1e 	bne	r4,zero,803a28 <__alt_mem_onchip_mem+0xff783a28>
  803f7c:	dc401f17 	ldw	r17,124(sp)
  803f80:	40800115 	stw	r2,4(r8)
  803f84:	44000015 	stw	r16,0(r8)
  803f88:	8c400044 	addi	r17,r17,1
  803f8c:	d8c02015 	stw	r3,128(sp)
  803f90:	dc401f15 	stw	r17,124(sp)
  803f94:	008001c4 	movi	r2,7
  803f98:	14400e16 	blt	r2,r17,803fd4 <___vfprintf_internal_r+0x15c4>
  803f9c:	45800204 	addi	r22,r8,8
  803fa0:	003eca06 	br	803acc <__alt_mem_onchip_mem+0xff783acc>
  803fa4:	01002074 	movhi	r4,129
  803fa8:	210cf184 	addi	r4,r4,13254
  803fac:	d9002b15 	stw	r4,172(sp)
  803fb0:	d8802b17 	ldw	r2,172(sp)
  803fb4:	1c07883a 	add	r3,r3,r16
  803fb8:	8c400044 	addi	r17,r17,1
  803fbc:	b0800015 	stw	r2,0(r22)
  803fc0:	b4000115 	stw	r16,4(r22)
  803fc4:	d8c02015 	stw	r3,128(sp)
  803fc8:	dc401f15 	stw	r17,124(sp)
  803fcc:	008001c4 	movi	r2,7
  803fd0:	147ebd0e 	bge	r2,r17,803ac8 <__alt_mem_onchip_mem+0xff783ac8>
  803fd4:	d9002c17 	ldw	r4,176(sp)
  803fd8:	d9801e04 	addi	r6,sp,120
  803fdc:	b80b883a 	mov	r5,r23
  803fe0:	08095280 	call	809528 <__sprint_r>
  803fe4:	103b8c1e 	bne	r2,zero,802e18 <__alt_mem_onchip_mem+0xff782e18>
  803fe8:	d8c02017 	ldw	r3,128(sp)
  803fec:	dc401f17 	ldw	r17,124(sp)
  803ff0:	dd800404 	addi	r22,sp,16
  803ff4:	003eb506 	br	803acc <__alt_mem_onchip_mem+0xff783acc>
  803ff8:	d9002c17 	ldw	r4,176(sp)
  803ffc:	d9801e04 	addi	r6,sp,120
  804000:	b80b883a 	mov	r5,r23
  804004:	08095280 	call	809528 <__sprint_r>
  804008:	103b831e 	bne	r2,zero,802e18 <__alt_mem_onchip_mem+0xff782e18>
  80400c:	d8c02017 	ldw	r3,128(sp)
  804010:	dc401f17 	ldw	r17,124(sp)
  804014:	da000404 	addi	r8,sp,16
  804018:	003e8d06 	br	803a50 <__alt_mem_onchip_mem+0xff783a50>
  80401c:	d9002c17 	ldw	r4,176(sp)
  804020:	d9801e04 	addi	r6,sp,120
  804024:	b80b883a 	mov	r5,r23
  804028:	08095280 	call	809528 <__sprint_r>
  80402c:	103b7a1e 	bne	r2,zero,802e18 <__alt_mem_onchip_mem+0xff782e18>
  804030:	d8c02017 	ldw	r3,128(sp)
  804034:	dc401f17 	ldw	r17,124(sp)
  804038:	dd800404 	addi	r22,sp,16
  80403c:	003e8f06 	br	803a7c <__alt_mem_onchip_mem+0xff783a7c>
  804040:	0027883a 	mov	r19,zero
  804044:	003f4a06 	br	803d70 <__alt_mem_onchip_mem+0xff783d70>
  804048:	d9002c17 	ldw	r4,176(sp)
  80404c:	d9801e04 	addi	r6,sp,120
  804050:	b80b883a 	mov	r5,r23
  804054:	08095280 	call	809528 <__sprint_r>
  804058:	103b6f1e 	bne	r2,zero,802e18 <__alt_mem_onchip_mem+0xff782e18>
  80405c:	d8c02017 	ldw	r3,128(sp)
  804060:	da000404 	addi	r8,sp,16
  804064:	003c9d06 	br	8032dc <__alt_mem_onchip_mem+0xff7832dc>
  804068:	04e7c83a 	sub	r19,zero,r19
  80406c:	9804c03a 	cmpne	r2,r19,zero
  804070:	05adc83a 	sub	r22,zero,r22
  804074:	b0adc83a 	sub	r22,r22,r2
  804078:	d8802917 	ldw	r2,164(sp)
  80407c:	07000b44 	movi	fp,45
  804080:	df002785 	stb	fp,158(sp)
  804084:	10017b16 	blt	r2,zero,804674 <___vfprintf_internal_r+0x1c64>
  804088:	00bfdfc4 	movi	r2,-129
  80408c:	90a4703a 	and	r18,r18,r2
  804090:	003bb106 	br	802f58 <__alt_mem_onchip_mem+0xff782f58>
  804094:	d9003617 	ldw	r4,216(sp)
  804098:	d9403817 	ldw	r5,224(sp)
  80409c:	da003d15 	stw	r8,244(sp)
  8040a0:	08090b40 	call	8090b4 <__fpclassifyd>
  8040a4:	da003d17 	ldw	r8,244(sp)
  8040a8:	1000f026 	beq	r2,zero,80446c <___vfprintf_internal_r+0x1a5c>
  8040ac:	d9002917 	ldw	r4,164(sp)
  8040b0:	05bff7c4 	movi	r22,-33
  8040b4:	00bfffc4 	movi	r2,-1
  8040b8:	8dac703a 	and	r22,r17,r22
  8040bc:	20820026 	beq	r4,r2,8048c0 <___vfprintf_internal_r+0x1eb0>
  8040c0:	008011c4 	movi	r2,71
  8040c4:	b081f726 	beq	r22,r2,8048a4 <___vfprintf_internal_r+0x1e94>
  8040c8:	d9003817 	ldw	r4,224(sp)
  8040cc:	90c04014 	ori	r3,r18,256
  8040d0:	d8c02b15 	stw	r3,172(sp)
  8040d4:	20021516 	blt	r4,zero,80492c <___vfprintf_internal_r+0x1f1c>
  8040d8:	dcc03817 	ldw	r19,224(sp)
  8040dc:	d8002a05 	stb	zero,168(sp)
  8040e0:	00801984 	movi	r2,102
  8040e4:	8881f926 	beq	r17,r2,8048cc <___vfprintf_internal_r+0x1ebc>
  8040e8:	00801184 	movi	r2,70
  8040ec:	88821c26 	beq	r17,r2,804960 <___vfprintf_internal_r+0x1f50>
  8040f0:	00801144 	movi	r2,69
  8040f4:	b081ef26 	beq	r22,r2,8048b4 <___vfprintf_internal_r+0x1ea4>
  8040f8:	d8c02917 	ldw	r3,164(sp)
  8040fc:	d8802104 	addi	r2,sp,132
  804100:	d8800315 	stw	r2,12(sp)
  804104:	d9403617 	ldw	r5,216(sp)
  804108:	d8802504 	addi	r2,sp,148
  80410c:	d9002c17 	ldw	r4,176(sp)
  804110:	d8800215 	stw	r2,8(sp)
  804114:	d8802604 	addi	r2,sp,152
  804118:	d8c00015 	stw	r3,0(sp)
  80411c:	d8800115 	stw	r2,4(sp)
  804120:	01c00084 	movi	r7,2
  804124:	980d883a 	mov	r6,r19
  804128:	d8c03c15 	stw	r3,240(sp)
  80412c:	da003d15 	stw	r8,244(sp)
  804130:	08050340 	call	805034 <_dtoa_r>
  804134:	1021883a 	mov	r16,r2
  804138:	008019c4 	movi	r2,103
  80413c:	d8c03c17 	ldw	r3,240(sp)
  804140:	da003d17 	ldw	r8,244(sp)
  804144:	88817126 	beq	r17,r2,80470c <___vfprintf_internal_r+0x1cfc>
  804148:	008011c4 	movi	r2,71
  80414c:	88829226 	beq	r17,r2,804b98 <___vfprintf_internal_r+0x2188>
  804150:	80f9883a 	add	fp,r16,r3
  804154:	d9003617 	ldw	r4,216(sp)
  804158:	000d883a 	mov	r6,zero
  80415c:	000f883a 	mov	r7,zero
  804160:	980b883a 	mov	r5,r19
  804164:	da003d15 	stw	r8,244(sp)
  804168:	080dd1c0 	call	80dd1c <__eqdf2>
  80416c:	da003d17 	ldw	r8,244(sp)
  804170:	10018d26 	beq	r2,zero,8047a8 <___vfprintf_internal_r+0x1d98>
  804174:	d8802117 	ldw	r2,132(sp)
  804178:	1700062e 	bgeu	r2,fp,804194 <___vfprintf_internal_r+0x1784>
  80417c:	01000c04 	movi	r4,48
  804180:	10c00044 	addi	r3,r2,1
  804184:	d8c02115 	stw	r3,132(sp)
  804188:	11000005 	stb	r4,0(r2)
  80418c:	d8802117 	ldw	r2,132(sp)
  804190:	173ffb36 	bltu	r2,fp,804180 <__alt_mem_onchip_mem+0xff784180>
  804194:	1405c83a 	sub	r2,r2,r16
  804198:	d8803315 	stw	r2,204(sp)
  80419c:	008011c4 	movi	r2,71
  8041a0:	b0817626 	beq	r22,r2,80477c <___vfprintf_internal_r+0x1d6c>
  8041a4:	00801944 	movi	r2,101
  8041a8:	1442810e 	bge	r2,r17,804bb0 <___vfprintf_internal_r+0x21a0>
  8041ac:	d8c02617 	ldw	r3,152(sp)
  8041b0:	00801984 	movi	r2,102
  8041b4:	d8c03215 	stw	r3,200(sp)
  8041b8:	8881fe26 	beq	r17,r2,8049b4 <___vfprintf_internal_r+0x1fa4>
  8041bc:	d8c03217 	ldw	r3,200(sp)
  8041c0:	d9003317 	ldw	r4,204(sp)
  8041c4:	1901dd16 	blt	r3,r4,80493c <___vfprintf_internal_r+0x1f2c>
  8041c8:	9480004c 	andi	r18,r18,1
  8041cc:	90022b1e 	bne	r18,zero,804a7c <___vfprintf_internal_r+0x206c>
  8041d0:	1805883a 	mov	r2,r3
  8041d4:	18028016 	blt	r3,zero,804bd8 <___vfprintf_internal_r+0x21c8>
  8041d8:	d8c03217 	ldw	r3,200(sp)
  8041dc:	044019c4 	movi	r17,103
  8041e0:	d8c02e15 	stw	r3,184(sp)
  8041e4:	df002a07 	ldb	fp,168(sp)
  8041e8:	e001531e 	bne	fp,zero,804738 <___vfprintf_internal_r+0x1d28>
  8041ec:	df002783 	ldbu	fp,158(sp)
  8041f0:	d8802a15 	stw	r2,168(sp)
  8041f4:	dc802b17 	ldw	r18,172(sp)
  8041f8:	d8002915 	stw	zero,164(sp)
  8041fc:	003bd106 	br	803144 <__alt_mem_onchip_mem+0xff783144>
  804200:	d8802d17 	ldw	r2,180(sp)
  804204:	d8c02d17 	ldw	r3,180(sp)
  804208:	d9002d17 	ldw	r4,180(sp)
  80420c:	10800017 	ldw	r2,0(r2)
  804210:	18c00117 	ldw	r3,4(r3)
  804214:	21000204 	addi	r4,r4,8
  804218:	d8803615 	stw	r2,216(sp)
  80421c:	d8c03815 	stw	r3,224(sp)
  804220:	d9002d15 	stw	r4,180(sp)
  804224:	003b7506 	br	802ffc <__alt_mem_onchip_mem+0xff782ffc>
  804228:	ac400007 	ldb	r17,0(r21)
  80422c:	003a5906 	br	802b94 <__alt_mem_onchip_mem+0xff782b94>
  804230:	9080100c 	andi	r2,r18,64
  804234:	1000a826 	beq	r2,zero,8044d8 <___vfprintf_internal_r+0x1ac8>
  804238:	d9002d17 	ldw	r4,180(sp)
  80423c:	002d883a 	mov	r22,zero
  804240:	24c0000b 	ldhu	r19,0(r4)
  804244:	21000104 	addi	r4,r4,4
  804248:	d9002d15 	stw	r4,180(sp)
  80424c:	003ccb06 	br	80357c <__alt_mem_onchip_mem+0xff78357c>
  804250:	d8c02d17 	ldw	r3,180(sp)
  804254:	d9002917 	ldw	r4,164(sp)
  804258:	002d883a 	mov	r22,zero
  80425c:	18800104 	addi	r2,r3,4
  804260:	1cc00017 	ldw	r19,0(r3)
  804264:	203ebb0e 	bge	r4,zero,803d54 <__alt_mem_onchip_mem+0xff783d54>
  804268:	003ef106 	br	803e30 <__alt_mem_onchip_mem+0xff783e30>
  80426c:	9080040c 	andi	r2,r18,16
  804270:	1000921e 	bne	r2,zero,8044bc <___vfprintf_internal_r+0x1aac>
  804274:	9480100c 	andi	r18,r18,64
  804278:	90013926 	beq	r18,zero,804760 <___vfprintf_internal_r+0x1d50>
  80427c:	d9002d17 	ldw	r4,180(sp)
  804280:	d9402f17 	ldw	r5,188(sp)
  804284:	20800017 	ldw	r2,0(r4)
  804288:	21000104 	addi	r4,r4,4
  80428c:	d9002d15 	stw	r4,180(sp)
  804290:	1140000d 	sth	r5,0(r2)
  804294:	003a1606 	br	802af0 <__alt_mem_onchip_mem+0xff782af0>
  804298:	9080100c 	andi	r2,r18,64
  80429c:	10008026 	beq	r2,zero,8044a0 <___vfprintf_internal_r+0x1a90>
  8042a0:	d8c02d17 	ldw	r3,180(sp)
  8042a4:	1cc0000f 	ldh	r19,0(r3)
  8042a8:	18c00104 	addi	r3,r3,4
  8042ac:	d8c02d15 	stw	r3,180(sp)
  8042b0:	982dd7fa 	srai	r22,r19,31
  8042b4:	b005883a 	mov	r2,r22
  8042b8:	003b1f06 	br	802f38 <__alt_mem_onchip_mem+0xff782f38>
  8042bc:	9080100c 	andi	r2,r18,64
  8042c0:	d8002785 	stb	zero,158(sp)
  8042c4:	10008a1e 	bne	r2,zero,8044f0 <___vfprintf_internal_r+0x1ae0>
  8042c8:	d9402d17 	ldw	r5,180(sp)
  8042cc:	d8c02917 	ldw	r3,164(sp)
  8042d0:	002d883a 	mov	r22,zero
  8042d4:	28800104 	addi	r2,r5,4
  8042d8:	2cc00017 	ldw	r19,0(r5)
  8042dc:	183e4b0e 	bge	r3,zero,803c0c <__alt_mem_onchip_mem+0xff783c0c>
  8042e0:	9d86b03a 	or	r3,r19,r22
  8042e4:	d8802d15 	stw	r2,180(sp)
  8042e8:	183e4c1e 	bne	r3,zero,803c1c <__alt_mem_onchip_mem+0xff783c1c>
  8042ec:	0039883a 	mov	fp,zero
  8042f0:	0005883a 	mov	r2,zero
  8042f4:	003d4006 	br	8037f8 <__alt_mem_onchip_mem+0xff7837f8>
  8042f8:	01402074 	movhi	r5,129
  8042fc:	294cf184 	addi	r5,r5,13254
  804300:	d9402b15 	stw	r5,172(sp)
  804304:	d9402b17 	ldw	r5,172(sp)
  804308:	1c47883a 	add	r3,r3,r17
  80430c:	10800044 	addi	r2,r2,1
  804310:	41400015 	stw	r5,0(r8)
  804314:	44400115 	stw	r17,4(r8)
  804318:	d8c02015 	stw	r3,128(sp)
  80431c:	d8801f15 	stw	r2,124(sp)
  804320:	010001c4 	movi	r4,7
  804324:	20bec816 	blt	r4,r2,803e48 <__alt_mem_onchip_mem+0xff783e48>
  804328:	42000204 	addi	r8,r8,8
  80432c:	003ecd06 	br	803e64 <__alt_mem_onchip_mem+0xff783e64>
  804330:	d9002917 	ldw	r4,164(sp)
  804334:	d8002785 	stb	zero,158(sp)
  804338:	203d2d16 	blt	r4,zero,8037f0 <__alt_mem_onchip_mem+0xff7837f0>
  80433c:	00bfdfc4 	movi	r2,-129
  804340:	90a4703a 	and	r18,r18,r2
  804344:	003a9106 	br	802d8c <__alt_mem_onchip_mem+0xff782d8c>
  804348:	01002074 	movhi	r4,129
  80434c:	210cf184 	addi	r4,r4,13254
  804350:	d9002b15 	stw	r4,172(sp)
  804354:	003c0c06 	br	803388 <__alt_mem_onchip_mem+0xff783388>
  804358:	d9002c17 	ldw	r4,176(sp)
  80435c:	d9801e04 	addi	r6,sp,120
  804360:	b80b883a 	mov	r5,r23
  804364:	08095280 	call	809528 <__sprint_r>
  804368:	103aab1e 	bne	r2,zero,802e18 <__alt_mem_onchip_mem+0xff782e18>
  80436c:	d8c02017 	ldw	r3,128(sp)
  804370:	da000404 	addi	r8,sp,16
  804374:	003d4106 	br	80387c <__alt_mem_onchip_mem+0xff78387c>
  804378:	d8801f17 	ldw	r2,124(sp)
  80437c:	01402074 	movhi	r5,129
  804380:	01000044 	movi	r4,1
  804384:	18c00044 	addi	r3,r3,1
  804388:	10800044 	addi	r2,r2,1
  80438c:	294cf104 	addi	r5,r5,13252
  804390:	41000115 	stw	r4,4(r8)
  804394:	41400015 	stw	r5,0(r8)
  804398:	d8c02015 	stw	r3,128(sp)
  80439c:	d8801f15 	stw	r2,124(sp)
  8043a0:	010001c4 	movi	r4,7
  8043a4:	20805c16 	blt	r4,r2,804518 <___vfprintf_internal_r+0x1b08>
  8043a8:	42000204 	addi	r8,r8,8
  8043ac:	8800041e 	bne	r17,zero,8043c0 <___vfprintf_internal_r+0x19b0>
  8043b0:	d8803317 	ldw	r2,204(sp)
  8043b4:	1000021e 	bne	r2,zero,8043c0 <___vfprintf_internal_r+0x19b0>
  8043b8:	9080004c 	andi	r2,r18,1
  8043bc:	103c0926 	beq	r2,zero,8033e4 <__alt_mem_onchip_mem+0xff7833e4>
  8043c0:	d9003717 	ldw	r4,220(sp)
  8043c4:	d8801f17 	ldw	r2,124(sp)
  8043c8:	d9403417 	ldw	r5,208(sp)
  8043cc:	20c7883a 	add	r3,r4,r3
  8043d0:	10800044 	addi	r2,r2,1
  8043d4:	41000115 	stw	r4,4(r8)
  8043d8:	41400015 	stw	r5,0(r8)
  8043dc:	d8c02015 	stw	r3,128(sp)
  8043e0:	d8801f15 	stw	r2,124(sp)
  8043e4:	010001c4 	movi	r4,7
  8043e8:	20812116 	blt	r4,r2,804870 <___vfprintf_internal_r+0x1e60>
  8043ec:	42000204 	addi	r8,r8,8
  8043f0:	0463c83a 	sub	r17,zero,r17
  8043f4:	0440730e 	bge	zero,r17,8045c4 <___vfprintf_internal_r+0x1bb4>
  8043f8:	05800404 	movi	r22,16
  8043fc:	b440860e 	bge	r22,r17,804618 <___vfprintf_internal_r+0x1c08>
  804400:	01402074 	movhi	r5,129
  804404:	294cf184 	addi	r5,r5,13254
  804408:	d9402b15 	stw	r5,172(sp)
  80440c:	070001c4 	movi	fp,7
  804410:	dcc02c17 	ldw	r19,176(sp)
  804414:	00000306 	br	804424 <___vfprintf_internal_r+0x1a14>
  804418:	42000204 	addi	r8,r8,8
  80441c:	8c7ffc04 	addi	r17,r17,-16
  804420:	b440800e 	bge	r22,r17,804624 <___vfprintf_internal_r+0x1c14>
  804424:	18c00404 	addi	r3,r3,16
  804428:	10800044 	addi	r2,r2,1
  80442c:	45000015 	stw	r20,0(r8)
  804430:	45800115 	stw	r22,4(r8)
  804434:	d8c02015 	stw	r3,128(sp)
  804438:	d8801f15 	stw	r2,124(sp)
  80443c:	e0bff60e 	bge	fp,r2,804418 <__alt_mem_onchip_mem+0xff784418>
  804440:	d9801e04 	addi	r6,sp,120
  804444:	b80b883a 	mov	r5,r23
  804448:	9809883a 	mov	r4,r19
  80444c:	08095280 	call	809528 <__sprint_r>
  804450:	103a711e 	bne	r2,zero,802e18 <__alt_mem_onchip_mem+0xff782e18>
  804454:	d8c02017 	ldw	r3,128(sp)
  804458:	d8801f17 	ldw	r2,124(sp)
  80445c:	da000404 	addi	r8,sp,16
  804460:	003fee06 	br	80441c <__alt_mem_onchip_mem+0xff78441c>
  804464:	00bfffc4 	movi	r2,-1
  804468:	003a6f06 	br	802e28 <__alt_mem_onchip_mem+0xff782e28>
  80446c:	008011c4 	movi	r2,71
  804470:	1440b816 	blt	r2,r17,804754 <___vfprintf_internal_r+0x1d44>
  804474:	04002074 	movhi	r16,129
  804478:	840ce304 	addi	r16,r16,13196
  80447c:	00c000c4 	movi	r3,3
  804480:	00bfdfc4 	movi	r2,-129
  804484:	d8c02a15 	stw	r3,168(sp)
  804488:	90a4703a 	and	r18,r18,r2
  80448c:	df002783 	ldbu	fp,158(sp)
  804490:	d8c02e15 	stw	r3,184(sp)
  804494:	d8002915 	stw	zero,164(sp)
  804498:	d8003215 	stw	zero,200(sp)
  80449c:	003b2906 	br	803144 <__alt_mem_onchip_mem+0xff783144>
  8044a0:	d9002d17 	ldw	r4,180(sp)
  8044a4:	24c00017 	ldw	r19,0(r4)
  8044a8:	21000104 	addi	r4,r4,4
  8044ac:	d9002d15 	stw	r4,180(sp)
  8044b0:	982dd7fa 	srai	r22,r19,31
  8044b4:	b005883a 	mov	r2,r22
  8044b8:	003a9f06 	br	802f38 <__alt_mem_onchip_mem+0xff782f38>
  8044bc:	d9402d17 	ldw	r5,180(sp)
  8044c0:	d8c02f17 	ldw	r3,188(sp)
  8044c4:	28800017 	ldw	r2,0(r5)
  8044c8:	29400104 	addi	r5,r5,4
  8044cc:	d9402d15 	stw	r5,180(sp)
  8044d0:	10c00015 	stw	r3,0(r2)
  8044d4:	00398606 	br	802af0 <__alt_mem_onchip_mem+0xff782af0>
  8044d8:	d9402d17 	ldw	r5,180(sp)
  8044dc:	002d883a 	mov	r22,zero
  8044e0:	2cc00017 	ldw	r19,0(r5)
  8044e4:	29400104 	addi	r5,r5,4
  8044e8:	d9402d15 	stw	r5,180(sp)
  8044ec:	003c2306 	br	80357c <__alt_mem_onchip_mem+0xff78357c>
  8044f0:	d8c02d17 	ldw	r3,180(sp)
  8044f4:	d9002917 	ldw	r4,164(sp)
  8044f8:	002d883a 	mov	r22,zero
  8044fc:	18800104 	addi	r2,r3,4
  804500:	1cc0000b 	ldhu	r19,0(r3)
  804504:	203dc10e 	bge	r4,zero,803c0c <__alt_mem_onchip_mem+0xff783c0c>
  804508:	003f7506 	br	8042e0 <__alt_mem_onchip_mem+0xff7842e0>
  80450c:	04002074 	movhi	r16,129
  804510:	840ce104 	addi	r16,r16,13188
  804514:	003acc06 	br	803048 <__alt_mem_onchip_mem+0xff783048>
  804518:	d9002c17 	ldw	r4,176(sp)
  80451c:	d9801e04 	addi	r6,sp,120
  804520:	b80b883a 	mov	r5,r23
  804524:	08095280 	call	809528 <__sprint_r>
  804528:	103a3b1e 	bne	r2,zero,802e18 <__alt_mem_onchip_mem+0xff782e18>
  80452c:	dc402617 	ldw	r17,152(sp)
  804530:	d8c02017 	ldw	r3,128(sp)
  804534:	da000404 	addi	r8,sp,16
  804538:	003f9c06 	br	8043ac <__alt_mem_onchip_mem+0xff7843ac>
  80453c:	ac400043 	ldbu	r17,1(r21)
  804540:	94800814 	ori	r18,r18,32
  804544:	ad400044 	addi	r21,r21,1
  804548:	8c403fcc 	andi	r17,r17,255
  80454c:	8c40201c 	xori	r17,r17,128
  804550:	8c7fe004 	addi	r17,r17,-128
  804554:	00398f06 	br	802b94 <__alt_mem_onchip_mem+0xff782b94>
  804558:	d8c02d15 	stw	r3,180(sp)
  80455c:	0039883a 	mov	fp,zero
  804560:	003e3506 	br	803e38 <__alt_mem_onchip_mem+0xff783e38>
  804564:	d9002c17 	ldw	r4,176(sp)
  804568:	d9801e04 	addi	r6,sp,120
  80456c:	b80b883a 	mov	r5,r23
  804570:	08095280 	call	809528 <__sprint_r>
  804574:	103a281e 	bne	r2,zero,802e18 <__alt_mem_onchip_mem+0xff782e18>
  804578:	d8c02017 	ldw	r3,128(sp)
  80457c:	da000404 	addi	r8,sp,16
  804580:	003cd006 	br	8038c4 <__alt_mem_onchip_mem+0xff7838c4>
  804584:	8009883a 	mov	r4,r16
  804588:	da003d15 	stw	r8,244(sp)
  80458c:	08093940 	call	809394 <strlen>
  804590:	d8802e15 	stw	r2,184(sp)
  804594:	da003d17 	ldw	r8,244(sp)
  804598:	103c340e 	bge	r2,zero,80366c <__alt_mem_onchip_mem+0xff78366c>
  80459c:	0005883a 	mov	r2,zero
  8045a0:	003c3206 	br	80366c <__alt_mem_onchip_mem+0xff78366c>
  8045a4:	d9002c17 	ldw	r4,176(sp)
  8045a8:	d9801e04 	addi	r6,sp,120
  8045ac:	b80b883a 	mov	r5,r23
  8045b0:	08095280 	call	809528 <__sprint_r>
  8045b4:	103a181e 	bne	r2,zero,802e18 <__alt_mem_onchip_mem+0xff782e18>
  8045b8:	d8c02017 	ldw	r3,128(sp)
  8045bc:	d8801f17 	ldw	r2,124(sp)
  8045c0:	da000404 	addi	r8,sp,16
  8045c4:	d9403317 	ldw	r5,204(sp)
  8045c8:	10800044 	addi	r2,r2,1
  8045cc:	44000015 	stw	r16,0(r8)
  8045d0:	28c7883a 	add	r3,r5,r3
  8045d4:	003b7d06 	br	8033cc <__alt_mem_onchip_mem+0xff7833cc>
  8045d8:	01002074 	movhi	r4,129
  8045dc:	210cf584 	addi	r4,r4,13270
  8045e0:	d9003515 	stw	r4,212(sp)
  8045e4:	003b1406 	br	803238 <__alt_mem_onchip_mem+0xff783238>
  8045e8:	013fffc4 	movi	r4,-1
  8045ec:	003a3506 	br	802ec4 <__alt_mem_onchip_mem+0xff782ec4>
  8045f0:	0023883a 	mov	r17,zero
  8045f4:	003d9d06 	br	803c6c <__alt_mem_onchip_mem+0xff783c6c>
  8045f8:	d9002c17 	ldw	r4,176(sp)
  8045fc:	d9801e04 	addi	r6,sp,120
  804600:	b80b883a 	mov	r5,r23
  804604:	08095280 	call	809528 <__sprint_r>
  804608:	103a031e 	bne	r2,zero,802e18 <__alt_mem_onchip_mem+0xff782e18>
  80460c:	d8c02017 	ldw	r3,128(sp)
  804610:	da000404 	addi	r8,sp,16
  804614:	003d9406 	br	803c68 <__alt_mem_onchip_mem+0xff783c68>
  804618:	01002074 	movhi	r4,129
  80461c:	210cf184 	addi	r4,r4,13254
  804620:	d9002b15 	stw	r4,172(sp)
  804624:	d9002b17 	ldw	r4,172(sp)
  804628:	1c47883a 	add	r3,r3,r17
  80462c:	10800044 	addi	r2,r2,1
  804630:	41000015 	stw	r4,0(r8)
  804634:	44400115 	stw	r17,4(r8)
  804638:	d8c02015 	stw	r3,128(sp)
  80463c:	d8801f15 	stw	r2,124(sp)
  804640:	010001c4 	movi	r4,7
  804644:	20bfd716 	blt	r4,r2,8045a4 <__alt_mem_onchip_mem+0xff7845a4>
  804648:	42000204 	addi	r8,r8,8
  80464c:	003fdd06 	br	8045c4 <__alt_mem_onchip_mem+0xff7845c4>
  804650:	d9002c17 	ldw	r4,176(sp)
  804654:	d9801e04 	addi	r6,sp,120
  804658:	b80b883a 	mov	r5,r23
  80465c:	08095280 	call	809528 <__sprint_r>
  804660:	1039ed1e 	bne	r2,zero,802e18 <__alt_mem_onchip_mem+0xff782e18>
  804664:	d8802617 	ldw	r2,152(sp)
  804668:	d8c02017 	ldw	r3,128(sp)
  80466c:	da000404 	addi	r8,sp,16
  804670:	003e1006 	br	803eb4 <__alt_mem_onchip_mem+0xff783eb4>
  804674:	00800044 	movi	r2,1
  804678:	10803fcc 	andi	r2,r2,255
  80467c:	00c00044 	movi	r3,1
  804680:	10fa3526 	beq	r2,r3,802f58 <__alt_mem_onchip_mem+0xff782f58>
  804684:	00c00084 	movi	r3,2
  804688:	10fbcb26 	beq	r2,r3,8035b8 <__alt_mem_onchip_mem+0xff7835b8>
  80468c:	003a8f06 	br	8030cc <__alt_mem_onchip_mem+0xff7830cc>
  804690:	01002074 	movhi	r4,129
  804694:	210cf584 	addi	r4,r4,13270
  804698:	d9003515 	stw	r4,212(sp)
  80469c:	003b7606 	br	803478 <__alt_mem_onchip_mem+0xff783478>
  8046a0:	d8802917 	ldw	r2,164(sp)
  8046a4:	00c00184 	movi	r3,6
  8046a8:	1880012e 	bgeu	r3,r2,8046b0 <___vfprintf_internal_r+0x1ca0>
  8046ac:	1805883a 	mov	r2,r3
  8046b0:	d8802e15 	stw	r2,184(sp)
  8046b4:	1000ef16 	blt	r2,zero,804a74 <___vfprintf_internal_r+0x2064>
  8046b8:	04002074 	movhi	r16,129
  8046bc:	d8802a15 	stw	r2,168(sp)
  8046c0:	dcc02d15 	stw	r19,180(sp)
  8046c4:	d8002915 	stw	zero,164(sp)
  8046c8:	d8003215 	stw	zero,200(sp)
  8046cc:	840cef04 	addi	r16,r16,13244
  8046d0:	0039883a 	mov	fp,zero
  8046d4:	003aa206 	br	803160 <__alt_mem_onchip_mem+0xff783160>
  8046d8:	0021883a 	mov	r16,zero
  8046dc:	003e0706 	br	803efc <__alt_mem_onchip_mem+0xff783efc>
  8046e0:	d9002c17 	ldw	r4,176(sp)
  8046e4:	d9801e04 	addi	r6,sp,120
  8046e8:	b80b883a 	mov	r5,r23
  8046ec:	08095280 	call	809528 <__sprint_r>
  8046f0:	1039c91e 	bne	r2,zero,802e18 <__alt_mem_onchip_mem+0xff782e18>
  8046f4:	d8802617 	ldw	r2,152(sp)
  8046f8:	d9403317 	ldw	r5,204(sp)
  8046fc:	d8c02017 	ldw	r3,128(sp)
  804700:	da000404 	addi	r8,sp,16
  804704:	2885c83a 	sub	r2,r5,r2
  804708:	003dfb06 	br	803ef8 <__alt_mem_onchip_mem+0xff783ef8>
  80470c:	9080004c 	andi	r2,r18,1
  804710:	103e8f1e 	bne	r2,zero,804150 <__alt_mem_onchip_mem+0xff784150>
  804714:	d8802117 	ldw	r2,132(sp)
  804718:	003e9e06 	br	804194 <__alt_mem_onchip_mem+0xff784194>
  80471c:	1025883a 	mov	r18,r2
  804720:	0039883a 	mov	fp,zero
  804724:	00800084 	movi	r2,2
  804728:	003fd306 	br	804678 <__alt_mem_onchip_mem+0xff784678>
  80472c:	07000b44 	movi	fp,45
  804730:	df002785 	stb	fp,158(sp)
  804734:	003a4006 	br	803038 <__alt_mem_onchip_mem+0xff783038>
  804738:	00c00b44 	movi	r3,45
  80473c:	d8c02785 	stb	r3,158(sp)
  804740:	d8802a15 	stw	r2,168(sp)
  804744:	dc802b17 	ldw	r18,172(sp)
  804748:	d8002915 	stw	zero,164(sp)
  80474c:	07000b44 	movi	fp,45
  804750:	003a8006 	br	803154 <__alt_mem_onchip_mem+0xff783154>
  804754:	04002074 	movhi	r16,129
  804758:	840ce404 	addi	r16,r16,13200
  80475c:	003f4706 	br	80447c <__alt_mem_onchip_mem+0xff78447c>
  804760:	d8c02d17 	ldw	r3,180(sp)
  804764:	d9002f17 	ldw	r4,188(sp)
  804768:	18800017 	ldw	r2,0(r3)
  80476c:	18c00104 	addi	r3,r3,4
  804770:	d8c02d15 	stw	r3,180(sp)
  804774:	11000015 	stw	r4,0(r2)
  804778:	0038dd06 	br	802af0 <__alt_mem_onchip_mem+0xff782af0>
  80477c:	dd802617 	ldw	r22,152(sp)
  804780:	00bfff44 	movi	r2,-3
  804784:	b0801c16 	blt	r22,r2,8047f8 <___vfprintf_internal_r+0x1de8>
  804788:	d9402917 	ldw	r5,164(sp)
  80478c:	2d801a16 	blt	r5,r22,8047f8 <___vfprintf_internal_r+0x1de8>
  804790:	dd803215 	stw	r22,200(sp)
  804794:	003e8906 	br	8041bc <__alt_mem_onchip_mem+0xff7841bc>
  804798:	01002074 	movhi	r4,129
  80479c:	210cf184 	addi	r4,r4,13254
  8047a0:	d9002b15 	stw	r4,172(sp)
  8047a4:	003c9106 	br	8039ec <__alt_mem_onchip_mem+0xff7839ec>
  8047a8:	e005883a 	mov	r2,fp
  8047ac:	003e7906 	br	804194 <__alt_mem_onchip_mem+0xff784194>
  8047b0:	d9402917 	ldw	r5,164(sp)
  8047b4:	df002783 	ldbu	fp,158(sp)
  8047b8:	dcc02d15 	stw	r19,180(sp)
  8047bc:	d9402a15 	stw	r5,168(sp)
  8047c0:	d9402e15 	stw	r5,184(sp)
  8047c4:	d8002915 	stw	zero,164(sp)
  8047c8:	d8003215 	stw	zero,200(sp)
  8047cc:	003a5d06 	br	803144 <__alt_mem_onchip_mem+0xff783144>
  8047d0:	9080004c 	andi	r2,r18,1
  8047d4:	0039883a 	mov	fp,zero
  8047d8:	10000426 	beq	r2,zero,8047ec <___vfprintf_internal_r+0x1ddc>
  8047dc:	00800c04 	movi	r2,48
  8047e0:	dc001dc4 	addi	r16,sp,119
  8047e4:	d8801dc5 	stb	r2,119(sp)
  8047e8:	003b8006 	br	8035ec <__alt_mem_onchip_mem+0xff7835ec>
  8047ec:	d8002e15 	stw	zero,184(sp)
  8047f0:	dc001e04 	addi	r16,sp,120
  8047f4:	003a4d06 	br	80312c <__alt_mem_onchip_mem+0xff78312c>
  8047f8:	8c7fff84 	addi	r17,r17,-2
  8047fc:	b5bfffc4 	addi	r22,r22,-1
  804800:	dd802615 	stw	r22,152(sp)
  804804:	dc4022c5 	stb	r17,139(sp)
  804808:	b000bf16 	blt	r22,zero,804b08 <___vfprintf_internal_r+0x20f8>
  80480c:	00800ac4 	movi	r2,43
  804810:	d8802305 	stb	r2,140(sp)
  804814:	00800244 	movi	r2,9
  804818:	15807016 	blt	r2,r22,8049dc <___vfprintf_internal_r+0x1fcc>
  80481c:	00800c04 	movi	r2,48
  804820:	b5800c04 	addi	r22,r22,48
  804824:	d8802345 	stb	r2,141(sp)
  804828:	dd802385 	stb	r22,142(sp)
  80482c:	d88023c4 	addi	r2,sp,143
  804830:	df0022c4 	addi	fp,sp,139
  804834:	d8c03317 	ldw	r3,204(sp)
  804838:	1739c83a 	sub	fp,r2,fp
  80483c:	d9003317 	ldw	r4,204(sp)
  804840:	e0c7883a 	add	r3,fp,r3
  804844:	df003a15 	stw	fp,232(sp)
  804848:	d8c02e15 	stw	r3,184(sp)
  80484c:	00800044 	movi	r2,1
  804850:	1100b30e 	bge	r2,r4,804b20 <___vfprintf_internal_r+0x2110>
  804854:	d8c02e17 	ldw	r3,184(sp)
  804858:	18c00044 	addi	r3,r3,1
  80485c:	d8c02e15 	stw	r3,184(sp)
  804860:	1805883a 	mov	r2,r3
  804864:	1800ac16 	blt	r3,zero,804b18 <___vfprintf_internal_r+0x2108>
  804868:	d8003215 	stw	zero,200(sp)
  80486c:	003e5d06 	br	8041e4 <__alt_mem_onchip_mem+0xff7841e4>
  804870:	d9002c17 	ldw	r4,176(sp)
  804874:	d9801e04 	addi	r6,sp,120
  804878:	b80b883a 	mov	r5,r23
  80487c:	08095280 	call	809528 <__sprint_r>
  804880:	1039651e 	bne	r2,zero,802e18 <__alt_mem_onchip_mem+0xff782e18>
  804884:	dc402617 	ldw	r17,152(sp)
  804888:	d8c02017 	ldw	r3,128(sp)
  80488c:	d8801f17 	ldw	r2,124(sp)
  804890:	da000404 	addi	r8,sp,16
  804894:	003ed606 	br	8043f0 <__alt_mem_onchip_mem+0xff7843f0>
  804898:	582b883a 	mov	r21,r11
  80489c:	d8002915 	stw	zero,164(sp)
  8048a0:	0038bd06 	br	802b98 <__alt_mem_onchip_mem+0xff782b98>
  8048a4:	d8802917 	ldw	r2,164(sp)
  8048a8:	103e071e 	bne	r2,zero,8040c8 <__alt_mem_onchip_mem+0xff7840c8>
  8048ac:	dc002915 	stw	r16,164(sp)
  8048b0:	003e0506 	br	8040c8 <__alt_mem_onchip_mem+0xff7840c8>
  8048b4:	d9002917 	ldw	r4,164(sp)
  8048b8:	20c00044 	addi	r3,r4,1
  8048bc:	003e0f06 	br	8040fc <__alt_mem_onchip_mem+0xff7840fc>
  8048c0:	01400184 	movi	r5,6
  8048c4:	d9402915 	stw	r5,164(sp)
  8048c8:	003dff06 	br	8040c8 <__alt_mem_onchip_mem+0xff7840c8>
  8048cc:	d8802104 	addi	r2,sp,132
  8048d0:	d8800315 	stw	r2,12(sp)
  8048d4:	d8802504 	addi	r2,sp,148
  8048d8:	d8800215 	stw	r2,8(sp)
  8048dc:	d8802604 	addi	r2,sp,152
  8048e0:	d8800115 	stw	r2,4(sp)
  8048e4:	d8802917 	ldw	r2,164(sp)
  8048e8:	d9403617 	ldw	r5,216(sp)
  8048ec:	d9002c17 	ldw	r4,176(sp)
  8048f0:	d8800015 	stw	r2,0(sp)
  8048f4:	01c000c4 	movi	r7,3
  8048f8:	980d883a 	mov	r6,r19
  8048fc:	da003d15 	stw	r8,244(sp)
  804900:	08050340 	call	805034 <_dtoa_r>
  804904:	d8c02917 	ldw	r3,164(sp)
  804908:	da003d17 	ldw	r8,244(sp)
  80490c:	1021883a 	mov	r16,r2
  804910:	10f9883a 	add	fp,r2,r3
  804914:	81000007 	ldb	r4,0(r16)
  804918:	00800c04 	movi	r2,48
  80491c:	20805e26 	beq	r4,r2,804a98 <___vfprintf_internal_r+0x2088>
  804920:	d8c02617 	ldw	r3,152(sp)
  804924:	e0f9883a 	add	fp,fp,r3
  804928:	003e0a06 	br	804154 <__alt_mem_onchip_mem+0xff784154>
  80492c:	00c00b44 	movi	r3,45
  804930:	24e0003c 	xorhi	r19,r4,32768
  804934:	d8c02a05 	stb	r3,168(sp)
  804938:	003de906 	br	8040e0 <__alt_mem_onchip_mem+0xff7840e0>
  80493c:	d8c03217 	ldw	r3,200(sp)
  804940:	00c07a0e 	bge	zero,r3,804b2c <___vfprintf_internal_r+0x211c>
  804944:	00800044 	movi	r2,1
  804948:	d9003317 	ldw	r4,204(sp)
  80494c:	1105883a 	add	r2,r2,r4
  804950:	d8802e15 	stw	r2,184(sp)
  804954:	10004e16 	blt	r2,zero,804a90 <___vfprintf_internal_r+0x2080>
  804958:	044019c4 	movi	r17,103
  80495c:	003e2106 	br	8041e4 <__alt_mem_onchip_mem+0xff7841e4>
  804960:	d9002917 	ldw	r4,164(sp)
  804964:	d8802104 	addi	r2,sp,132
  804968:	d8800315 	stw	r2,12(sp)
  80496c:	d9000015 	stw	r4,0(sp)
  804970:	d8802504 	addi	r2,sp,148
  804974:	d9403617 	ldw	r5,216(sp)
  804978:	d9002c17 	ldw	r4,176(sp)
  80497c:	d8800215 	stw	r2,8(sp)
  804980:	d8802604 	addi	r2,sp,152
  804984:	d8800115 	stw	r2,4(sp)
  804988:	01c000c4 	movi	r7,3
  80498c:	980d883a 	mov	r6,r19
  804990:	da003d15 	stw	r8,244(sp)
  804994:	08050340 	call	805034 <_dtoa_r>
  804998:	d8c02917 	ldw	r3,164(sp)
  80499c:	da003d17 	ldw	r8,244(sp)
  8049a0:	1021883a 	mov	r16,r2
  8049a4:	00801184 	movi	r2,70
  8049a8:	80f9883a 	add	fp,r16,r3
  8049ac:	88bfd926 	beq	r17,r2,804914 <__alt_mem_onchip_mem+0xff784914>
  8049b0:	003de806 	br	804154 <__alt_mem_onchip_mem+0xff784154>
  8049b4:	d9002917 	ldw	r4,164(sp)
  8049b8:	00c04d0e 	bge	zero,r3,804af0 <___vfprintf_internal_r+0x20e0>
  8049bc:	2000441e 	bne	r4,zero,804ad0 <___vfprintf_internal_r+0x20c0>
  8049c0:	9480004c 	andi	r18,r18,1
  8049c4:	9000421e 	bne	r18,zero,804ad0 <___vfprintf_internal_r+0x20c0>
  8049c8:	1805883a 	mov	r2,r3
  8049cc:	18007016 	blt	r3,zero,804b90 <___vfprintf_internal_r+0x2180>
  8049d0:	d8c03217 	ldw	r3,200(sp)
  8049d4:	d8c02e15 	stw	r3,184(sp)
  8049d8:	003e0206 	br	8041e4 <__alt_mem_onchip_mem+0xff7841e4>
  8049dc:	df0022c4 	addi	fp,sp,139
  8049e0:	dc002915 	stw	r16,164(sp)
  8049e4:	4027883a 	mov	r19,r8
  8049e8:	e021883a 	mov	r16,fp
  8049ec:	b009883a 	mov	r4,r22
  8049f0:	01400284 	movi	r5,10
  8049f4:	080ca580 	call	80ca58 <__modsi3>
  8049f8:	10800c04 	addi	r2,r2,48
  8049fc:	843fffc4 	addi	r16,r16,-1
  804a00:	b009883a 	mov	r4,r22
  804a04:	01400284 	movi	r5,10
  804a08:	80800005 	stb	r2,0(r16)
  804a0c:	080c9d40 	call	80c9d4 <__divsi3>
  804a10:	102d883a 	mov	r22,r2
  804a14:	00800244 	movi	r2,9
  804a18:	15bff416 	blt	r2,r22,8049ec <__alt_mem_onchip_mem+0xff7849ec>
  804a1c:	9811883a 	mov	r8,r19
  804a20:	b0800c04 	addi	r2,r22,48
  804a24:	8027883a 	mov	r19,r16
  804a28:	997fffc4 	addi	r5,r19,-1
  804a2c:	98bfffc5 	stb	r2,-1(r19)
  804a30:	dc002917 	ldw	r16,164(sp)
  804a34:	2f006a2e 	bgeu	r5,fp,804be0 <___vfprintf_internal_r+0x21d0>
  804a38:	d9c02384 	addi	r7,sp,142
  804a3c:	3ccfc83a 	sub	r7,r7,r19
  804a40:	d9002344 	addi	r4,sp,141
  804a44:	e1cf883a 	add	r7,fp,r7
  804a48:	00000106 	br	804a50 <___vfprintf_internal_r+0x2040>
  804a4c:	28800003 	ldbu	r2,0(r5)
  804a50:	20800005 	stb	r2,0(r4)
  804a54:	21000044 	addi	r4,r4,1
  804a58:	29400044 	addi	r5,r5,1
  804a5c:	393ffb1e 	bne	r7,r4,804a4c <__alt_mem_onchip_mem+0xff784a4c>
  804a60:	d8802304 	addi	r2,sp,140
  804a64:	14c5c83a 	sub	r2,r2,r19
  804a68:	d8c02344 	addi	r3,sp,141
  804a6c:	1885883a 	add	r2,r3,r2
  804a70:	003f7006 	br	804834 <__alt_mem_onchip_mem+0xff784834>
  804a74:	0005883a 	mov	r2,zero
  804a78:	003f0f06 	br	8046b8 <__alt_mem_onchip_mem+0xff7846b8>
  804a7c:	d8c03217 	ldw	r3,200(sp)
  804a80:	18c00044 	addi	r3,r3,1
  804a84:	d8c02e15 	stw	r3,184(sp)
  804a88:	1805883a 	mov	r2,r3
  804a8c:	183fb20e 	bge	r3,zero,804958 <__alt_mem_onchip_mem+0xff784958>
  804a90:	0005883a 	mov	r2,zero
  804a94:	003fb006 	br	804958 <__alt_mem_onchip_mem+0xff784958>
  804a98:	d9003617 	ldw	r4,216(sp)
  804a9c:	000d883a 	mov	r6,zero
  804aa0:	000f883a 	mov	r7,zero
  804aa4:	980b883a 	mov	r5,r19
  804aa8:	d8c03c15 	stw	r3,240(sp)
  804aac:	da003d15 	stw	r8,244(sp)
  804ab0:	080dd1c0 	call	80dd1c <__eqdf2>
  804ab4:	d8c03c17 	ldw	r3,240(sp)
  804ab8:	da003d17 	ldw	r8,244(sp)
  804abc:	103f9826 	beq	r2,zero,804920 <__alt_mem_onchip_mem+0xff784920>
  804ac0:	00800044 	movi	r2,1
  804ac4:	10c7c83a 	sub	r3,r2,r3
  804ac8:	d8c02615 	stw	r3,152(sp)
  804acc:	003f9506 	br	804924 <__alt_mem_onchip_mem+0xff784924>
  804ad0:	d9002917 	ldw	r4,164(sp)
  804ad4:	d8c03217 	ldw	r3,200(sp)
  804ad8:	20800044 	addi	r2,r4,1
  804adc:	1885883a 	add	r2,r3,r2
  804ae0:	d8802e15 	stw	r2,184(sp)
  804ae4:	103dbf0e 	bge	r2,zero,8041e4 <__alt_mem_onchip_mem+0xff7841e4>
  804ae8:	0005883a 	mov	r2,zero
  804aec:	003dbd06 	br	8041e4 <__alt_mem_onchip_mem+0xff7841e4>
  804af0:	2000211e 	bne	r4,zero,804b78 <___vfprintf_internal_r+0x2168>
  804af4:	9480004c 	andi	r18,r18,1
  804af8:	90001f1e 	bne	r18,zero,804b78 <___vfprintf_internal_r+0x2168>
  804afc:	00800044 	movi	r2,1
  804b00:	d8802e15 	stw	r2,184(sp)
  804b04:	003db706 	br	8041e4 <__alt_mem_onchip_mem+0xff7841e4>
  804b08:	00800b44 	movi	r2,45
  804b0c:	05adc83a 	sub	r22,zero,r22
  804b10:	d8802305 	stb	r2,140(sp)
  804b14:	003f3f06 	br	804814 <__alt_mem_onchip_mem+0xff784814>
  804b18:	0005883a 	mov	r2,zero
  804b1c:	003f5206 	br	804868 <__alt_mem_onchip_mem+0xff784868>
  804b20:	90a4703a 	and	r18,r18,r2
  804b24:	903f4e26 	beq	r18,zero,804860 <__alt_mem_onchip_mem+0xff784860>
  804b28:	003f4a06 	br	804854 <__alt_mem_onchip_mem+0xff784854>
  804b2c:	00800084 	movi	r2,2
  804b30:	10c5c83a 	sub	r2,r2,r3
  804b34:	003f8406 	br	804948 <__alt_mem_onchip_mem+0xff784948>
  804b38:	d8802d17 	ldw	r2,180(sp)
  804b3c:	d9002d17 	ldw	r4,180(sp)
  804b40:	ac400043 	ldbu	r17,1(r21)
  804b44:	10800017 	ldw	r2,0(r2)
  804b48:	582b883a 	mov	r21,r11
  804b4c:	d8802915 	stw	r2,164(sp)
  804b50:	20800104 	addi	r2,r4,4
  804b54:	d9002917 	ldw	r4,164(sp)
  804b58:	d8802d15 	stw	r2,180(sp)
  804b5c:	203e7a0e 	bge	r4,zero,804548 <__alt_mem_onchip_mem+0xff784548>
  804b60:	8c403fcc 	andi	r17,r17,255
  804b64:	00bfffc4 	movi	r2,-1
  804b68:	8c40201c 	xori	r17,r17,128
  804b6c:	d8802915 	stw	r2,164(sp)
  804b70:	8c7fe004 	addi	r17,r17,-128
  804b74:	00380706 	br	802b94 <__alt_mem_onchip_mem+0xff782b94>
  804b78:	d8c02917 	ldw	r3,164(sp)
  804b7c:	18c00084 	addi	r3,r3,2
  804b80:	d8c02e15 	stw	r3,184(sp)
  804b84:	1805883a 	mov	r2,r3
  804b88:	183d960e 	bge	r3,zero,8041e4 <__alt_mem_onchip_mem+0xff7841e4>
  804b8c:	003fd606 	br	804ae8 <__alt_mem_onchip_mem+0xff784ae8>
  804b90:	0005883a 	mov	r2,zero
  804b94:	003f8e06 	br	8049d0 <__alt_mem_onchip_mem+0xff7849d0>
  804b98:	9080004c 	andi	r2,r18,1
  804b9c:	103f811e 	bne	r2,zero,8049a4 <__alt_mem_onchip_mem+0xff7849a4>
  804ba0:	d8802117 	ldw	r2,132(sp)
  804ba4:	1405c83a 	sub	r2,r2,r16
  804ba8:	d8803315 	stw	r2,204(sp)
  804bac:	b47ef326 	beq	r22,r17,80477c <__alt_mem_onchip_mem+0xff78477c>
  804bb0:	dd802617 	ldw	r22,152(sp)
  804bb4:	003f1106 	br	8047fc <__alt_mem_onchip_mem+0xff7847fc>
  804bb8:	d9c02785 	stb	r7,158(sp)
  804bbc:	00390406 	br	802fd0 <__alt_mem_onchip_mem+0xff782fd0>
  804bc0:	d9c02785 	stb	r7,158(sp)
  804bc4:	0038d306 	br	802f14 <__alt_mem_onchip_mem+0xff782f14>
  804bc8:	d9c02785 	stb	r7,158(sp)
  804bcc:	003a6106 	br	803554 <__alt_mem_onchip_mem+0xff783554>
  804bd0:	d9c02785 	stb	r7,158(sp)
  804bd4:	003af806 	br	8037b8 <__alt_mem_onchip_mem+0xff7837b8>
  804bd8:	0005883a 	mov	r2,zero
  804bdc:	003d7e06 	br	8041d8 <__alt_mem_onchip_mem+0xff7841d8>
