Archive member included to satisfy reference by file (symbol)

c:/intelfpga/16.1/nios2eds/bin/gnu/h-x86_64-mingw32/bin/../lib/gcc/nios2-elf/5.3.0/../../../../../H-x86_64-mingw32/nios2-elf/lib\libc.a(lib_a-puts.o)
                              obj/default/hello_world.o (puts)
c:/intelfpga/16.1/nios2eds/bin/gnu/h-x86_64-mingw32/bin/../lib/gcc/nios2-elf/5.3.0/../../../../../H-x86_64-mingw32/nios2-elf/lib\libc.a(lib_a-strlen.o)
                              c:/intelfpga/16.1/nios2eds/bin/gnu/h-x86_64-mingw32/bin/../lib/gcc/nios2-elf/5.3.0/../../../../../H-x86_64-mingw32/nios2-elf/lib\libc.a(lib_a-puts.o) (strlen)
c:/intelfpga/16.1/nios2eds/bin/gnu/h-x86_64-mingw32/bin/../lib/gcc/nios2-elf/5.3.0/../../../../../H-x86_64-mingw32/nios2-elf/lib\libc.a(lib_a-findfp.o)
                              c:/intelfpga/16.1/nios2eds/bin/gnu/h-x86_64-mingw32/bin/../lib/gcc/nios2-elf/5.3.0/../../../../../H-x86_64-mingw32/nios2-elf/lib\libc.a(lib_a-puts.o) (__sinit)
c:/intelfpga/16.1/nios2eds/bin/gnu/h-x86_64-mingw32/bin/../lib/gcc/nios2-elf/5.3.0/../../../../../H-x86_64-mingw32/nios2-elf/lib\libc.a(lib_a-fvwrite.o)
                              c:/intelfpga/16.1/nios2eds/bin/gnu/h-x86_64-mingw32/bin/../lib/gcc/nios2-elf/5.3.0/../../../../../H-x86_64-mingw32/nios2-elf/lib\libc.a(lib_a-puts.o) (__sfvwrite_r)
c:/intelfpga/16.1/nios2eds/bin/gnu/h-x86_64-mingw32/bin/../lib/gcc/nios2-elf/5.3.0/../../../../../H-x86_64-mingw32/nios2-elf/lib\libc.a(lib_a-fwalk.o)
                              c:/intelfpga/16.1/nios2eds/bin/gnu/h-x86_64-mingw32/bin/../lib/gcc/nios2-elf/5.3.0/../../../../../H-x86_64-mingw32/nios2-elf/lib\libc.a(lib_a-findfp.o) (_fwalk)
c:/intelfpga/16.1/nios2eds/bin/gnu/h-x86_64-mingw32/bin/../lib/gcc/nios2-elf/5.3.0/../../../../../H-x86_64-mingw32/nios2-elf/lib\libc.a(lib_a-impure.o)
                              c:/intelfpga/16.1/nios2eds/bin/gnu/h-x86_64-mingw32/bin/../lib/gcc/nios2-elf/5.3.0/../../../../../H-x86_64-mingw32/nios2-elf/lib\libc.a(lib_a-findfp.o) (_global_impure_ptr)
c:/intelfpga/16.1/nios2eds/bin/gnu/h-x86_64-mingw32/bin/../lib/gcc/nios2-elf/5.3.0/../../../../../H-x86_64-mingw32/nios2-elf/lib\libc.a(lib_a-mallocr.o)
                              c:/intelfpga/16.1/nios2eds/bin/gnu/h-x86_64-mingw32/bin/../lib/gcc/nios2-elf/5.3.0/../../../../../H-x86_64-mingw32/nios2-elf/lib\libc.a(lib_a-findfp.o) (_malloc_r)
c:/intelfpga/16.1/nios2eds/bin/gnu/h-x86_64-mingw32/bin/../lib/gcc/nios2-elf/5.3.0/../../../../../H-x86_64-mingw32/nios2-elf/lib\libc.a(lib_a-memchr.o)
                              c:/intelfpga/16.1/nios2eds/bin/gnu/h-x86_64-mingw32/bin/../lib/gcc/nios2-elf/5.3.0/../../../../../H-x86_64-mingw32/nios2-elf/lib\libc.a(lib_a-fvwrite.o) (memchr)
c:/intelfpga/16.1/nios2eds/bin/gnu/h-x86_64-mingw32/bin/../lib/gcc/nios2-elf/5.3.0/../../../../../H-x86_64-mingw32/nios2-elf/lib\libc.a(lib_a-memcpy.o)
                              c:/intelfpga/16.1/nios2eds/bin/gnu/h-x86_64-mingw32/bin/../lib/gcc/nios2-elf/5.3.0/../../../../../H-x86_64-mingw32/nios2-elf/lib\libc.a(lib_a-fvwrite.o) (memcpy)
c:/intelfpga/16.1/nios2eds/bin/gnu/h-x86_64-mingw32/bin/../lib/gcc/nios2-elf/5.3.0/../../../../../H-x86_64-mingw32/nios2-elf/lib\libc.a(lib_a-memmove.o)
                              c:/intelfpga/16.1/nios2eds/bin/gnu/h-x86_64-mingw32/bin/../lib/gcc/nios2-elf/5.3.0/../../../../../H-x86_64-mingw32/nios2-elf/lib\libc.a(lib_a-fvwrite.o) (memmove)
c:/intelfpga/16.1/nios2eds/bin/gnu/h-x86_64-mingw32/bin/../lib/gcc/nios2-elf/5.3.0/../../../../../H-x86_64-mingw32/nios2-elf/lib\libc.a(lib_a-memset.o)
                              c:/intelfpga/16.1/nios2eds/bin/gnu/h-x86_64-mingw32/bin/../lib/gcc/nios2-elf/5.3.0/../../../../../H-x86_64-mingw32/nios2-elf/lib\libc.a(lib_a-findfp.o) (memset)
c:/intelfpga/16.1/nios2eds/bin/gnu/h-x86_64-mingw32/bin/../lib/gcc/nios2-elf/5.3.0/../../../../../H-x86_64-mingw32/nios2-elf/lib\libc.a(lib_a-reallocr.o)
                              c:/intelfpga/16.1/nios2eds/bin/gnu/h-x86_64-mingw32/bin/../lib/gcc/nios2-elf/5.3.0/../../../../../H-x86_64-mingw32/nios2-elf/lib\libc.a(lib_a-fvwrite.o) (_realloc_r)
c:/intelfpga/16.1/nios2eds/bin/gnu/h-x86_64-mingw32/bin/../lib/gcc/nios2-elf/5.3.0/../../../../../H-x86_64-mingw32/nios2-elf/lib\libc.a(lib_a-sbrkr.o)
                              c:/intelfpga/16.1/nios2eds/bin/gnu/h-x86_64-mingw32/bin/../lib/gcc/nios2-elf/5.3.0/../../../../../H-x86_64-mingw32/nios2-elf/lib\libc.a(lib_a-mallocr.o) (_sbrk_r)
c:/intelfpga/16.1/nios2eds/bin/gnu/h-x86_64-mingw32/bin/../lib/gcc/nios2-elf/5.3.0/../../../../../H-x86_64-mingw32/nios2-elf/lib\libc.a(lib_a-stdio.o)
                              c:/intelfpga/16.1/nios2eds/bin/gnu/h-x86_64-mingw32/bin/../lib/gcc/nios2-elf/5.3.0/../../../../../H-x86_64-mingw32/nios2-elf/lib\libc.a(lib_a-findfp.o) (__sread)
c:/intelfpga/16.1/nios2eds/bin/gnu/h-x86_64-mingw32/bin/../lib/gcc/nios2-elf/5.3.0/../../../../../H-x86_64-mingw32/nios2-elf/lib\libc.a(lib_a-writer.o)
                              c:/intelfpga/16.1/nios2eds/bin/gnu/h-x86_64-mingw32/bin/../lib/gcc/nios2-elf/5.3.0/../../../../../H-x86_64-mingw32/nios2-elf/lib\libc.a(lib_a-stdio.o) (_write_r)
c:/intelfpga/16.1/nios2eds/bin/gnu/h-x86_64-mingw32/bin/../lib/gcc/nios2-elf/5.3.0/../../../../../H-x86_64-mingw32/nios2-elf/lib\libc.a(lib_a-wsetup.o)
                              c:/intelfpga/16.1/nios2eds/bin/gnu/h-x86_64-mingw32/bin/../lib/gcc/nios2-elf/5.3.0/../../../../../H-x86_64-mingw32/nios2-elf/lib\libc.a(lib_a-fvwrite.o) (__swsetup_r)
c:/intelfpga/16.1/nios2eds/bin/gnu/h-x86_64-mingw32/bin/../lib/gcc/nios2-elf/5.3.0/../../../../../H-x86_64-mingw32/nios2-elf/lib\libc.a(closer.o)
                              c:/intelfpga/16.1/nios2eds/bin/gnu/h-x86_64-mingw32/bin/../lib/gcc/nios2-elf/5.3.0/../../../../../H-x86_64-mingw32/nios2-elf/lib\libc.a(lib_a-stdio.o) (_close_r)
c:/intelfpga/16.1/nios2eds/bin/gnu/h-x86_64-mingw32/bin/../lib/gcc/nios2-elf/5.3.0/../../../../../H-x86_64-mingw32/nios2-elf/lib\libc.a(lib_a-fclose.o)
                              c:/intelfpga/16.1/nios2eds/bin/gnu/h-x86_64-mingw32/bin/../lib/gcc/nios2-elf/5.3.0/../../../../../H-x86_64-mingw32/nios2-elf/lib\libc.a(lib_a-findfp.o) (_fclose_r)
c:/intelfpga/16.1/nios2eds/bin/gnu/h-x86_64-mingw32/bin/../lib/gcc/nios2-elf/5.3.0/../../../../../H-x86_64-mingw32/nios2-elf/lib\libc.a(lib_a-fflush.o)
                              c:/intelfpga/16.1/nios2eds/bin/gnu/h-x86_64-mingw32/bin/../lib/gcc/nios2-elf/5.3.0/../../../../../H-x86_64-mingw32/nios2-elf/lib\libc.a(lib_a-fclose.o) (__sflush_r)
c:/intelfpga/16.1/nios2eds/bin/gnu/h-x86_64-mingw32/bin/../lib/gcc/nios2-elf/5.3.0/../../../../../H-x86_64-mingw32/nios2-elf/lib\libc.a(lib_a-freer.o)
                              c:/intelfpga/16.1/nios2eds/bin/gnu/h-x86_64-mingw32/bin/../lib/gcc/nios2-elf/5.3.0/../../../../../H-x86_64-mingw32/nios2-elf/lib\libc.a(lib_a-fvwrite.o) (_free_r)
c:/intelfpga/16.1/nios2eds/bin/gnu/h-x86_64-mingw32/bin/../lib/gcc/nios2-elf/5.3.0/../../../../../H-x86_64-mingw32/nios2-elf/lib\libc.a(lib_a-int_errno.o)
                              c:/intelfpga/16.1/nios2eds/bin/gnu/h-x86_64-mingw32/bin/../lib/gcc/nios2-elf/5.3.0/../../../../../H-x86_64-mingw32/nios2-elf/lib\libc.a(lib_a-sbrkr.o) (errno)
c:/intelfpga/16.1/nios2eds/bin/gnu/h-x86_64-mingw32/bin/../lib/gcc/nios2-elf/5.3.0/../../../../../H-x86_64-mingw32/nios2-elf/lib\libc.a(lib_a-lseekr.o)
                              c:/intelfpga/16.1/nios2eds/bin/gnu/h-x86_64-mingw32/bin/../lib/gcc/nios2-elf/5.3.0/../../../../../H-x86_64-mingw32/nios2-elf/lib\libc.a(lib_a-stdio.o) (_lseek_r)
c:/intelfpga/16.1/nios2eds/bin/gnu/h-x86_64-mingw32/bin/../lib/gcc/nios2-elf/5.3.0/../../../../../H-x86_64-mingw32/nios2-elf/lib\libc.a(lib_a-makebuf.o)
                              c:/intelfpga/16.1/nios2eds/bin/gnu/h-x86_64-mingw32/bin/../lib/gcc/nios2-elf/5.3.0/../../../../../H-x86_64-mingw32/nios2-elf/lib\libc.a(lib_a-wsetup.o) (__smakebuf_r)
c:/intelfpga/16.1/nios2eds/bin/gnu/h-x86_64-mingw32/bin/../lib/gcc/nios2-elf/5.3.0/../../../../../H-x86_64-mingw32/nios2-elf/lib\libc.a(lib_a-readr.o)
                              c:/intelfpga/16.1/nios2eds/bin/gnu/h-x86_64-mingw32/bin/../lib/gcc/nios2-elf/5.3.0/../../../../../H-x86_64-mingw32/nios2-elf/lib\libc.a(lib_a-stdio.o) (_read_r)
c:/intelfpga/16.1/nios2eds/bin/gnu/h-x86_64-mingw32/bin/../lib/gcc/nios2-elf/5.3.0/../../../../../H-x86_64-mingw32/nios2-elf/lib\libc.a(lib_a-fstatr.o)
                              c:/intelfpga/16.1/nios2eds/bin/gnu/h-x86_64-mingw32/bin/../lib/gcc/nios2-elf/5.3.0/../../../../../H-x86_64-mingw32/nios2-elf/lib\libc.a(lib_a-makebuf.o) (_fstat_r)
c:/intelfpga/16.1/nios2eds/bin/gnu/h-x86_64-mingw32/bin/../lib/gcc/nios2-elf/5.3.0/../../../../../H-x86_64-mingw32/nios2-elf/lib\libc.a(lib_a-isattyr.o)
                              c:/intelfpga/16.1/nios2eds/bin/gnu/h-x86_64-mingw32/bin/../lib/gcc/nios2-elf/5.3.0/../../../../../H-x86_64-mingw32/nios2-elf/lib\libc.a(lib_a-makebuf.o) (_isatty_r)
c:/intelfpga/16.1/nios2eds/bin/gnu/h-x86_64-mingw32/bin/../lib/gcc/nios2-elf/5.3.0\libgcc.a(lib2-divmod.o)
                              c:/intelfpga/16.1/nios2eds/bin/gnu/h-x86_64-mingw32/bin/../lib/gcc/nios2-elf/5.3.0/../../../../../H-x86_64-mingw32/nios2-elf/lib\libc.a(lib_a-fvwrite.o) (__divsi3)
../heart_beets_bsp/\libhal_bsp.a(alt_alarm_start.o)
                              obj/default/hello_world.o (alt_alarm_start)
../heart_beets_bsp/\libhal_bsp.a(alt_close.o)
                              c:/intelfpga/16.1/nios2eds/bin/gnu/h-x86_64-mingw32/bin/../lib/gcc/nios2-elf/5.3.0/../../../../../H-x86_64-mingw32/nios2-elf/lib\libc.a(closer.o) (close)
../heart_beets_bsp/\libhal_bsp.a(alt_dev.o)
                              ../heart_beets_bsp/\libhal_bsp.a(alt_close.o) (alt_fd_list)
../heart_beets_bsp/\libhal_bsp.a(alt_errno.o)
                              ../heart_beets_bsp/\libhal_bsp.a(alt_close.o) (alt_errno)
../heart_beets_bsp/\libhal_bsp.a(alt_fstat.o)
                              c:/intelfpga/16.1/nios2eds/bin/gnu/h-x86_64-mingw32/bin/../lib/gcc/nios2-elf/5.3.0/../../../../../H-x86_64-mingw32/nios2-elf/lib\libc.a(lib_a-fstatr.o) (fstat)
../heart_beets_bsp/\libhal_bsp.a(alt_isatty.o)
                              c:/intelfpga/16.1/nios2eds/bin/gnu/h-x86_64-mingw32/bin/../lib/gcc/nios2-elf/5.3.0/../../../../../H-x86_64-mingw32/nios2-elf/lib\libc.a(lib_a-isattyr.o) (isatty)
../heart_beets_bsp/\libhal_bsp.a(alt_load.o)
                              ../heart_beets_bsp//obj/HAL/src/crt0.o (alt_load)
../heart_beets_bsp/\libhal_bsp.a(alt_lseek.o)
                              c:/intelfpga/16.1/nios2eds/bin/gnu/h-x86_64-mingw32/bin/../lib/gcc/nios2-elf/5.3.0/../../../../../H-x86_64-mingw32/nios2-elf/lib\libc.a(lib_a-lseekr.o) (lseek)
../heart_beets_bsp/\libhal_bsp.a(alt_main.o)
                              ../heart_beets_bsp//obj/HAL/src/crt0.o (alt_main)
../heart_beets_bsp/\libhal_bsp.a(alt_malloc_lock.o)
                              c:/intelfpga/16.1/nios2eds/bin/gnu/h-x86_64-mingw32/bin/../lib/gcc/nios2-elf/5.3.0/../../../../../H-x86_64-mingw32/nios2-elf/lib\libc.a(lib_a-mallocr.o) (__malloc_lock)
../heart_beets_bsp/\libhal_bsp.a(alt_read.o)
                              c:/intelfpga/16.1/nios2eds/bin/gnu/h-x86_64-mingw32/bin/../lib/gcc/nios2-elf/5.3.0/../../../../../H-x86_64-mingw32/nios2-elf/lib\libc.a(lib_a-readr.o) (read)
../heart_beets_bsp/\libhal_bsp.a(alt_release_fd.o)
                              ../heart_beets_bsp/\libhal_bsp.a(alt_close.o) (alt_release_fd)
../heart_beets_bsp/\libhal_bsp.a(alt_sbrk.o)
                              c:/intelfpga/16.1/nios2eds/bin/gnu/h-x86_64-mingw32/bin/../lib/gcc/nios2-elf/5.3.0/../../../../../H-x86_64-mingw32/nios2-elf/lib\libc.a(lib_a-sbrkr.o) (sbrk)
../heart_beets_bsp/\libhal_bsp.a(alt_tick.o)
                              ../heart_beets_bsp/\libhal_bsp.a(alt_alarm_start.o) (_alt_tick_rate)
../heart_beets_bsp/\libhal_bsp.a(alt_write.o)
                              c:/intelfpga/16.1/nios2eds/bin/gnu/h-x86_64-mingw32/bin/../lib/gcc/nios2-elf/5.3.0/../../../../../H-x86_64-mingw32/nios2-elf/lib\libc.a(lib_a-writer.o) (write)
../heart_beets_bsp/\libhal_bsp.a(alt_sys_init.o)
                              ../heart_beets_bsp/\libhal_bsp.a(alt_main.o) (alt_irq_init)
../heart_beets_bsp/\libhal_bsp.a(altera_avalon_jtag_uart_fd.o)
                              ../heart_beets_bsp/\libhal_bsp.a(alt_sys_init.o) (altera_avalon_jtag_uart_read_fd)
../heart_beets_bsp/\libhal_bsp.a(altera_avalon_jtag_uart_init.o)
                              ../heart_beets_bsp/\libhal_bsp.a(alt_sys_init.o) (altera_avalon_jtag_uart_init)
../heart_beets_bsp/\libhal_bsp.a(altera_avalon_jtag_uart_ioctl.o)
                              ../heart_beets_bsp/\libhal_bsp.a(altera_avalon_jtag_uart_fd.o) (altera_avalon_jtag_uart_ioctl)
../heart_beets_bsp/\libhal_bsp.a(altera_avalon_jtag_uart_read.o)
                              ../heart_beets_bsp/\libhal_bsp.a(altera_avalon_jtag_uart_fd.o) (altera_avalon_jtag_uart_read)
../heart_beets_bsp/\libhal_bsp.a(altera_avalon_jtag_uart_write.o)
                              ../heart_beets_bsp/\libhal_bsp.a(altera_avalon_jtag_uart_fd.o) (altera_avalon_jtag_uart_write)
../heart_beets_bsp/\libhal_bsp.a(altera_avalon_lcd_16207.o)
                              ../heart_beets_bsp/\libhal_bsp.a(alt_sys_init.o) (altera_avalon_lcd_16207_init)
../heart_beets_bsp/\libhal_bsp.a(altera_avalon_lcd_16207_fd.o)
                              ../heart_beets_bsp/\libhal_bsp.a(alt_sys_init.o) (altera_avalon_lcd_16207_write_fd)
../heart_beets_bsp/\libhal_bsp.a(altera_avalon_timer_sc.o)
                              ../heart_beets_bsp/\libhal_bsp.a(alt_sys_init.o) (alt_avalon_timer_sc_init)
../heart_beets_bsp/\libhal_bsp.a(altera_avalon_uart_fd.o)
                              ../heart_beets_bsp/\libhal_bsp.a(alt_sys_init.o) (altera_avalon_uart_read_fd)
../heart_beets_bsp/\libhal_bsp.a(altera_avalon_uart_init.o)
                              ../heart_beets_bsp/\libhal_bsp.a(alt_sys_init.o) (altera_avalon_uart_init)
../heart_beets_bsp/\libhal_bsp.a(altera_avalon_uart_read.o)
                              ../heart_beets_bsp/\libhal_bsp.a(altera_avalon_uart_fd.o) (altera_avalon_uart_read)
../heart_beets_bsp/\libhal_bsp.a(altera_avalon_uart_write.o)
                              ../heart_beets_bsp/\libhal_bsp.a(altera_avalon_uart_fd.o) (altera_avalon_uart_write)
../heart_beets_bsp/\libhal_bsp.a(alt_dcache_flush_all.o)
                              ../heart_beets_bsp/\libhal_bsp.a(alt_load.o) (alt_dcache_flush_all)
../heart_beets_bsp/\libhal_bsp.a(alt_dev_llist_insert.o)
                              ../heart_beets_bsp/\libhal_bsp.a(alt_sys_init.o) (alt_dev_llist_insert)
../heart_beets_bsp/\libhal_bsp.a(alt_do_ctors.o)
                              ../heart_beets_bsp/\libhal_bsp.a(alt_main.o) (_do_ctors)
../heart_beets_bsp/\libhal_bsp.a(alt_do_dtors.o)
                              ../heart_beets_bsp/\libhal_bsp.a(alt_main.o) (_do_dtors)
../heart_beets_bsp/\libhal_bsp.a(alt_icache_flush_all.o)
                              ../heart_beets_bsp/\libhal_bsp.a(alt_load.o) (alt_icache_flush_all)
../heart_beets_bsp/\libhal_bsp.a(alt_iic.o)
                              ../heart_beets_bsp/\libhal_bsp.a(altera_avalon_jtag_uart_init.o) (alt_ic_isr_register)
../heart_beets_bsp/\libhal_bsp.a(alt_iic_isr_register.o)
                              ../heart_beets_bsp/\libhal_bsp.a(alt_iic.o) (alt_iic_isr_register)
../heart_beets_bsp/\libhal_bsp.a(alt_io_redirect.o)
                              ../heart_beets_bsp/\libhal_bsp.a(alt_main.o) (alt_io_redirect)
../heart_beets_bsp/\libhal_bsp.a(alt_irq_entry.o)
                              ../heart_beets_bsp/\libhal_bsp.a(alt_iic_isr_register.o) (alt_irq_entry)
../heart_beets_bsp/\libhal_bsp.a(alt_irq_handler.o)
                              ../heart_beets_bsp/\libhal_bsp.a(alt_iic_isr_register.o) (alt_irq)
../heart_beets_bsp/\libhal_bsp.a(alt_irq_vars.o)
                              ../heart_beets_bsp/\libhal_bsp.a(alt_iic.o) (alt_irq_active)
../heart_beets_bsp/\libhal_bsp.a(alt_open.o)
                              ../heart_beets_bsp/\libhal_bsp.a(alt_io_redirect.o) (open)
../heart_beets_bsp/\libhal_bsp.a(alt_usleep.o)
                              ../heart_beets_bsp/\libhal_bsp.a(altera_avalon_lcd_16207.o) (usleep)
../heart_beets_bsp/\libhal_bsp.a(altera_nios2_gen2_irq.o)
                              ../heart_beets_bsp/\libhal_bsp.a(alt_sys_init.o) (altera_nios2_gen2_irq_init)
../heart_beets_bsp/\libhal_bsp.a(alt_busy_sleep.o)
                              ../heart_beets_bsp/\libhal_bsp.a(alt_usleep.o) (alt_busy_sleep)
../heart_beets_bsp/\libhal_bsp.a(alt_exception_entry.o)
                              ../heart_beets_bsp/\libhal_bsp.a(alt_irq_entry.o) (alt_exception)
../heart_beets_bsp/\libhal_bsp.a(alt_find_dev.o)
                              ../heart_beets_bsp/\libhal_bsp.a(alt_open.o) (alt_find_dev)
../heart_beets_bsp/\libhal_bsp.a(alt_find_file.o)
                              ../heart_beets_bsp/\libhal_bsp.a(alt_open.o) (alt_find_file)
../heart_beets_bsp/\libhal_bsp.a(alt_get_fd.o)
                              ../heart_beets_bsp/\libhal_bsp.a(alt_open.o) (alt_get_fd)
../heart_beets_bsp/\libhal_bsp.a(alt_icache_flush.o)
                              ../heart_beets_bsp/\libhal_bsp.a(alt_icache_flush_all.o) (alt_icache_flush)
../heart_beets_bsp/\libhal_bsp.a(alt_instruction_exception_entry.o)
                              ../heart_beets_bsp/\libhal_bsp.a(alt_exception_entry.o) (alt_instruction_exception_entry)
c:/intelfpga/16.1/nios2eds/bin/gnu/h-x86_64-mingw32/bin/../lib/gcc/nios2-elf/5.3.0/../../../../../H-x86_64-mingw32/nios2-elf/lib\libc.a(lib_a-atexit.o)
                              ../heart_beets_bsp/\libhal_bsp.a(alt_main.o) (atexit)
c:/intelfpga/16.1/nios2eds/bin/gnu/h-x86_64-mingw32/bin/../lib/gcc/nios2-elf/5.3.0/../../../../../H-x86_64-mingw32/nios2-elf/lib\libc.a(lib_a-ctype_.o)
                              ../heart_beets_bsp/\libhal_bsp.a(altera_avalon_lcd_16207.o) (__ctype_ptr__)
c:/intelfpga/16.1/nios2eds/bin/gnu/h-x86_64-mingw32/bin/../lib/gcc/nios2-elf/5.3.0/../../../../../H-x86_64-mingw32/nios2-elf/lib\libc.a(lib_a-exit.o)
                              ../heart_beets_bsp/\libhal_bsp.a(alt_main.o) (exit)
c:/intelfpga/16.1/nios2eds/bin/gnu/h-x86_64-mingw32/bin/../lib/gcc/nios2-elf/5.3.0/../../../../../H-x86_64-mingw32/nios2-elf/lib\libc.a(lib_a-memcmp.o)
                              ../heart_beets_bsp/\libhal_bsp.a(alt_find_dev.o) (memcmp)
c:/intelfpga/16.1/nios2eds/bin/gnu/h-x86_64-mingw32/bin/../lib/gcc/nios2-elf/5.3.0/../../../../../H-x86_64-mingw32/nios2-elf/lib\libc.a(lib_a-__atexit.o)
                              c:/intelfpga/16.1/nios2eds/bin/gnu/h-x86_64-mingw32/bin/../lib/gcc/nios2-elf/5.3.0/../../../../../H-x86_64-mingw32/nios2-elf/lib\libc.a(lib_a-atexit.o) (__register_exitproc)
c:/intelfpga/16.1/nios2eds/bin/gnu/h-x86_64-mingw32/bin/../lib/gcc/nios2-elf/5.3.0/../../../../../H-x86_64-mingw32/nios2-elf/lib\libc.a(lib_a-__call_atexit.o)
                              c:/intelfpga/16.1/nios2eds/bin/gnu/h-x86_64-mingw32/bin/../lib/gcc/nios2-elf/5.3.0/../../../../../H-x86_64-mingw32/nios2-elf/lib\libc.a(lib_a-exit.o) (__call_exitprocs)
../heart_beets_bsp/\libhal_bsp.a(alt_exit.o)
                              c:/intelfpga/16.1/nios2eds/bin/gnu/h-x86_64-mingw32/bin/../lib/gcc/nios2-elf/5.3.0/../../../../../H-x86_64-mingw32/nios2-elf/lib\libc.a(lib_a-exit.o) (_exit)

Allocating common symbols
Common symbol       size              file

_cg81               0x1               obj/default/pacemaker.o
_cg42               0x1               obj/default/pacemaker.o
g83                 0x1               obj/default/pacemaker.o
g81b                0x1               obj/default/pacemaker.o
g40                 0x1               obj/default/pacemaker.o
_cg99               0x1               obj/default/pacemaker.o
g91                 0x1               obj/default/pacemaker.o
g38b                0x1               obj/default/pacemaker.o
APace               0x1               obj/default/pacemaker.o
alt_irq             0x100             ../heart_beets_bsp/\libhal_bsp.a(alt_irq_handler.o)
PRE_g95             0x1               obj/default/pacemaker.o
g4                  0x1               obj/default/pacemaker.o
g108                0x1               obj/default/pacemaker.o
g19                 0x1               obj/default/pacemaker.o
g111                0x1               obj/default/pacemaker.o
g55                 0x1               obj/default/pacemaker.o
_cg96               0x1               obj/default/pacemaker.o
_cg59               0x1               obj/default/pacemaker.o
g27                 0x1               obj/default/pacemaker.o
g124_fix0           0x1               obj/default/pacemaker.o
g112                0x1               obj/default/pacemaker.o
g87b                0x1               obj/default/pacemaker.o
g78b                0x1               obj/default/pacemaker.o
g33b                0x1               obj/default/pacemaker.o
g3                  0x1               obj/default/pacemaker.o
Ventricular_timer   0x18              obj/default/hello_world.o
g103                0x1               obj/default/pacemaker.o
g47                 0x1               obj/default/pacemaker.o
g85                 0x1               obj/default/pacemaker.o
g42                 0x1               obj/default/pacemaker.o
g9                  0x1               obj/default/pacemaker.o
g127                0x1               obj/default/pacemaker.o
LRITO               0x1               obj/default/pacemaker.o
g114b               0x1               obj/default/pacemaker.o
_PRE_GO             0x4               obj/default/pacemaker.o
PRE_g3              0x1               obj/default/pacemaker.o
g102                0x1               obj/default/pacemaker.o
PRE_g29             0x1               obj/default/pacemaker.o
g96b                0x1               obj/default/pacemaker.o
g115                0x1               obj/default/pacemaker.o
AVI_start           0x1               obj/default/pacemaker.o
PRE_g121            0x1               obj/default/pacemaker.o
_cg15               0x1               obj/default/pacemaker.o
PRE_g56             0x1               obj/default/pacemaker.o
errno               0x4               c:/intelfpga/16.1/nios2eds/bin/gnu/h-x86_64-mingw32/bin/../lib/gcc/nios2-elf/5.3.0/../../../../../H-x86_64-mingw32/nios2-elf/lib\libc.a(lib_a-int_errno.o)
PRE_g32             0x1               obj/default/pacemaker.o
g87                 0x1               obj/default/pacemaker.o
g44                 0x1               obj/default/pacemaker.o
g123                0x1               obj/default/pacemaker.o
_cg12               0x1               obj/default/pacemaker.o
_cg8                0x1               obj/default/pacemaker.o
_Pacemaker1_local__reg_FilteredVSense16
                    0x1               obj/default/pacemaker.o
PRE_g20             0x1               obj/default/pacemaker.o
AVI_stop            0x1               obj/default/pacemaker.o
g104b               0x1               obj/default/pacemaker.o
g92                 0x1               obj/default/pacemaker.o
g1                  0x1               obj/default/pacemaker.o
g61                 0x1               obj/default/pacemaker.o
g71                 0x1               obj/default/pacemaker.o
g126                0x1               obj/default/pacemaker.o
g75_e7              0x1               obj/default/pacemaker.o
g82                 0x1               obj/default/pacemaker.o
_cg33               0x1               obj/default/pacemaker.o
PRE_g69             0x1               obj/default/pacemaker.o
_cg98               0x1               obj/default/pacemaker.o
g12                 0x1               obj/default/pacemaker.o
g97                 0x1               obj/default/pacemaker.o
g52                 0x1               obj/default/pacemaker.o
_cg46               0x1               obj/default/pacemaker.o
_cg35               0x1               obj/default/pacemaker.o
_cg74               0x1               obj/default/pacemaker.o
g17                 0x1               obj/default/pacemaker.o
PRE_g77             0x1               obj/default/pacemaker.o
PRE_g34             0x1               obj/default/pacemaker.o
g61b                0x1               obj/default/pacemaker.o
g76                 0x1               obj/default/pacemaker.o
g31                 0x1               obj/default/pacemaker.o
g37                 0x1               obj/default/pacemaker.o
g128_e2             0x1               obj/default/pacemaker.o
_cg104              0x1               obj/default/pacemaker.o
g62                 0x1               obj/default/pacemaker.o
PVARP_timer         0x18              obj/default/hello_world.o
g84                 0x1               obj/default/pacemaker.o
g41                 0x1               obj/default/pacemaker.o
_cg61               0x1               obj/default/pacemaker.o
_cg26               0x1               obj/default/pacemaker.o
g118                0x1               obj/default/pacemaker.o
g18                 0x1               obj/default/pacemaker.o
ASense              0x1               obj/default/pacemaker.o
VRP_timer           0x18              obj/default/hello_world.o
g15b                0x1               obj/default/pacemaker.o
PRE_g53             0x1               obj/default/pacemaker.o
g132                0x1               obj/default/pacemaker.o
g48                 0x1               obj/default/pacemaker.o
_Pacemaker1_local_VRP_ex
                    0x1               obj/default/pacemaker.o
g124_fix3           0x1               obj/default/pacemaker.o
g38                 0x1               obj/default/pacemaker.o
g105                0x1               obj/default/pacemaker.o
_Pacemaker1_local__pre_AVI_ex16
                    0x1               obj/default/pacemaker.o
_cg21               0x1               obj/default/pacemaker.o
Atrial_timer        0x18              obj/default/hello_world.o
g30b                0x1               obj/default/pacemaker.o
g117                0x1               obj/default/pacemaker.o
_cg82               0x1               obj/default/pacemaker.o
_cg63               0x1               obj/default/pacemaker.o
PRE_g111            0x1               obj/default/pacemaker.o
g64                 0x1               obj/default/pacemaker.o
g21                 0x1               obj/default/pacemaker.o
g79                 0x1               obj/default/pacemaker.o
g34                 0x1               obj/default/pacemaker.o
g5                  0x1               obj/default/pacemaker.o
g94                 0x1               obj/default/pacemaker.o
g110                0x1               obj/default/pacemaker.o
g49                 0x1               obj/default/pacemaker.o
_Pacemaker1_local_PVARP_ex
                    0x1               obj/default/pacemaker.o
g2                  0x1               obj/default/pacemaker.o
g7                  0x1               obj/default/pacemaker.o
_cg90               0x1               obj/default/pacemaker.o
_cg16               0x1               obj/default/pacemaker.o
g80                 0x1               obj/default/pacemaker.o
PRE_g80             0x1               obj/default/pacemaker.o
g128                0x1               obj/default/pacemaker.o
g100                0x1               obj/default/pacemaker.o
g59                 0x1               obj/default/pacemaker.o
g99                 0x1               obj/default/pacemaker.o
g54                 0x1               obj/default/pacemaker.o
g66                 0x1               obj/default/pacemaker.o
g23                 0x1               obj/default/pacemaker.o
_cg87               0x1               obj/default/pacemaker.o
_cg48               0x1               obj/default/pacemaker.o
g124_fix1           0x1               obj/default/pacemaker.o
PRE_g71             0x1               obj/default/pacemaker.o
g14                 0x1               obj/default/pacemaker.o
_cg6                0x1               obj/default/pacemaker.o
g9_e1               0x1               obj/default/pacemaker.o
g101                0x1               obj/default/pacemaker.o
_Pacemaker1_local_AEI_ex
                    0x1               obj/default/pacemaker.o
g124_e1_fix_fix     0x1               obj/default/pacemaker.o
_Pacemaker1_local_FilteredVSense
                    0x1               obj/default/pacemaker.o
g114                0x1               obj/default/pacemaker.o
g56                 0x1               obj/default/pacemaker.o
g129                0x1               obj/default/pacemaker.o
g131                0x1               obj/default/pacemaker.o
VSense              0x1               obj/default/pacemaker.o
_cg114              0x1               obj/default/pacemaker.o
g78                 0x1               obj/default/pacemaker.o
g33                 0x1               obj/default/pacemaker.o
VRP_start           0x1               obj/default/pacemaker.o
g123_e14            0x1               obj/default/pacemaker.o
_Pacemaker1_local_LRI_stop
                    0x1               obj/default/pacemaker.o
g122                0x1               obj/default/pacemaker.o
URI_ex              0x1               obj/default/pacemaker.o
g35b                0x1               obj/default/pacemaker.o
_Pacemaker1_local_LRI_ex
                    0x1               obj/default/pacemaker.o
PRE_g22             0x1               obj/default/pacemaker.o
_Pacemaker1_local_FilteredASense
                    0x1               obj/default/pacemaker.o
PRE_g126            0x1               obj/default/pacemaker.o
_cg64               0x1               obj/default/pacemaker.o
AVI_timer           0x18              obj/default/hello_world.o
LRI_timer           0x18              obj/default/hello_world.o
_reg_VPace9         0x1               obj/default/pacemaker.o
g35                 0x1               obj/default/pacemaker.o
g15                 0x1               obj/default/pacemaker.o
g90                 0x1               obj/default/pacemaker.o
g84_e8              0x1               obj/default/pacemaker.o
_GO                 0x1               obj/default/pacemaker.o
g89b                0x1               obj/default/pacemaker.o
g46b                0x1               obj/default/pacemaker.o
LRI_start           0x1               obj/default/pacemaker.o
URITO               0x1               obj/default/pacemaker.o
VRPTO               0x1               obj/default/pacemaker.o
PRE_g11             0x1               obj/default/pacemaker.o
g43_e4              0x1               obj/default/pacemaker.o
g121b               0x1               obj/default/pacemaker.o
g27_e3              0x1               obj/default/pacemaker.o
g63                 0x1               obj/default/pacemaker.o
g20                 0x1               obj/default/pacemaker.o
AVITO               0x1               obj/default/pacemaker.o
g60                 0x1               obj/default/pacemaker.o
g115_e12            0x1               obj/default/pacemaker.o
g124_fix2           0x1               obj/default/pacemaker.o
AEI_timer           0x18              obj/default/hello_world.o
g23b                0x1               obj/default/pacemaker.o
g93                 0x1               obj/default/pacemaker.o
g119                0x1               obj/default/pacemaker.o
PRE_g47             0x1               obj/default/pacemaker.o
g21b                0x1               obj/default/pacemaker.o
PRE_g97             0x1               obj/default/pacemaker.o
g86                 0x1               obj/default/pacemaker.o
g43                 0x1               obj/default/pacemaker.o
_Pacemaker1_local__pre_FilteredVSense16
                    0x1               obj/default/pacemaker.o
PRE_g113            0x1               obj/default/pacemaker.o
PRE_g88             0x1               obj/default/pacemaker.o
_Pacemaker1_local_AVI_ex
                    0x1               obj/default/pacemaker.o
g98b                0x1               obj/default/pacemaker.o
PVARPTO             0x1               obj/default/pacemaker.o
PRE_g14             0x1               obj/default/pacemaker.o
g36                 0x1               obj/default/pacemaker.o
g124_e1             0x1               obj/default/pacemaker.o
URI_timer           0x18              obj/default/hello_world.o
g89                 0x1               obj/default/pacemaker.o
g46                 0x1               obj/default/pacemaker.o
VRP_stop            0x1               obj/default/pacemaker.o
PVARP_start         0x1               obj/default/pacemaker.o
_Pacemaker1_local__reg_AVI_ex16
                    0x1               obj/default/pacemaker.o
_cg106              0x1               obj/default/pacemaker.o
g57b                0x1               obj/default/pacemaker.o
PVARP_stop          0x1               obj/default/pacemaker.o
g132_e3             0x1               obj/default/pacemaker.o
g95                 0x1               obj/default/pacemaker.o
g50                 0x1               obj/default/pacemaker.o
g96                 0x1               obj/default/pacemaker.o
g51                 0x1               obj/default/pacemaker.o
PRE_g103            0x1               obj/default/pacemaker.o
PRE_g60             0x1               obj/default/pacemaker.o
_cg70               0x1               obj/default/pacemaker.o
g107                0x1               obj/default/pacemaker.o
g113                0x1               obj/default/pacemaker.o
_cg78               0x1               obj/default/pacemaker.o
g18_e2              0x1               obj/default/pacemaker.o
g51_e5              0x1               obj/default/pacemaker.o
_cg112              0x1               obj/default/pacemaker.o
g104                0x1               obj/default/pacemaker.o
PRE_g130            0x1               obj/default/pacemaker.o
g13                 0x1               obj/default/pacemaker.o
PRE_g86             0x1               obj/default/pacemaker.o
g98                 0x1               obj/default/pacemaker.o
g53                 0x1               obj/default/pacemaker.o
g8                  0x1               obj/default/pacemaker.o
g57                 0x1               obj/default/pacemaker.o
AEI_start           0x1               obj/default/pacemaker.o
g70                 0x1               obj/default/pacemaker.o
_cg66               0x1               obj/default/pacemaker.o
g116                0x1               obj/default/pacemaker.o
g6                  0x1               obj/default/pacemaker.o
g72                 0x1               obj/default/pacemaker.o
g81                 0x1               obj/default/pacemaker.o
g124                0x1               obj/default/pacemaker.o
_cg108              0x1               obj/default/pacemaker.o
g119_e13            0x1               obj/default/pacemaker.o
g0                  0x1               obj/default/pacemaker.o
_cg89               0x1               obj/default/pacemaker.o
_cg54               0x1               obj/default/pacemaker.o
g75                 0x1               obj/default/pacemaker.o
g30                 0x1               obj/default/pacemaker.o
_cg40               0x1               obj/default/pacemaker.o
g67_e6              0x1               obj/default/pacemaker.o
_cg30               0x1               obj/default/pacemaker.o
g16                 0x1               obj/default/pacemaker.o
g70b                0x1               obj/default/pacemaker.o
_cg24               0x1               obj/default/pacemaker.o
g58                 0x1               obj/default/pacemaker.o
_cg57               0x1               obj/default/pacemaker.o
g68                 0x1               obj/default/pacemaker.o
g25                 0x1               obj/default/pacemaker.o
g124_fix4           0x1               obj/default/pacemaker.o
g11                 0x1               obj/default/pacemaker.o
g65                 0x1               obj/default/pacemaker.o
g22                 0x1               obj/default/pacemaker.o
g28                 0x1               obj/default/pacemaker.o
g73                 0x1               obj/default/pacemaker.o
g54b                0x1               obj/default/pacemaker.o
g93_e9              0x1               obj/default/pacemaker.o
g125                0x1               obj/default/pacemaker.o
g124_e1_fix         0x1               obj/default/pacemaker.o
g77                 0x1               obj/default/pacemaker.o
g32                 0x1               obj/default/pacemaker.o
g88                 0x1               obj/default/pacemaker.o
g45                 0x1               obj/default/pacemaker.o
_cg23               0x1               obj/default/pacemaker.o
g101_e10            0x1               obj/default/pacemaker.o
_cg92               0x1               obj/default/pacemaker.o
PRE_g45             0x1               obj/default/pacemaker.o
g130                0x1               obj/default/pacemaker.o
PRE_g5              0x1               obj/default/pacemaker.o
g121                0x1               obj/default/pacemaker.o
VPace               0x1               obj/default/pacemaker.o
g12b                0x1               obj/default/pacemaker.o
g39                 0x1               obj/default/pacemaker.o
_cg49               0x1               obj/default/pacemaker.o
g120                0x1               obj/default/pacemaker.o
PRE_g105            0x1               obj/default/pacemaker.o
g29                 0x1               obj/default/pacemaker.o
_cg4                0x1               obj/default/pacemaker.o
g67                 0x1               obj/default/pacemaker.o
g24                 0x1               obj/default/pacemaker.o
g133                0x1               obj/default/pacemaker.o
g112b               0x1               obj/default/pacemaker.o
AEI_stop            0x1               obj/default/pacemaker.o
g109                0x1               obj/default/pacemaker.o
_pre_VPace9         0x1               obj/default/pacemaker.o
URI_start           0x1               obj/default/pacemaker.o
g4b                 0x1               obj/default/pacemaker.o
g106                0x1               obj/default/pacemaker.o
g10                 0x1               obj/default/pacemaker.o
g48b                0x1               obj/default/pacemaker.o
PRE_g117            0x1               obj/default/pacemaker.o
AEITO               0x1               obj/default/pacemaker.o
g69                 0x1               obj/default/pacemaker.o
g26                 0x1               obj/default/pacemaker.o
_cg72               0x1               obj/default/pacemaker.o
_cg39               0x1               obj/default/pacemaker.o
PRE_g37             0x1               obj/default/pacemaker.o
g109_e11            0x1               obj/default/pacemaker.o
g74                 0x1               obj/default/pacemaker.o

Memory Configuration

Name             Origin             Length             Attributes
reset            0x0000000000800000 0x0000000000000020
sdram            0x0000000000800020 0x00000000007fffe0
onchip_mem       0x0000000001080000 0x0000000000007800
*default*        0x0000000000000000 0xffffffffffffffff

Linker script and memory map

LOAD ../heart_beets_bsp//obj/HAL/src/crt0.o
LOAD obj/default/hello_world.o
LOAD obj/default/pacemaker.o
LOAD c:/intelfpga/16.1/nios2eds/bin/gnu/h-x86_64-mingw32/bin/../lib/gcc/nios2-elf/5.3.0/../../../../../H-x86_64-mingw32/nios2-elf/lib\libstdc++.a
LOAD c:/intelfpga/16.1/nios2eds/bin/gnu/h-x86_64-mingw32/bin/../lib/gcc/nios2-elf/5.3.0/../../../../../H-x86_64-mingw32/nios2-elf/lib\libm.a
LOAD c:/intelfpga/16.1/nios2eds/bin/gnu/h-x86_64-mingw32/bin/../lib/gcc/nios2-elf/5.3.0\libgcc.a
START GROUP
LOAD c:/intelfpga/16.1/nios2eds/bin/gnu/h-x86_64-mingw32/bin/../lib/gcc/nios2-elf/5.3.0/../../../../../H-x86_64-mingw32/nios2-elf/lib\libc.a
LOAD c:/intelfpga/16.1/nios2eds/bin/gnu/h-x86_64-mingw32/bin/../lib/gcc/nios2-elf/5.3.0\libgcc.a
LOAD ../heart_beets_bsp/\libhal_bsp.a
LOAD c:/intelfpga/16.1/nios2eds/bin/gnu/h-x86_64-mingw32/bin/../lib/gcc/nios2-elf/5.3.0/../../../../../H-x86_64-mingw32/nios2-elf/lib\libm.a
END GROUP
LOAD c:/intelfpga/16.1/nios2eds/bin/gnu/h-x86_64-mingw32/bin/../lib/gcc/nios2-elf/5.3.0\libgcc.a
                0x0000000000800000                __alt_mem_sdram = 0x800000
                0x0000000001080000                __alt_mem_onchip_mem = 0x1080000

.entry          0x0000000000800000       0x20
 *(.entry)
 .entry         0x0000000000800000       0x20 ../heart_beets_bsp//obj/HAL/src/crt0.o
                0x0000000000800000                __reset

.exceptions     0x0000000000800020      0x224
                0x0000000000800020                PROVIDE (__ram_exceptions_start, ABSOLUTE (.))
                0x0000000000800020                . = ALIGN (0x20)
 *(.irq)
 *(.exceptions.entry.label)
 .exceptions.entry.label
                0x0000000000800020        0x0 ../heart_beets_bsp/\libhal_bsp.a(alt_irq_entry.o)
                0x0000000000800020                alt_irq_entry
 .exceptions.entry.label
                0x0000000000800020        0x0 ../heart_beets_bsp/\libhal_bsp.a(alt_exception_entry.o)
                0x0000000000800020                alt_exception
 *(.exceptions.entry.user)
 *(.exceptions.entry.ecc_fatal)
 *(.exceptions.entry)
 .exceptions.entry
                0x0000000000800020       0x54 ../heart_beets_bsp/\libhal_bsp.a(alt_exception_entry.o)
 *(.exceptions.irqtest.user)
 *(.exceptions.irqtest)
 .exceptions.irqtest
                0x0000000000800074       0x10 ../heart_beets_bsp/\libhal_bsp.a(alt_irq_entry.o)
 *(.exceptions.irqhandler.user)
 *(.exceptions.irqhandler)
 .exceptions.irqhandler
                0x0000000000800084        0x4 ../heart_beets_bsp/\libhal_bsp.a(alt_irq_entry.o)
 *(.exceptions.irqreturn.user)
 *(.exceptions.irqreturn)
 .exceptions.irqreturn
                0x0000000000800088        0x4 ../heart_beets_bsp/\libhal_bsp.a(alt_irq_entry.o)
 *(.exceptions.notirq.label)
 .exceptions.notirq.label
                0x000000000080008c        0x0 ../heart_beets_bsp/\libhal_bsp.a(alt_irq_entry.o)
 *(.exceptions.notirq.user)
 *(.exceptions.notirq)
 .exceptions.notirq
                0x000000000080008c        0x8 ../heart_beets_bsp/\libhal_bsp.a(alt_exception_entry.o)
 *(.exceptions.soft.user)
 *(.exceptions.soft)
 *(.exceptions.unknown.user)
 *(.exceptions.unknown)
 .exceptions.unknown
                0x0000000000800094       0x14 ../heart_beets_bsp/\libhal_bsp.a(alt_exception_entry.o)
 *(.exceptions.exit.label)
 .exceptions.exit.label
                0x00000000008000a8        0x0 ../heart_beets_bsp/\libhal_bsp.a(alt_irq_entry.o)
 .exceptions.exit.label
                0x00000000008000a8        0x0 ../heart_beets_bsp/\libhal_bsp.a(alt_exception_entry.o)
 *(.exceptions.exit.user)
 *(.exceptions.exit)
 .exceptions.exit
                0x00000000008000a8       0x54 ../heart_beets_bsp/\libhal_bsp.a(alt_exception_entry.o)
 *(.exceptions)
 .exceptions    0x00000000008000fc       0xd4 ../heart_beets_bsp/\libhal_bsp.a(alt_irq_handler.o)
                0x00000000008000fc                alt_irq_handler
 .exceptions    0x00000000008001d0       0x74 ../heart_beets_bsp/\libhal_bsp.a(alt_instruction_exception_entry.o)
                0x00000000008001d0                alt_instruction_exception_entry
                0x0000000000800244                PROVIDE (__ram_exceptions_end, ABSOLUTE (.))
                0x0000000000800020                PROVIDE (__flash_exceptions_start, LOADADDR (.exceptions))

.text           0x0000000000800244     0x9bec
                [!provide]                        PROVIDE (stext, ABSOLUTE (.))
 *(.interp)
 *(.hash)
 *(.dynsym)
 *(.dynstr)
 *(.gnu.version)
 *(.gnu.version_d)
 *(.gnu.version_r)
 *(.rel.init)
 *(.rela.init)
 *(.rel.text .rel.text.* .rel.gnu.linkonce.t.*)
 *(.rela.text .rela.text.* .rela.gnu.linkonce.t.*)
 *(.rel.fini)
 *(.rela.fini)
 *(.rel.rodata .rel.rodata.* .rel.gnu.linkonce.r.*)
 *(.rela.rodata .rela.rodata.* .rela.gnu.linkonce.r.*)
 *(.rel.data .rel.data.* .rel.gnu.linkonce.d.*)
 *(.rela.data .rela.data.* .rela.gnu.linkonce.d.*)
 *(.rel.tdata .rel.tdata.* .rel.gnu.linkonce.td.*)
 *(.rela.tdata .rela.tdata.* .rela.gnu.linkonce.td.*)
 *(.rel.tbss .rel.tbss.* .rel.gnu.linkonce.tb.*)
 *(.rela.tbss .rela.tbss.* .rela.gnu.linkonce.tb.*)
 *(.rel.ctors)
 *(.rela.ctors)
 *(.rel.dtors)
 *(.rela.dtors)
 *(.rel.got)
 *(.rela.got)
 *(.rel.sdata .rel.sdata.* .rel.gnu.linkonce.s.*)
 *(.rela.sdata .rela.sdata.* .rela.gnu.linkonce.s.*)
 *(.rel.sbss .rel.sbss.* .rel.gnu.linkonce.sb.*)
 *(.rela.sbss .rela.sbss.* .rela.gnu.linkonce.sb.*)
 *(.rel.sdata2 .rel.sdata2.* .rel.gnu.linkonce.s2.*)
 *(.rela.sdata2 .rela.sdata2.* .rela.gnu.linkonce.s2.*)
 *(.rel.sbss2 .rel.sbss2.* .rel.gnu.linkonce.sb2.*)
 *(.rela.sbss2 .rela.sbss2.* .rela.gnu.linkonce.sb2.*)
 *(.rel.bss .rel.bss.* .rel.gnu.linkonce.b.*)
 *(.rela.bss .rela.bss.* .rela.gnu.linkonce.b.*)
 *(.rel.plt)
 *(.rela.plt)
 *(.rel.dyn)
 *(.init)
 *(.plt)
 *(.text .stub .text.* .gnu.linkonce.t.*)
 .text          0x0000000000800244       0x4c ../heart_beets_bsp//obj/HAL/src/crt0.o
                0x0000000000800244                _start
 .text          0x0000000000800290      0x67c obj/default/hello_world.o
                0x0000000000800290                Atrial_timer_ISR
                0x00000000008002b8                Ventricular_timer_ISR
                0x00000000008002e0                AVI_timer_ISR
                0x0000000000800320                PVARP_timer_ISR
                0x0000000000800360                VRP_timer_ISR
                0x00000000008003a0                AEI_timer_ISR
                0x00000000008003e0                LRI_timer_ISR
                0x0000000000800420                URI_timer_ISR
                0x0000000000800460                pollButtons
                0x00000000008004e8                heartLEDs
                0x0000000000800638                startTimers
                0x00000000008008dc                main
 .text          0x000000000080090c     0x2638 obj/default/pacemaker.o
                0x000000000080090c                reset
                0x00000000008009b4                tick
 .text          0x0000000000802f44        0x0 c:/intelfpga/16.1/nios2eds/bin/gnu/h-x86_64-mingw32/bin/../lib/gcc/nios2-elf/5.3.0/../../../../../H-x86_64-mingw32/nios2-elf/lib\libc.a(lib_a-puts.o)
 .text._puts_r  0x0000000000802f44       0xc0 c:/intelfpga/16.1/nios2eds/bin/gnu/h-x86_64-mingw32/bin/../lib/gcc/nios2-elf/5.3.0/../../../../../H-x86_64-mingw32/nios2-elf/lib\libc.a(lib_a-puts.o)
                0x0000000000802f44                _puts_r
 .text.puts     0x0000000000803004       0x14 c:/intelfpga/16.1/nios2eds/bin/gnu/h-x86_64-mingw32/bin/../lib/gcc/nios2-elf/5.3.0/../../../../../H-x86_64-mingw32/nios2-elf/lib\libc.a(lib_a-puts.o)
                0x0000000000803004                puts
 .text          0x0000000000803018        0x0 c:/intelfpga/16.1/nios2eds/bin/gnu/h-x86_64-mingw32/bin/../lib/gcc/nios2-elf/5.3.0/../../../../../H-x86_64-mingw32/nios2-elf/lib\libc.a(lib_a-strlen.o)
 .text.strlen   0x0000000000803018       0x98 c:/intelfpga/16.1/nios2eds/bin/gnu/h-x86_64-mingw32/bin/../lib/gcc/nios2-elf/5.3.0/../../../../../H-x86_64-mingw32/nios2-elf/lib\libc.a(lib_a-strlen.o)
                0x0000000000803018                strlen
 .text          0x00000000008030b0        0x0 c:/intelfpga/16.1/nios2eds/bin/gnu/h-x86_64-mingw32/bin/../lib/gcc/nios2-elf/5.3.0/../../../../../H-x86_64-mingw32/nios2-elf/lib\libc.a(lib_a-findfp.o)
 .text.__fp_unlock
                0x00000000008030b0        0x8 c:/intelfpga/16.1/nios2eds/bin/gnu/h-x86_64-mingw32/bin/../lib/gcc/nios2-elf/5.3.0/../../../../../H-x86_64-mingw32/nios2-elf/lib\libc.a(lib_a-findfp.o)
 .text._cleanup_r
                0x00000000008030b8        0xc c:/intelfpga/16.1/nios2eds/bin/gnu/h-x86_64-mingw32/bin/../lib/gcc/nios2-elf/5.3.0/../../../../../H-x86_64-mingw32/nios2-elf/lib\libc.a(lib_a-findfp.o)
                0x00000000008030b8                _cleanup_r
 .text.__sinit.part.1
                0x00000000008030c4      0x19c c:/intelfpga/16.1/nios2eds/bin/gnu/h-x86_64-mingw32/bin/../lib/gcc/nios2-elf/5.3.0/../../../../../H-x86_64-mingw32/nios2-elf/lib\libc.a(lib_a-findfp.o)
 .text.__fp_lock
                0x0000000000803260        0x8 c:/intelfpga/16.1/nios2eds/bin/gnu/h-x86_64-mingw32/bin/../lib/gcc/nios2-elf/5.3.0/../../../../../H-x86_64-mingw32/nios2-elf/lib\libc.a(lib_a-findfp.o)
 .text.__sfmoreglue
                0x0000000000803268       0x68 c:/intelfpga/16.1/nios2eds/bin/gnu/h-x86_64-mingw32/bin/../lib/gcc/nios2-elf/5.3.0/../../../../../H-x86_64-mingw32/nios2-elf/lib\libc.a(lib_a-findfp.o)
                0x0000000000803268                __sfmoreglue
 .text.__sfp    0x00000000008032d0      0x118 c:/intelfpga/16.1/nios2eds/bin/gnu/h-x86_64-mingw32/bin/../lib/gcc/nios2-elf/5.3.0/../../../../../H-x86_64-mingw32/nios2-elf/lib\libc.a(lib_a-findfp.o)
                0x00000000008032d0                __sfp
 .text._cleanup
                0x00000000008033e8       0x18 c:/intelfpga/16.1/nios2eds/bin/gnu/h-x86_64-mingw32/bin/../lib/gcc/nios2-elf/5.3.0/../../../../../H-x86_64-mingw32/nios2-elf/lib\libc.a(lib_a-findfp.o)
                0x00000000008033e8                _cleanup
 .text.__sinit  0x0000000000803400       0x10 c:/intelfpga/16.1/nios2eds/bin/gnu/h-x86_64-mingw32/bin/../lib/gcc/nios2-elf/5.3.0/../../../../../H-x86_64-mingw32/nios2-elf/lib\libc.a(lib_a-findfp.o)
                0x0000000000803400                __sinit
 .text.__sfp_lock_acquire
                0x0000000000803410        0x4 c:/intelfpga/16.1/nios2eds/bin/gnu/h-x86_64-mingw32/bin/../lib/gcc/nios2-elf/5.3.0/../../../../../H-x86_64-mingw32/nios2-elf/lib\libc.a(lib_a-findfp.o)
                0x0000000000803410                __sfp_lock_acquire
 .text.__sfp_lock_release
                0x0000000000803414        0x4 c:/intelfpga/16.1/nios2eds/bin/gnu/h-x86_64-mingw32/bin/../lib/gcc/nios2-elf/5.3.0/../../../../../H-x86_64-mingw32/nios2-elf/lib\libc.a(lib_a-findfp.o)
                0x0000000000803414                __sfp_lock_release
 .text.__sinit_lock_acquire
                0x0000000000803418        0x4 c:/intelfpga/16.1/nios2eds/bin/gnu/h-x86_64-mingw32/bin/../lib/gcc/nios2-elf/5.3.0/../../../../../H-x86_64-mingw32/nios2-elf/lib\libc.a(lib_a-findfp.o)
                0x0000000000803418                __sinit_lock_acquire
 .text.__sinit_lock_release
                0x000000000080341c        0x4 c:/intelfpga/16.1/nios2eds/bin/gnu/h-x86_64-mingw32/bin/../lib/gcc/nios2-elf/5.3.0/../../../../../H-x86_64-mingw32/nios2-elf/lib\libc.a(lib_a-findfp.o)
                0x000000000080341c                __sinit_lock_release
 .text.__fp_lock_all
                0x0000000000803420       0x18 c:/intelfpga/16.1/nios2eds/bin/gnu/h-x86_64-mingw32/bin/../lib/gcc/nios2-elf/5.3.0/../../../../../H-x86_64-mingw32/nios2-elf/lib\libc.a(lib_a-findfp.o)
                0x0000000000803420                __fp_lock_all
 .text.__fp_unlock_all
                0x0000000000803438       0x18 c:/intelfpga/16.1/nios2eds/bin/gnu/h-x86_64-mingw32/bin/../lib/gcc/nios2-elf/5.3.0/../../../../../H-x86_64-mingw32/nios2-elf/lib\libc.a(lib_a-findfp.o)
                0x0000000000803438                __fp_unlock_all
 .text          0x0000000000803450        0x0 c:/intelfpga/16.1/nios2eds/bin/gnu/h-x86_64-mingw32/bin/../lib/gcc/nios2-elf/5.3.0/../../../../../H-x86_64-mingw32/nios2-elf/lib\libc.a(lib_a-fvwrite.o)
 .text.__sfvwrite_r
                0x0000000000803450      0x4bc c:/intelfpga/16.1/nios2eds/bin/gnu/h-x86_64-mingw32/bin/../lib/gcc/nios2-elf/5.3.0/../../../../../H-x86_64-mingw32/nios2-elf/lib\libc.a(lib_a-fvwrite.o)
                0x0000000000803450                __sfvwrite_r
 .text          0x000000000080390c        0x0 c:/intelfpga/16.1/nios2eds/bin/gnu/h-x86_64-mingw32/bin/../lib/gcc/nios2-elf/5.3.0/../../../../../H-x86_64-mingw32/nios2-elf/lib\libc.a(lib_a-fwalk.o)
 .text._fwalk   0x000000000080390c       0xc4 c:/intelfpga/16.1/nios2eds/bin/gnu/h-x86_64-mingw32/bin/../lib/gcc/nios2-elf/5.3.0/../../../../../H-x86_64-mingw32/nios2-elf/lib\libc.a(lib_a-fwalk.o)
                0x000000000080390c                _fwalk
 .text._fwalk_reent
                0x00000000008039d0       0xc4 c:/intelfpga/16.1/nios2eds/bin/gnu/h-x86_64-mingw32/bin/../lib/gcc/nios2-elf/5.3.0/../../../../../H-x86_64-mingw32/nios2-elf/lib\libc.a(lib_a-fwalk.o)
                0x00000000008039d0                _fwalk_reent
 .text          0x0000000000803a94        0x0 c:/intelfpga/16.1/nios2eds/bin/gnu/h-x86_64-mingw32/bin/../lib/gcc/nios2-elf/5.3.0/../../../../../H-x86_64-mingw32/nios2-elf/lib\libc.a(lib_a-impure.o)
 .text          0x0000000000803a94        0x0 c:/intelfpga/16.1/nios2eds/bin/gnu/h-x86_64-mingw32/bin/../lib/gcc/nios2-elf/5.3.0/../../../../../H-x86_64-mingw32/nios2-elf/lib\libc.a(lib_a-mallocr.o)
 .text._malloc_r
                0x0000000000803a94      0x80c c:/intelfpga/16.1/nios2eds/bin/gnu/h-x86_64-mingw32/bin/../lib/gcc/nios2-elf/5.3.0/../../../../../H-x86_64-mingw32/nios2-elf/lib\libc.a(lib_a-mallocr.o)
                0x0000000000803a94                _malloc_r
 .text          0x00000000008042a0        0x0 c:/intelfpga/16.1/nios2eds/bin/gnu/h-x86_64-mingw32/bin/../lib/gcc/nios2-elf/5.3.0/../../../../../H-x86_64-mingw32/nios2-elf/lib\libc.a(lib_a-memchr.o)
 .text.memchr   0x00000000008042a0       0xe4 c:/intelfpga/16.1/nios2eds/bin/gnu/h-x86_64-mingw32/bin/../lib/gcc/nios2-elf/5.3.0/../../../../../H-x86_64-mingw32/nios2-elf/lib\libc.a(lib_a-memchr.o)
                0x00000000008042a0                memchr
 .text          0x0000000000804384        0x0 c:/intelfpga/16.1/nios2eds/bin/gnu/h-x86_64-mingw32/bin/../lib/gcc/nios2-elf/5.3.0/../../../../../H-x86_64-mingw32/nios2-elf/lib\libc.a(lib_a-memcpy.o)
 .text.memcpy   0x0000000000804384      0x148 c:/intelfpga/16.1/nios2eds/bin/gnu/h-x86_64-mingw32/bin/../lib/gcc/nios2-elf/5.3.0/../../../../../H-x86_64-mingw32/nios2-elf/lib\libc.a(lib_a-memcpy.o)
                0x0000000000804384                memcpy
 .text          0x00000000008044cc        0x0 c:/intelfpga/16.1/nios2eds/bin/gnu/h-x86_64-mingw32/bin/../lib/gcc/nios2-elf/5.3.0/../../../../../H-x86_64-mingw32/nios2-elf/lib\libc.a(lib_a-memmove.o)
 .text.memmove  0x00000000008044cc      0x15c c:/intelfpga/16.1/nios2eds/bin/gnu/h-x86_64-mingw32/bin/../lib/gcc/nios2-elf/5.3.0/../../../../../H-x86_64-mingw32/nios2-elf/lib\libc.a(lib_a-memmove.o)
                0x00000000008044cc                memmove
 .text          0x0000000000804628        0x0 c:/intelfpga/16.1/nios2eds/bin/gnu/h-x86_64-mingw32/bin/../lib/gcc/nios2-elf/5.3.0/../../../../../H-x86_64-mingw32/nios2-elf/lib\libc.a(lib_a-memset.o)
 .text.memset   0x0000000000804628      0x128 c:/intelfpga/16.1/nios2eds/bin/gnu/h-x86_64-mingw32/bin/../lib/gcc/nios2-elf/5.3.0/../../../../../H-x86_64-mingw32/nios2-elf/lib\libc.a(lib_a-memset.o)
                0x0000000000804628                memset
 .text          0x0000000000804750        0x0 c:/intelfpga/16.1/nios2eds/bin/gnu/h-x86_64-mingw32/bin/../lib/gcc/nios2-elf/5.3.0/../../../../../H-x86_64-mingw32/nios2-elf/lib\libc.a(lib_a-reallocr.o)
 .text._realloc_r
                0x0000000000804750      0x564 c:/intelfpga/16.1/nios2eds/bin/gnu/h-x86_64-mingw32/bin/../lib/gcc/nios2-elf/5.3.0/../../../../../H-x86_64-mingw32/nios2-elf/lib\libc.a(lib_a-reallocr.o)
                0x0000000000804750                _realloc_r
 .text          0x0000000000804cb4        0x0 c:/intelfpga/16.1/nios2eds/bin/gnu/h-x86_64-mingw32/bin/../lib/gcc/nios2-elf/5.3.0/../../../../../H-x86_64-mingw32/nios2-elf/lib\libc.a(lib_a-sbrkr.o)
 .text._sbrk_r  0x0000000000804cb4       0x54 c:/intelfpga/16.1/nios2eds/bin/gnu/h-x86_64-mingw32/bin/../lib/gcc/nios2-elf/5.3.0/../../../../../H-x86_64-mingw32/nios2-elf/lib\libc.a(lib_a-sbrkr.o)
                0x0000000000804cb4                _sbrk_r
 .text          0x0000000000804d08        0x0 c:/intelfpga/16.1/nios2eds/bin/gnu/h-x86_64-mingw32/bin/../lib/gcc/nios2-elf/5.3.0/../../../../../H-x86_64-mingw32/nios2-elf/lib\libc.a(lib_a-stdio.o)
 .text.__sread  0x0000000000804d08       0x54 c:/intelfpga/16.1/nios2eds/bin/gnu/h-x86_64-mingw32/bin/../lib/gcc/nios2-elf/5.3.0/../../../../../H-x86_64-mingw32/nios2-elf/lib\libc.a(lib_a-stdio.o)
                0x0000000000804d08                __sread
 .text.__seofread
                0x0000000000804d5c        0x8 c:/intelfpga/16.1/nios2eds/bin/gnu/h-x86_64-mingw32/bin/../lib/gcc/nios2-elf/5.3.0/../../../../../H-x86_64-mingw32/nios2-elf/lib\libc.a(lib_a-stdio.o)
                0x0000000000804d5c                __seofread
 .text.__swrite
                0x0000000000804d64       0x7c c:/intelfpga/16.1/nios2eds/bin/gnu/h-x86_64-mingw32/bin/../lib/gcc/nios2-elf/5.3.0/../../../../../H-x86_64-mingw32/nios2-elf/lib\libc.a(lib_a-stdio.o)
                0x0000000000804d64                __swrite
 .text.__sseek  0x0000000000804de0       0x5c c:/intelfpga/16.1/nios2eds/bin/gnu/h-x86_64-mingw32/bin/../lib/gcc/nios2-elf/5.3.0/../../../../../H-x86_64-mingw32/nios2-elf/lib\libc.a(lib_a-stdio.o)
                0x0000000000804de0                __sseek
 .text.__sclose
                0x0000000000804e3c        0x8 c:/intelfpga/16.1/nios2eds/bin/gnu/h-x86_64-mingw32/bin/../lib/gcc/nios2-elf/5.3.0/../../../../../H-x86_64-mingw32/nios2-elf/lib\libc.a(lib_a-stdio.o)
                0x0000000000804e3c                __sclose
 .text          0x0000000000804e44        0x0 c:/intelfpga/16.1/nios2eds/bin/gnu/h-x86_64-mingw32/bin/../lib/gcc/nios2-elf/5.3.0/../../../../../H-x86_64-mingw32/nios2-elf/lib\libc.a(lib_a-writer.o)
 .text._write_r
                0x0000000000804e44       0x60 c:/intelfpga/16.1/nios2eds/bin/gnu/h-x86_64-mingw32/bin/../lib/gcc/nios2-elf/5.3.0/../../../../../H-x86_64-mingw32/nios2-elf/lib\libc.a(lib_a-writer.o)
                0x0000000000804e44                _write_r
 .text          0x0000000000804ea4        0x0 c:/intelfpga/16.1/nios2eds/bin/gnu/h-x86_64-mingw32/bin/../lib/gcc/nios2-elf/5.3.0/../../../../../H-x86_64-mingw32/nios2-elf/lib\libc.a(lib_a-wsetup.o)
 .text.__swsetup_r
                0x0000000000804ea4      0x154 c:/intelfpga/16.1/nios2eds/bin/gnu/h-x86_64-mingw32/bin/../lib/gcc/nios2-elf/5.3.0/../../../../../H-x86_64-mingw32/nios2-elf/lib\libc.a(lib_a-wsetup.o)
                0x0000000000804ea4                __swsetup_r
 .text          0x0000000000804ff8        0x0 c:/intelfpga/16.1/nios2eds/bin/gnu/h-x86_64-mingw32/bin/../lib/gcc/nios2-elf/5.3.0/../../../../../H-x86_64-mingw32/nios2-elf/lib\libc.a(closer.o)
 .text._close_r
                0x0000000000804ff8       0x54 c:/intelfpga/16.1/nios2eds/bin/gnu/h-x86_64-mingw32/bin/../lib/gcc/nios2-elf/5.3.0/../../../../../H-x86_64-mingw32/nios2-elf/lib\libc.a(closer.o)
                0x0000000000804ff8                _close_r
 .text          0x000000000080504c        0x0 c:/intelfpga/16.1/nios2eds/bin/gnu/h-x86_64-mingw32/bin/../lib/gcc/nios2-elf/5.3.0/../../../../../H-x86_64-mingw32/nios2-elf/lib\libc.a(lib_a-fclose.o)
 .text._fclose_r
                0x000000000080504c       0xf0 c:/intelfpga/16.1/nios2eds/bin/gnu/h-x86_64-mingw32/bin/../lib/gcc/nios2-elf/5.3.0/../../../../../H-x86_64-mingw32/nios2-elf/lib\libc.a(lib_a-fclose.o)
                0x000000000080504c                _fclose_r
 .text.fclose   0x000000000080513c       0x14 c:/intelfpga/16.1/nios2eds/bin/gnu/h-x86_64-mingw32/bin/../lib/gcc/nios2-elf/5.3.0/../../../../../H-x86_64-mingw32/nios2-elf/lib\libc.a(lib_a-fclose.o)
                0x000000000080513c                fclose
 .text          0x0000000000805150        0x0 c:/intelfpga/16.1/nios2eds/bin/gnu/h-x86_64-mingw32/bin/../lib/gcc/nios2-elf/5.3.0/../../../../../H-x86_64-mingw32/nios2-elf/lib\libc.a(lib_a-fflush.o)
 .text.__sflush_r
                0x0000000000805150      0x21c c:/intelfpga/16.1/nios2eds/bin/gnu/h-x86_64-mingw32/bin/../lib/gcc/nios2-elf/5.3.0/../../../../../H-x86_64-mingw32/nios2-elf/lib\libc.a(lib_a-fflush.o)
                0x0000000000805150                __sflush_r
 .text._fflush_r
                0x000000000080536c       0x5c c:/intelfpga/16.1/nios2eds/bin/gnu/h-x86_64-mingw32/bin/../lib/gcc/nios2-elf/5.3.0/../../../../../H-x86_64-mingw32/nios2-elf/lib\libc.a(lib_a-fflush.o)
                0x000000000080536c                _fflush_r
 .text.fflush   0x00000000008053c8       0x30 c:/intelfpga/16.1/nios2eds/bin/gnu/h-x86_64-mingw32/bin/../lib/gcc/nios2-elf/5.3.0/../../../../../H-x86_64-mingw32/nios2-elf/lib\libc.a(lib_a-fflush.o)
                0x00000000008053c8                fflush
 .text          0x00000000008053f8        0x0 c:/intelfpga/16.1/nios2eds/bin/gnu/h-x86_64-mingw32/bin/../lib/gcc/nios2-elf/5.3.0/../../../../../H-x86_64-mingw32/nios2-elf/lib\libc.a(lib_a-freer.o)
 .text._malloc_trim_r
                0x00000000008053f8      0x124 c:/intelfpga/16.1/nios2eds/bin/gnu/h-x86_64-mingw32/bin/../lib/gcc/nios2-elf/5.3.0/../../../../../H-x86_64-mingw32/nios2-elf/lib\libc.a(lib_a-freer.o)
                0x00000000008053f8                _malloc_trim_r
 .text._free_r  0x000000000080551c      0x310 c:/intelfpga/16.1/nios2eds/bin/gnu/h-x86_64-mingw32/bin/../lib/gcc/nios2-elf/5.3.0/../../../../../H-x86_64-mingw32/nios2-elf/lib\libc.a(lib_a-freer.o)
                0x000000000080551c                _free_r
 .text          0x000000000080582c        0x0 c:/intelfpga/16.1/nios2eds/bin/gnu/h-x86_64-mingw32/bin/../lib/gcc/nios2-elf/5.3.0/../../../../../H-x86_64-mingw32/nios2-elf/lib\libc.a(lib_a-int_errno.o)
 .text          0x000000000080582c        0x0 c:/intelfpga/16.1/nios2eds/bin/gnu/h-x86_64-mingw32/bin/../lib/gcc/nios2-elf/5.3.0/../../../../../H-x86_64-mingw32/nios2-elf/lib\libc.a(lib_a-lseekr.o)
 .text._lseek_r
                0x000000000080582c       0x60 c:/intelfpga/16.1/nios2eds/bin/gnu/h-x86_64-mingw32/bin/../lib/gcc/nios2-elf/5.3.0/../../../../../H-x86_64-mingw32/nios2-elf/lib\libc.a(lib_a-lseekr.o)
                0x000000000080582c                _lseek_r
 .text          0x000000000080588c        0x0 c:/intelfpga/16.1/nios2eds/bin/gnu/h-x86_64-mingw32/bin/../lib/gcc/nios2-elf/5.3.0/../../../../../H-x86_64-mingw32/nios2-elf/lib\libc.a(lib_a-makebuf.o)
 .text.__smakebuf_r
                0x000000000080588c      0x1bc c:/intelfpga/16.1/nios2eds/bin/gnu/h-x86_64-mingw32/bin/../lib/gcc/nios2-elf/5.3.0/../../../../../H-x86_64-mingw32/nios2-elf/lib\libc.a(lib_a-makebuf.o)
                0x000000000080588c                __smakebuf_r
 .text          0x0000000000805a48        0x0 c:/intelfpga/16.1/nios2eds/bin/gnu/h-x86_64-mingw32/bin/../lib/gcc/nios2-elf/5.3.0/../../../../../H-x86_64-mingw32/nios2-elf/lib\libc.a(lib_a-readr.o)
 .text._read_r  0x0000000000805a48       0x60 c:/intelfpga/16.1/nios2eds/bin/gnu/h-x86_64-mingw32/bin/../lib/gcc/nios2-elf/5.3.0/../../../../../H-x86_64-mingw32/nios2-elf/lib\libc.a(lib_a-readr.o)
                0x0000000000805a48                _read_r
 .text          0x0000000000805aa8        0x0 c:/intelfpga/16.1/nios2eds/bin/gnu/h-x86_64-mingw32/bin/../lib/gcc/nios2-elf/5.3.0/../../../../../H-x86_64-mingw32/nios2-elf/lib\libc.a(lib_a-fstatr.o)
 .text._fstat_r
                0x0000000000805aa8       0x5c c:/intelfpga/16.1/nios2eds/bin/gnu/h-x86_64-mingw32/bin/../lib/gcc/nios2-elf/5.3.0/../../../../../H-x86_64-mingw32/nios2-elf/lib\libc.a(lib_a-fstatr.o)
                0x0000000000805aa8                _fstat_r
 .text          0x0000000000805b04        0x0 c:/intelfpga/16.1/nios2eds/bin/gnu/h-x86_64-mingw32/bin/../lib/gcc/nios2-elf/5.3.0/../../../../../H-x86_64-mingw32/nios2-elf/lib\libc.a(lib_a-isattyr.o)
 .text._isatty_r
                0x0000000000805b04       0x54 c:/intelfpga/16.1/nios2eds/bin/gnu/h-x86_64-mingw32/bin/../lib/gcc/nios2-elf/5.3.0/../../../../../H-x86_64-mingw32/nios2-elf/lib\libc.a(lib_a-isattyr.o)
                0x0000000000805b04                _isatty_r
 .text          0x0000000000805b58      0x1b4 c:/intelfpga/16.1/nios2eds/bin/gnu/h-x86_64-mingw32/bin/../lib/gcc/nios2-elf/5.3.0\libgcc.a(lib2-divmod.o)
                0x0000000000805b58                __divsi3
                0x0000000000805bdc                __modsi3
                0x0000000000805c50                __udivsi3
                0x0000000000805cb4                __umodsi3
 .text          0x0000000000805d0c      0x12c ../heart_beets_bsp/\libhal_bsp.a(alt_alarm_start.o)
                0x0000000000805d0c                alt_alarm_start
 .text          0x0000000000805e38      0x10c ../heart_beets_bsp/\libhal_bsp.a(alt_close.o)
                0x0000000000805e74                close
 .text          0x0000000000805f44       0x2c ../heart_beets_bsp/\libhal_bsp.a(alt_dev.o)
 .text          0x0000000000805f70        0x0 ../heart_beets_bsp/\libhal_bsp.a(alt_errno.o)
 .text          0x0000000000805f70       0xec ../heart_beets_bsp/\libhal_bsp.a(alt_fstat.o)
                0x0000000000805fac                fstat
 .text          0x000000000080605c       0xe0 ../heart_beets_bsp/\libhal_bsp.a(alt_isatty.o)
                0x0000000000806098                isatty
 .text          0x000000000080613c       0xec ../heart_beets_bsp/\libhal_bsp.a(alt_load.o)
                0x00000000008061a4                alt_load
 .text          0x0000000000806228      0x110 ../heart_beets_bsp/\libhal_bsp.a(alt_lseek.o)
                0x0000000000806264                lseek
 .text          0x0000000000806338       0x7c ../heart_beets_bsp/\libhal_bsp.a(alt_main.o)
                0x0000000000806338                alt_main
 .text          0x00000000008063b4       0x48 ../heart_beets_bsp/\libhal_bsp.a(alt_malloc_lock.o)
                0x00000000008063b4                __malloc_lock
                0x00000000008063d8                __malloc_unlock
 .text          0x00000000008063fc      0x138 ../heart_beets_bsp/\libhal_bsp.a(alt_read.o)
                0x0000000000806438                read
 .text          0x0000000000806534       0x64 ../heart_beets_bsp/\libhal_bsp.a(alt_release_fd.o)
                0x0000000000806534                alt_release_fd
 .text          0x0000000000806598       0xb0 ../heart_beets_bsp/\libhal_bsp.a(alt_sbrk.o)
                0x0000000000806598                sbrk
 .text          0x0000000000806648      0x1a4 ../heart_beets_bsp/\libhal_bsp.a(alt_tick.o)
                0x0000000000806648                alt_alarm_stop
                0x00000000008066e4                alt_tick
 .text          0x00000000008067ec      0x134 ../heart_beets_bsp/\libhal_bsp.a(alt_write.o)
                0x0000000000806828                write
 .text          0x0000000000806920      0x108 ../heart_beets_bsp/\libhal_bsp.a(alt_sys_init.o)
                0x0000000000806954                alt_irq_init
                0x000000000080698c                alt_sys_init
 .text          0x0000000000806a28      0x164 ../heart_beets_bsp/\libhal_bsp.a(altera_avalon_jtag_uart_fd.o)
                0x0000000000806a28                altera_avalon_jtag_uart_read_fd
                0x0000000000806a88                altera_avalon_jtag_uart_write_fd
                0x0000000000806ae8                altera_avalon_jtag_uart_close_fd
                0x0000000000806b38                altera_avalon_jtag_uart_ioctl_fd
 .text          0x0000000000806b8c      0x3d4 ../heart_beets_bsp/\libhal_bsp.a(altera_avalon_jtag_uart_init.o)
                0x0000000000806b8c                altera_avalon_jtag_uart_init
                0x0000000000806ef8                altera_avalon_jtag_uart_close
 .text          0x0000000000806f60       0xf0 ../heart_beets_bsp/\libhal_bsp.a(altera_avalon_jtag_uart_ioctl.o)
                0x0000000000806f60                altera_avalon_jtag_uart_ioctl
 .text          0x0000000000807050      0x21c ../heart_beets_bsp/\libhal_bsp.a(altera_avalon_jtag_uart_read.o)
                0x0000000000807050                altera_avalon_jtag_uart_read
 .text          0x000000000080726c      0x224 ../heart_beets_bsp/\libhal_bsp.a(altera_avalon_jtag_uart_write.o)
                0x000000000080726c                altera_avalon_jtag_uart_write
 .text          0x0000000000807490      0xe7c ../heart_beets_bsp/\libhal_bsp.a(altera_avalon_lcd_16207.o)
                0x0000000000807c54                altera_avalon_lcd_16207_write
                0x00000000008081d8                altera_avalon_lcd_16207_init
 .text          0x000000000080830c       0x60 ../heart_beets_bsp/\libhal_bsp.a(altera_avalon_lcd_16207_fd.o)
                0x000000000080830c                altera_avalon_lcd_16207_write_fd
 .text          0x000000000080836c       0xf4 ../heart_beets_bsp/\libhal_bsp.a(altera_avalon_timer_sc.o)
                0x00000000008083e4                alt_avalon_timer_sc_init
 .text          0x0000000000808460      0x110 ../heart_beets_bsp/\libhal_bsp.a(altera_avalon_uart_fd.o)
                0x0000000000808460                altera_avalon_uart_read_fd
                0x00000000008084c0                altera_avalon_uart_write_fd
                0x0000000000808520                altera_avalon_uart_close_fd
 .text          0x0000000000808570      0x3c8 ../heart_beets_bsp/\libhal_bsp.a(altera_avalon_uart_init.o)
                0x0000000000808570                altera_avalon_uart_init
                0x00000000008088e4                altera_avalon_uart_close
 .text          0x0000000000808938      0x218 ../heart_beets_bsp/\libhal_bsp.a(altera_avalon_uart_read.o)
                0x0000000000808974                altera_avalon_uart_read
 .text          0x0000000000808b50      0x1e8 ../heart_beets_bsp/\libhal_bsp.a(altera_avalon_uart_write.o)
                0x0000000000808b8c                altera_avalon_uart_write
 .text          0x0000000000808d38       0x48 ../heart_beets_bsp/\libhal_bsp.a(alt_dcache_flush_all.o)
                0x0000000000808d38                alt_dcache_flush_all
 .text          0x0000000000808d80       0xe0 ../heart_beets_bsp/\libhal_bsp.a(alt_dev_llist_insert.o)
                0x0000000000808dbc                alt_dev_llist_insert
 .text          0x0000000000808e60       0x60 ../heart_beets_bsp/\libhal_bsp.a(alt_do_ctors.o)
                0x0000000000808e60                _do_ctors
 .text          0x0000000000808ec0       0x60 ../heart_beets_bsp/\libhal_bsp.a(alt_do_dtors.o)
                0x0000000000808ec0                _do_dtors
 .text          0x0000000000808f20       0x34 ../heart_beets_bsp/\libhal_bsp.a(alt_icache_flush_all.o)
                0x0000000000808f20                alt_icache_flush_all
 .text          0x0000000000808f54      0x1b0 ../heart_beets_bsp/\libhal_bsp.a(alt_iic.o)
                0x0000000000808f54                alt_ic_isr_register
                0x0000000000808fa4                alt_ic_irq_enable
                0x000000000080902c                alt_ic_irq_disable
                0x00000000008090b8                alt_ic_irq_enabled
 .text          0x0000000000809104       0xf0 ../heart_beets_bsp/\libhal_bsp.a(alt_iic_isr_register.o)
                0x0000000000809104                alt_iic_isr_register
 .text          0x00000000008091f4      0x140 ../heart_beets_bsp/\libhal_bsp.a(alt_io_redirect.o)
                0x00000000008092b8                alt_io_redirect
 .text          0x0000000000809334        0x0 ../heart_beets_bsp/\libhal_bsp.a(alt_irq_entry.o)
 .text          0x0000000000809334        0x0 ../heart_beets_bsp/\libhal_bsp.a(alt_irq_handler.o)
 .text          0x0000000000809334        0x0 ../heart_beets_bsp/\libhal_bsp.a(alt_irq_vars.o)
 .text          0x0000000000809334      0x254 ../heart_beets_bsp/\libhal_bsp.a(alt_open.o)
                0x0000000000809434                open
 .text          0x0000000000809588       0x30 ../heart_beets_bsp/\libhal_bsp.a(alt_usleep.o)
                0x0000000000809588                usleep
 .text          0x00000000008095b8       0x24 ../heart_beets_bsp/\libhal_bsp.a(altera_nios2_gen2_irq.o)
                0x00000000008095b8                altera_nios2_gen2_irq_init
 .text          0x00000000008095dc      0x158 ../heart_beets_bsp/\libhal_bsp.a(alt_busy_sleep.o)
                0x00000000008095dc                alt_busy_sleep
 .text          0x0000000000809734        0x0 ../heart_beets_bsp/\libhal_bsp.a(alt_exception_entry.o)
 .text          0x0000000000809734       0x90 ../heart_beets_bsp/\libhal_bsp.a(alt_find_dev.o)
                0x0000000000809734                alt_find_dev
 .text          0x00000000008097c4      0x108 ../heart_beets_bsp/\libhal_bsp.a(alt_find_file.o)
                0x00000000008097c4                alt_find_file
 .text          0x00000000008098cc       0xa4 ../heart_beets_bsp/\libhal_bsp.a(alt_get_fd.o)
                0x00000000008098cc                alt_get_fd
 .text          0x0000000000809970       0x90 ../heart_beets_bsp/\libhal_bsp.a(alt_icache_flush.o)
                0x0000000000809970                alt_icache_flush
 .text          0x0000000000809a00       0x9c ../heart_beets_bsp/\libhal_bsp.a(alt_instruction_exception_entry.o)
                0x0000000000809a00                alt_exception_cause_generated_bad_addr
 .text          0x0000000000809a9c        0x0 c:/intelfpga/16.1/nios2eds/bin/gnu/h-x86_64-mingw32/bin/../lib/gcc/nios2-elf/5.3.0/../../../../../H-x86_64-mingw32/nios2-elf/lib\libc.a(lib_a-atexit.o)
 .text.atexit   0x0000000000809a9c       0x14 c:/intelfpga/16.1/nios2eds/bin/gnu/h-x86_64-mingw32/bin/../lib/gcc/nios2-elf/5.3.0/../../../../../H-x86_64-mingw32/nios2-elf/lib\libc.a(lib_a-atexit.o)
                0x0000000000809a9c                atexit
 .text          0x0000000000809ab0        0x0 c:/intelfpga/16.1/nios2eds/bin/gnu/h-x86_64-mingw32/bin/../lib/gcc/nios2-elf/5.3.0/../../../../../H-x86_64-mingw32/nios2-elf/lib\libc.a(lib_a-ctype_.o)
 .text          0x0000000000809ab0        0x0 c:/intelfpga/16.1/nios2eds/bin/gnu/h-x86_64-mingw32/bin/../lib/gcc/nios2-elf/5.3.0/../../../../../H-x86_64-mingw32/nios2-elf/lib\libc.a(lib_a-exit.o)
 .text.exit     0x0000000000809ab0       0x38 c:/intelfpga/16.1/nios2eds/bin/gnu/h-x86_64-mingw32/bin/../lib/gcc/nios2-elf/5.3.0/../../../../../H-x86_64-mingw32/nios2-elf/lib\libc.a(lib_a-exit.o)
                0x0000000000809ab0                exit
 .text          0x0000000000809ae8        0x0 c:/intelfpga/16.1/nios2eds/bin/gnu/h-x86_64-mingw32/bin/../lib/gcc/nios2-elf/5.3.0/../../../../../H-x86_64-mingw32/nios2-elf/lib\libc.a(lib_a-memcmp.o)
 .text.memcmp   0x0000000000809ae8       0x7c c:/intelfpga/16.1/nios2eds/bin/gnu/h-x86_64-mingw32/bin/../lib/gcc/nios2-elf/5.3.0/../../../../../H-x86_64-mingw32/nios2-elf/lib\libc.a(lib_a-memcmp.o)
                0x0000000000809ae8                memcmp
 .text          0x0000000000809b64        0x0 c:/intelfpga/16.1/nios2eds/bin/gnu/h-x86_64-mingw32/bin/../lib/gcc/nios2-elf/5.3.0/../../../../../H-x86_64-mingw32/nios2-elf/lib\libc.a(lib_a-__atexit.o)
 .text.__register_exitproc
                0x0000000000809b64      0x118 c:/intelfpga/16.1/nios2eds/bin/gnu/h-x86_64-mingw32/bin/../lib/gcc/nios2-elf/5.3.0/../../../../../H-x86_64-mingw32/nios2-elf/lib\libc.a(lib_a-__atexit.o)
                0x0000000000809b64                __register_exitproc
 .text          0x0000000000809c7c        0x0 c:/intelfpga/16.1/nios2eds/bin/gnu/h-x86_64-mingw32/bin/../lib/gcc/nios2-elf/5.3.0/../../../../../H-x86_64-mingw32/nios2-elf/lib\libc.a(lib_a-__call_atexit.o)
 .text.__call_exitprocs
                0x0000000000809c7c      0x180 c:/intelfpga/16.1/nios2eds/bin/gnu/h-x86_64-mingw32/bin/../lib/gcc/nios2-elf/5.3.0/../../../../../H-x86_64-mingw32/nios2-elf/lib\libc.a(lib_a-__call_atexit.o)
                0x0000000000809c7c                __call_exitprocs
 .text          0x0000000000809dfc       0x34 ../heart_beets_bsp/\libhal_bsp.a(alt_exit.o)
                0x0000000000809dfc                _exit
 *(.gnu.warning.*)
 *(.fini)
                [!provide]                        PROVIDE (__etext, ABSOLUTE (.))
                [!provide]                        PROVIDE (_etext, ABSOLUTE (.))
                [!provide]                        PROVIDE (etext, ABSOLUTE (.))
 *(.eh_frame_hdr)
                0x0000000000809e30                . = ALIGN (0x4)
                [!provide]                        PROVIDE (__preinit_array_start, ABSOLUTE (.))
 *(.preinit_array)
                [!provide]                        PROVIDE (__preinit_array_end, ABSOLUTE (.))
                [!provide]                        PROVIDE (__init_array_start, ABSOLUTE (.))
 *(.init_array)
                [!provide]                        PROVIDE (__init_array_end, ABSOLUTE (.))
                [!provide]                        PROVIDE (__fini_array_start, ABSOLUTE (.))
 *(.fini_array)
                [!provide]                        PROVIDE (__fini_array_end, ABSOLUTE (.))
 *(.eh_frame)
 *(.gcc_except_table .gcc_except_table.*)
 *(.dynamic)
                0x0000000000809e30                PROVIDE (__CTOR_LIST__, ABSOLUTE (.))
 *(.ctors)
 *(SORT(.ctors.*))
                0x0000000000809e30                PROVIDE (__CTOR_END__, ABSOLUTE (.))
                0x0000000000809e30                PROVIDE (__DTOR_LIST__, ABSOLUTE (.))
 *(.dtors)
 *(SORT(.dtors.*))
                0x0000000000809e30                PROVIDE (__DTOR_END__, ABSOLUTE (.))
 *(.jcr)
                0x0000000000809e30                . = ALIGN (0x4)

.rodata         0x0000000000809e30      0x334
                0x0000000000809e30                PROVIDE (__ram_rodata_start, ABSOLUTE (.))
                0x0000000000809e30                . = ALIGN (0x4)
 *(.rodata .rodata.* .gnu.linkonce.r.*)
 .rodata        0x0000000000809e30       0x66 obj/default/hello_world.o
 *fill*         0x0000000000809e96        0x2 
 .rodata.str1.4
                0x0000000000809e98        0x2 c:/intelfpga/16.1/nios2eds/bin/gnu/h-x86_64-mingw32/bin/../lib/gcc/nios2-elf/5.3.0/../../../../../H-x86_64-mingw32/nios2-elf/lib\libc.a(lib_a-puts.o)
 *fill*         0x0000000000809e9a        0x2 
 .rodata.str1.4
                0x0000000000809e9c        0x4 c:/intelfpga/16.1/nios2eds/bin/gnu/h-x86_64-mingw32/bin/../lib/gcc/nios2-elf/5.3.0/../../../../../H-x86_64-mingw32/nios2-elf/lib\libc.a(lib_a-impure.o)
                                          0x2 (size before relaxing)
 .rodata        0x0000000000809ea0        0xa ../heart_beets_bsp/\libhal_bsp.a(alt_dev.o)
 *fill*         0x0000000000809eaa        0x2 
 .rodata        0x0000000000809eac        0xf ../heart_beets_bsp/\libhal_bsp.a(alt_main.o)
 *fill*         0x0000000000809ebb        0x1 
 .rodata        0x0000000000809ebc       0x26 ../heart_beets_bsp/\libhal_bsp.a(alt_sys_init.o)
 .rodata._ctype_
                0x0000000000809ee2      0x101 c:/intelfpga/16.1/nios2eds/bin/gnu/h-x86_64-mingw32/bin/../lib/gcc/nios2-elf/5.3.0/../../../../../H-x86_64-mingw32/nios2-elf/lib\libc.a(lib_a-ctype_.o)
                0x0000000000809ee2                _ctype_
 .rodata._ctype_b
                0x0000000000809fe3      0x180 c:/intelfpga/16.1/nios2eds/bin/gnu/h-x86_64-mingw32/bin/../lib/gcc/nios2-elf/5.3.0/../../../../../H-x86_64-mingw32/nios2-elf/lib\libc.a(lib_a-ctype_.o)
 *(.rodata1)
                0x000000000080a164                . = ALIGN (0x4)
 *fill*         0x000000000080a163        0x1 
                0x000000000080a164                PROVIDE (__ram_rodata_end, ABSOLUTE (.))
                0x0000000000809e30                PROVIDE (__flash_rodata_start, LOADADDR (.rodata))

.rwdata         0x000000000080a164     0x1c58 load address 0x000000000080bdbc
                0x000000000080a164                PROVIDE (__ram_rwdata_start, ABSOLUTE (.))
                0x000000000080a164                . = ALIGN (0x4)
 *(.got.plt)
 *(.got)
 *(.data1)
 *(.data .data.* .gnu.linkonce.d.*)
 .data          0x000000000080a164        0x0 ../heart_beets_bsp//obj/HAL/src/crt0.o
 .data          0x000000000080a164        0x0 obj/default/hello_world.o
 .data          0x000000000080a164        0x0 obj/default/pacemaker.o
 .data          0x000000000080a164        0x0 c:/intelfpga/16.1/nios2eds/bin/gnu/h-x86_64-mingw32/bin/../lib/gcc/nios2-elf/5.3.0/../../../../../H-x86_64-mingw32/nios2-elf/lib\libc.a(lib_a-puts.o)
 .data          0x000000000080a164        0x0 c:/intelfpga/16.1/nios2eds/bin/gnu/h-x86_64-mingw32/bin/../lib/gcc/nios2-elf/5.3.0/../../../../../H-x86_64-mingw32/nios2-elf/lib\libc.a(lib_a-strlen.o)
 .data          0x000000000080a164        0x0 c:/intelfpga/16.1/nios2eds/bin/gnu/h-x86_64-mingw32/bin/../lib/gcc/nios2-elf/5.3.0/../../../../../H-x86_64-mingw32/nios2-elf/lib\libc.a(lib_a-findfp.o)
 .data          0x000000000080a164        0x0 c:/intelfpga/16.1/nios2eds/bin/gnu/h-x86_64-mingw32/bin/../lib/gcc/nios2-elf/5.3.0/../../../../../H-x86_64-mingw32/nios2-elf/lib\libc.a(lib_a-fvwrite.o)
 .data          0x000000000080a164        0x0 c:/intelfpga/16.1/nios2eds/bin/gnu/h-x86_64-mingw32/bin/../lib/gcc/nios2-elf/5.3.0/../../../../../H-x86_64-mingw32/nios2-elf/lib\libc.a(lib_a-fwalk.o)
 .data          0x000000000080a164        0x0 c:/intelfpga/16.1/nios2eds/bin/gnu/h-x86_64-mingw32/bin/../lib/gcc/nios2-elf/5.3.0/../../../../../H-x86_64-mingw32/nios2-elf/lib\libc.a(lib_a-impure.o)
 .data.impure_data
                0x000000000080a164      0x424 c:/intelfpga/16.1/nios2eds/bin/gnu/h-x86_64-mingw32/bin/../lib/gcc/nios2-elf/5.3.0/../../../../../H-x86_64-mingw32/nios2-elf/lib\libc.a(lib_a-impure.o)
 .data          0x000000000080a588        0x0 c:/intelfpga/16.1/nios2eds/bin/gnu/h-x86_64-mingw32/bin/../lib/gcc/nios2-elf/5.3.0/../../../../../H-x86_64-mingw32/nios2-elf/lib\libc.a(lib_a-mallocr.o)
 .data.__malloc_av_
                0x000000000080a588      0x408 c:/intelfpga/16.1/nios2eds/bin/gnu/h-x86_64-mingw32/bin/../lib/gcc/nios2-elf/5.3.0/../../../../../H-x86_64-mingw32/nios2-elf/lib\libc.a(lib_a-mallocr.o)
                0x000000000080a588                __malloc_av_
 .data          0x000000000080a990        0x0 c:/intelfpga/16.1/nios2eds/bin/gnu/h-x86_64-mingw32/bin/../lib/gcc/nios2-elf/5.3.0/../../../../../H-x86_64-mingw32/nios2-elf/lib\libc.a(lib_a-memchr.o)
 .data          0x000000000080a990        0x0 c:/intelfpga/16.1/nios2eds/bin/gnu/h-x86_64-mingw32/bin/../lib/gcc/nios2-elf/5.3.0/../../../../../H-x86_64-mingw32/nios2-elf/lib\libc.a(lib_a-memcpy.o)
 .data          0x000000000080a990        0x0 c:/intelfpga/16.1/nios2eds/bin/gnu/h-x86_64-mingw32/bin/../lib/gcc/nios2-elf/5.3.0/../../../../../H-x86_64-mingw32/nios2-elf/lib\libc.a(lib_a-memmove.o)
 .data          0x000000000080a990        0x0 c:/intelfpga/16.1/nios2eds/bin/gnu/h-x86_64-mingw32/bin/../lib/gcc/nios2-elf/5.3.0/../../../../../H-x86_64-mingw32/nios2-elf/lib\libc.a(lib_a-memset.o)
 .data          0x000000000080a990        0x0 c:/intelfpga/16.1/nios2eds/bin/gnu/h-x86_64-mingw32/bin/../lib/gcc/nios2-elf/5.3.0/../../../../../H-x86_64-mingw32/nios2-elf/lib\libc.a(lib_a-reallocr.o)
 .data          0x000000000080a990        0x0 c:/intelfpga/16.1/nios2eds/bin/gnu/h-x86_64-mingw32/bin/../lib/gcc/nios2-elf/5.3.0/../../../../../H-x86_64-mingw32/nios2-elf/lib\libc.a(lib_a-sbrkr.o)
 .data          0x000000000080a990        0x0 c:/intelfpga/16.1/nios2eds/bin/gnu/h-x86_64-mingw32/bin/../lib/gcc/nios2-elf/5.3.0/../../../../../H-x86_64-mingw32/nios2-elf/lib\libc.a(lib_a-stdio.o)
 .data          0x000000000080a990        0x0 c:/intelfpga/16.1/nios2eds/bin/gnu/h-x86_64-mingw32/bin/../lib/gcc/nios2-elf/5.3.0/../../../../../H-x86_64-mingw32/nios2-elf/lib\libc.a(lib_a-writer.o)
 .data          0x000000000080a990        0x0 c:/intelfpga/16.1/nios2eds/bin/gnu/h-x86_64-mingw32/bin/../lib/gcc/nios2-elf/5.3.0/../../../../../H-x86_64-mingw32/nios2-elf/lib\libc.a(lib_a-wsetup.o)
 .data          0x000000000080a990        0x0 c:/intelfpga/16.1/nios2eds/bin/gnu/h-x86_64-mingw32/bin/../lib/gcc/nios2-elf/5.3.0/../../../../../H-x86_64-mingw32/nios2-elf/lib\libc.a(closer.o)
 .data          0x000000000080a990        0x0 c:/intelfpga/16.1/nios2eds/bin/gnu/h-x86_64-mingw32/bin/../lib/gcc/nios2-elf/5.3.0/../../../../../H-x86_64-mingw32/nios2-elf/lib\libc.a(lib_a-fclose.o)
 .data          0x000000000080a990        0x0 c:/intelfpga/16.1/nios2eds/bin/gnu/h-x86_64-mingw32/bin/../lib/gcc/nios2-elf/5.3.0/../../../../../H-x86_64-mingw32/nios2-elf/lib\libc.a(lib_a-fflush.o)
 .data          0x000000000080a990        0x0 c:/intelfpga/16.1/nios2eds/bin/gnu/h-x86_64-mingw32/bin/../lib/gcc/nios2-elf/5.3.0/../../../../../H-x86_64-mingw32/nios2-elf/lib\libc.a(lib_a-freer.o)
 .data          0x000000000080a990        0x0 c:/intelfpga/16.1/nios2eds/bin/gnu/h-x86_64-mingw32/bin/../lib/gcc/nios2-elf/5.3.0/../../../../../H-x86_64-mingw32/nios2-elf/lib\libc.a(lib_a-int_errno.o)
 .data          0x000000000080a990        0x0 c:/intelfpga/16.1/nios2eds/bin/gnu/h-x86_64-mingw32/bin/../lib/gcc/nios2-elf/5.3.0/../../../../../H-x86_64-mingw32/nios2-elf/lib\libc.a(lib_a-lseekr.o)
 .data          0x000000000080a990        0x0 c:/intelfpga/16.1/nios2eds/bin/gnu/h-x86_64-mingw32/bin/../lib/gcc/nios2-elf/5.3.0/../../../../../H-x86_64-mingw32/nios2-elf/lib\libc.a(lib_a-makebuf.o)
 .data          0x000000000080a990        0x0 c:/intelfpga/16.1/nios2eds/bin/gnu/h-x86_64-mingw32/bin/../lib/gcc/nios2-elf/5.3.0/../../../../../H-x86_64-mingw32/nios2-elf/lib\libc.a(lib_a-readr.o)
 .data          0x000000000080a990        0x0 c:/intelfpga/16.1/nios2eds/bin/gnu/h-x86_64-mingw32/bin/../lib/gcc/nios2-elf/5.3.0/../../../../../H-x86_64-mingw32/nios2-elf/lib\libc.a(lib_a-fstatr.o)
 .data          0x000000000080a990        0x0 c:/intelfpga/16.1/nios2eds/bin/gnu/h-x86_64-mingw32/bin/../lib/gcc/nios2-elf/5.3.0/../../../../../H-x86_64-mingw32/nios2-elf/lib\libc.a(lib_a-isattyr.o)
 .data          0x000000000080a990        0x0 c:/intelfpga/16.1/nios2eds/bin/gnu/h-x86_64-mingw32/bin/../lib/gcc/nios2-elf/5.3.0\libgcc.a(lib2-divmod.o)
 .data          0x000000000080a990        0x0 ../heart_beets_bsp/\libhal_bsp.a(alt_alarm_start.o)
 .data          0x000000000080a990        0x0 ../heart_beets_bsp/\libhal_bsp.a(alt_close.o)
 .data          0x000000000080a990      0x1a8 ../heart_beets_bsp/\libhal_bsp.a(alt_dev.o)
                0x000000000080a990                alt_dev_null
                0x000000000080a9b8                alt_fd_list
 .data          0x000000000080ab38        0x0 ../heart_beets_bsp/\libhal_bsp.a(alt_errno.o)
 .data          0x000000000080ab38        0x0 ../heart_beets_bsp/\libhal_bsp.a(alt_fstat.o)
 .data          0x000000000080ab38        0x0 ../heart_beets_bsp/\libhal_bsp.a(alt_isatty.o)
 .data          0x000000000080ab38        0x0 ../heart_beets_bsp/\libhal_bsp.a(alt_load.o)
 .data          0x000000000080ab38        0x0 ../heart_beets_bsp/\libhal_bsp.a(alt_lseek.o)
 .data          0x000000000080ab38        0x0 ../heart_beets_bsp/\libhal_bsp.a(alt_main.o)
 .data          0x000000000080ab38        0x0 ../heart_beets_bsp/\libhal_bsp.a(alt_malloc_lock.o)
 .data          0x000000000080ab38        0x0 ../heart_beets_bsp/\libhal_bsp.a(alt_read.o)
 .data          0x000000000080ab38        0x0 ../heart_beets_bsp/\libhal_bsp.a(alt_release_fd.o)
 .data          0x000000000080ab38        0x0 ../heart_beets_bsp/\libhal_bsp.a(alt_sbrk.o)
 .data          0x000000000080ab38        0x0 ../heart_beets_bsp/\libhal_bsp.a(alt_tick.o)
 .data          0x000000000080ab38        0x0 ../heart_beets_bsp/\libhal_bsp.a(alt_write.o)
 .data          0x000000000080ab38     0x1244 ../heart_beets_bsp/\libhal_bsp.a(alt_sys_init.o)
 .data          0x000000000080bd7c        0x0 ../heart_beets_bsp/\libhal_bsp.a(altera_avalon_jtag_uart_fd.o)
 .data          0x000000000080bd7c        0x0 ../heart_beets_bsp/\libhal_bsp.a(altera_avalon_jtag_uart_init.o)
 .data          0x000000000080bd7c        0x0 ../heart_beets_bsp/\libhal_bsp.a(altera_avalon_jtag_uart_ioctl.o)
 .data          0x000000000080bd7c        0x0 ../heart_beets_bsp/\libhal_bsp.a(altera_avalon_jtag_uart_read.o)
 .data          0x000000000080bd7c        0x0 ../heart_beets_bsp/\libhal_bsp.a(altera_avalon_jtag_uart_write.o)
 .data          0x000000000080bd7c        0x0 ../heart_beets_bsp/\libhal_bsp.a(altera_avalon_lcd_16207.o)
 .data          0x000000000080bd7c        0x0 ../heart_beets_bsp/\libhal_bsp.a(altera_avalon_lcd_16207_fd.o)
 .data          0x000000000080bd7c        0x0 ../heart_beets_bsp/\libhal_bsp.a(altera_avalon_timer_sc.o)
 .data          0x000000000080bd7c        0x0 ../heart_beets_bsp/\libhal_bsp.a(altera_avalon_uart_fd.o)
 .data          0x000000000080bd7c        0x0 ../heart_beets_bsp/\libhal_bsp.a(altera_avalon_uart_init.o)
 .data          0x000000000080bd7c        0x0 ../heart_beets_bsp/\libhal_bsp.a(altera_avalon_uart_read.o)
 .data          0x000000000080bd7c        0x0 ../heart_beets_bsp/\libhal_bsp.a(altera_avalon_uart_write.o)
 .data          0x000000000080bd7c        0x0 ../heart_beets_bsp/\libhal_bsp.a(alt_dcache_flush_all.o)
 .data          0x000000000080bd7c        0x0 ../heart_beets_bsp/\libhal_bsp.a(alt_dev_llist_insert.o)
 .data          0x000000000080bd7c        0x0 ../heart_beets_bsp/\libhal_bsp.a(alt_do_ctors.o)
 .data          0x000000000080bd7c        0x0 ../heart_beets_bsp/\libhal_bsp.a(alt_do_dtors.o)
 .data          0x000000000080bd7c        0x0 ../heart_beets_bsp/\libhal_bsp.a(alt_icache_flush_all.o)
 .data          0x000000000080bd7c        0x0 ../heart_beets_bsp/\libhal_bsp.a(alt_iic.o)
 .data          0x000000000080bd7c        0x0 ../heart_beets_bsp/\libhal_bsp.a(alt_iic_isr_register.o)
 .data          0x000000000080bd7c        0x0 ../heart_beets_bsp/\libhal_bsp.a(alt_io_redirect.o)
 .data          0x000000000080bd7c        0x0 ../heart_beets_bsp/\libhal_bsp.a(alt_irq_entry.o)
 .data          0x000000000080bd7c        0x0 ../heart_beets_bsp/\libhal_bsp.a(alt_irq_handler.o)
 .data          0x000000000080bd7c        0x0 ../heart_beets_bsp/\libhal_bsp.a(alt_irq_vars.o)
 .data          0x000000000080bd7c        0x0 ../heart_beets_bsp/\libhal_bsp.a(alt_open.o)
 .data          0x000000000080bd7c        0x0 ../heart_beets_bsp/\libhal_bsp.a(alt_usleep.o)
 .data          0x000000000080bd7c        0x0 ../heart_beets_bsp/\libhal_bsp.a(altera_nios2_gen2_irq.o)
 .data          0x000000000080bd7c        0x0 ../heart_beets_bsp/\libhal_bsp.a(alt_busy_sleep.o)
 .data          0x000000000080bd7c        0x0 ../heart_beets_bsp/\libhal_bsp.a(alt_exception_entry.o)
 .data          0x000000000080bd7c        0x0 ../heart_beets_bsp/\libhal_bsp.a(alt_find_dev.o)
 .data          0x000000000080bd7c        0x0 ../heart_beets_bsp/\libhal_bsp.a(alt_find_file.o)
 .data          0x000000000080bd7c        0x0 ../heart_beets_bsp/\libhal_bsp.a(alt_get_fd.o)
 .data          0x000000000080bd7c        0x0 ../heart_beets_bsp/\libhal_bsp.a(alt_icache_flush.o)
 .data          0x000000000080bd7c        0x0 ../heart_beets_bsp/\libhal_bsp.a(alt_instruction_exception_entry.o)
 .data          0x000000000080bd7c        0x0 c:/intelfpga/16.1/nios2eds/bin/gnu/h-x86_64-mingw32/bin/../lib/gcc/nios2-elf/5.3.0/../../../../../H-x86_64-mingw32/nios2-elf/lib\libc.a(lib_a-atexit.o)
 .data          0x000000000080bd7c        0x0 c:/intelfpga/16.1/nios2eds/bin/gnu/h-x86_64-mingw32/bin/../lib/gcc/nios2-elf/5.3.0/../../../../../H-x86_64-mingw32/nios2-elf/lib\libc.a(lib_a-ctype_.o)
 .data          0x000000000080bd7c        0x0 c:/intelfpga/16.1/nios2eds/bin/gnu/h-x86_64-mingw32/bin/../lib/gcc/nios2-elf/5.3.0/../../../../../H-x86_64-mingw32/nios2-elf/lib\libc.a(lib_a-exit.o)
 .data          0x000000000080bd7c        0x0 c:/intelfpga/16.1/nios2eds/bin/gnu/h-x86_64-mingw32/bin/../lib/gcc/nios2-elf/5.3.0/../../../../../H-x86_64-mingw32/nios2-elf/lib\libc.a(lib_a-memcmp.o)
 .data          0x000000000080bd7c        0x0 c:/intelfpga/16.1/nios2eds/bin/gnu/h-x86_64-mingw32/bin/../lib/gcc/nios2-elf/5.3.0/../../../../../H-x86_64-mingw32/nios2-elf/lib\libc.a(lib_a-__atexit.o)
 .data          0x000000000080bd7c        0x0 c:/intelfpga/16.1/nios2eds/bin/gnu/h-x86_64-mingw32/bin/../lib/gcc/nios2-elf/5.3.0/../../../../../H-x86_64-mingw32/nios2-elf/lib\libc.a(lib_a-__call_atexit.o)
 .data          0x000000000080bd7c        0x0 ../heart_beets_bsp/\libhal_bsp.a(alt_exit.o)
                0x0000000000813d7c                _gp = ABSOLUTE ((. + 0x8000))
                [!provide]                        PROVIDE (gp, _gp)
 *(.rwdata .rwdata.*)
 *(.sdata .sdata.* .gnu.linkonce.s.*)
 .sdata._global_impure_ptr
                0x000000000080bd7c        0x4 c:/intelfpga/16.1/nios2eds/bin/gnu/h-x86_64-mingw32/bin/../lib/gcc/nios2-elf/5.3.0/../../../../../H-x86_64-mingw32/nios2-elf/lib\libc.a(lib_a-impure.o)
                0x000000000080bd7c                _global_impure_ptr
 .sdata._impure_ptr
                0x000000000080bd80        0x4 c:/intelfpga/16.1/nios2eds/bin/gnu/h-x86_64-mingw32/bin/../lib/gcc/nios2-elf/5.3.0/../../../../../H-x86_64-mingw32/nios2-elf/lib\libc.a(lib_a-impure.o)
                0x000000000080bd80                _impure_ptr
 .sdata.__malloc_sbrk_base
                0x000000000080bd84        0x4 c:/intelfpga/16.1/nios2eds/bin/gnu/h-x86_64-mingw32/bin/../lib/gcc/nios2-elf/5.3.0/../../../../../H-x86_64-mingw32/nios2-elf/lib\libc.a(lib_a-mallocr.o)
                0x000000000080bd84                __malloc_sbrk_base
 .sdata.__malloc_trim_threshold
                0x000000000080bd88        0x4 c:/intelfpga/16.1/nios2eds/bin/gnu/h-x86_64-mingw32/bin/../lib/gcc/nios2-elf/5.3.0/../../../../../H-x86_64-mingw32/nios2-elf/lib\libc.a(lib_a-mallocr.o)
                0x000000000080bd88                __malloc_trim_threshold
 .sdata         0x000000000080bd8c       0x14 ../heart_beets_bsp/\libhal_bsp.a(alt_dev.o)
                0x000000000080bd8c                alt_fs_list
                0x000000000080bd94                alt_dev_list
                0x000000000080bd9c                alt_max_fd
 .sdata         0x000000000080bda0        0x4 ../heart_beets_bsp/\libhal_bsp.a(alt_errno.o)
                0x000000000080bda0                alt_errno
 .sdata         0x000000000080bda4        0x4 ../heart_beets_bsp/\libhal_bsp.a(alt_sbrk.o)
 .sdata         0x000000000080bda8        0x8 ../heart_beets_bsp/\libhal_bsp.a(alt_tick.o)
                0x000000000080bda8                alt_alarm_list
 .sdata         0x000000000080bdb0        0x4 ../heart_beets_bsp/\libhal_bsp.a(altera_avalon_lcd_16207.o)
 .sdata         0x000000000080bdb4        0x4 ../heart_beets_bsp/\libhal_bsp.a(alt_irq_vars.o)
                0x000000000080bdb4                alt_priority_mask
 .sdata.__ctype_ptr__
                0x000000000080bdb8        0x4 c:/intelfpga/16.1/nios2eds/bin/gnu/h-x86_64-mingw32/bin/../lib/gcc/nios2-elf/5.3.0/../../../../../H-x86_64-mingw32/nios2-elf/lib\libc.a(lib_a-ctype_.o)
                0x000000000080bdb8                __ctype_ptr__
 *(.sdata2 .sdata2.* .gnu.linkonce.s2.*)
                0x000000000080bdbc                . = ALIGN (0x4)
                0x000000000080bdbc                _edata = ABSOLUTE (.)
                [!provide]                        PROVIDE (edata, ABSOLUTE (.))
                0x000000000080bdbc                PROVIDE (__ram_rwdata_end, ABSOLUTE (.))
                0x000000000080bdbc                PROVIDE (__flash_rwdata_start, LOADADDR (.rwdata))

.bss            0x000000000080da14      0x378
                0x000000000080da14                __bss_start = ABSOLUTE (.)
                [!provide]                        PROVIDE (__sbss_start, ABSOLUTE (.))
                [!provide]                        PROVIDE (___sbss_start, ABSOLUTE (.))
 *(.dynsbss)
 *(.sbss .sbss.* .gnu.linkonce.sb.*)
 .sbss          0x000000000080da14       0x38 obj/default/hello_world.o
                0x000000000080da14                AVI_timeout
                0x000000000080da18                PVARP_timeout
                0x000000000080da1c                VRP_timeout
                0x000000000080da20                AEI_timeout
                0x000000000080da24                LRI_timeout
                0x000000000080da28                URI_timeout
                0x000000000080da2c                LEDbits
                0x000000000080da30                LED0
                0x000000000080da34                LED1
                0x000000000080da38                uiButton
                0x000000000080da3c                maskedButton0
                0x000000000080da40                maskedButton1
                0x000000000080da44                button0_pressed
                0x000000000080da48                button1_pressed
 .sbss          0x000000000080da4c      0x12a obj/default/pacemaker.o
                0x000000000080da4c                _cg81
                0x000000000080da4d                _cg42
                0x000000000080da4e                g83
                0x000000000080da4f                g81b
                0x000000000080da50                g40
                0x000000000080da51                _cg99
                0x000000000080da52                g91
                0x000000000080da53                g38b
                0x000000000080da54                APace
                0x000000000080da55                PRE_g95
                0x000000000080da56                g4
                0x000000000080da57                g108
                0x000000000080da58                g19
                0x000000000080da59                g111
                0x000000000080da5a                g55
                0x000000000080da5b                _cg96
                0x000000000080da5c                _cg59
                0x000000000080da5d                g27
                0x000000000080da5e                g124_fix0
                0x000000000080da5f                g112
                0x000000000080da60                g87b
                0x000000000080da61                g78b
                0x000000000080da62                g33b
                0x000000000080da63                g3
                0x000000000080da64                g103
                0x000000000080da65                g47
                0x000000000080da66                g85
                0x000000000080da67                g42
                0x000000000080da68                g9
                0x000000000080da69                g127
                0x000000000080da6a                LRITO
                0x000000000080da6b                g114b
                0x000000000080da6c                _PRE_GO
                0x000000000080da70                PRE_g3
                0x000000000080da71                g102
                0x000000000080da72                PRE_g29
                0x000000000080da73                g96b
                0x000000000080da74                g115
                0x000000000080da75                AVI_start
                0x000000000080da76                PRE_g121
                0x000000000080da77                _cg15
                0x000000000080da78                PRE_g56
                0x000000000080da79                PRE_g32
                0x000000000080da7a                g87
                0x000000000080da7b                g44
                0x000000000080da7c                g123
                0x000000000080da7d                _cg12
                0x000000000080da7e                _cg8
                0x000000000080da7f                _Pacemaker1_local__reg_FilteredVSense16
                0x000000000080da80                PRE_g20
                0x000000000080da81                AVI_stop
                0x000000000080da82                g104b
                0x000000000080da83                g92
                0x000000000080da84                g1
                0x000000000080da85                g61
                0x000000000080da86                g71
                0x000000000080da87                g126
                0x000000000080da88                g75_e7
                0x000000000080da89                g82
                0x000000000080da8a                _cg33
                0x000000000080da8b                PRE_g69
                0x000000000080da8c                _cg98
                0x000000000080da8d                g12
                0x000000000080da8e                g97
                0x000000000080da8f                g52
                0x000000000080da90                _cg46
                0x000000000080da91                _cg35
                0x000000000080da92                _cg74
                0x000000000080da93                g17
                0x000000000080da94                PRE_g77
                0x000000000080da95                PRE_g34
                0x000000000080da96                g61b
                0x000000000080da97                g76
                0x000000000080da98                g31
                0x000000000080da99                g37
                0x000000000080da9a                g128_e2
                0x000000000080da9b                _cg104
                0x000000000080da9c                g62
                0x000000000080da9d                g84
                0x000000000080da9e                g41
                0x000000000080da9f                _cg61
                0x000000000080daa0                _cg26
                0x000000000080daa1                g118
                0x000000000080daa2                g18
                0x000000000080daa3                ASense
                0x000000000080daa4                g15b
                0x000000000080daa5                PRE_g53
                0x000000000080daa6                g132
                0x000000000080daa7                g48
                0x000000000080daa8                _Pacemaker1_local_VRP_ex
                0x000000000080daa9                g124_fix3
                0x000000000080daaa                g38
                0x000000000080daab                g105
                0x000000000080daac                _Pacemaker1_local__pre_AVI_ex16
                0x000000000080daad                _cg21
                0x000000000080daae                g30b
                0x000000000080daaf                g117
                0x000000000080dab0                _cg82
                0x000000000080dab1                _cg63
                0x000000000080dab2                PRE_g111
                0x000000000080dab3                g64
                0x000000000080dab4                g21
                0x000000000080dab5                g79
                0x000000000080dab6                g34
                0x000000000080dab7                g5
                0x000000000080dab8                g94
                0x000000000080dab9                g110
                0x000000000080daba                g49
                0x000000000080dabb                _Pacemaker1_local_PVARP_ex
                0x000000000080dabc                g2
                0x000000000080dabd                g7
                0x000000000080dabe                _cg90
                0x000000000080dabf                _cg16
                0x000000000080dac0                g80
                0x000000000080dac1                PRE_g80
                0x000000000080dac2                g128
                0x000000000080dac3                g100
                0x000000000080dac4                g59
                0x000000000080dac5                g99
                0x000000000080dac6                g54
                0x000000000080dac7                g66
                0x000000000080dac8                g23
                0x000000000080dac9                _cg87
                0x000000000080daca                _cg48
                0x000000000080dacb                g124_fix1
                0x000000000080dacc                PRE_g71
                0x000000000080dacd                g14
                0x000000000080dace                _cg6
                0x000000000080dacf                g9_e1
                0x000000000080dad0                g101
                0x000000000080dad1                _Pacemaker1_local_AEI_ex
                0x000000000080dad2                g124_e1_fix_fix
                0x000000000080dad3                _Pacemaker1_local_FilteredVSense
                0x000000000080dad4                g114
                0x000000000080dad5                g56
                0x000000000080dad6                g129
                0x000000000080dad7                g131
                0x000000000080dad8                VSense
                0x000000000080dad9                _cg114
                0x000000000080dada                g78
                0x000000000080dadb                g33
                0x000000000080dadc                VRP_start
                0x000000000080dadd                g123_e14
                0x000000000080dade                _Pacemaker1_local_LRI_stop
                0x000000000080dadf                g122
                0x000000000080dae0                URI_ex
                0x000000000080dae1                g35b
                0x000000000080dae2                _Pacemaker1_local_LRI_ex
                0x000000000080dae3                PRE_g22
                0x000000000080dae4                _Pacemaker1_local_FilteredASense
                0x000000000080dae5                PRE_g126
                0x000000000080dae6                _cg64
                0x000000000080dae7                _reg_VPace9
                0x000000000080dae8                g35
                0x000000000080dae9                g15
                0x000000000080daea                g90
                0x000000000080daeb                g84_e8
                0x000000000080daec                _GO
                0x000000000080daed                g89b
                0x000000000080daee                g46b
                0x000000000080daef                LRI_start
                0x000000000080daf0                URITO
                0x000000000080daf1                VRPTO
                0x000000000080daf2                PRE_g11
                0x000000000080daf3                g43_e4
                0x000000000080daf4                g121b
                0x000000000080daf5                g27_e3
                0x000000000080daf6                g63
                0x000000000080daf7                g20
                0x000000000080daf8                AVITO
                0x000000000080daf9                g60
                0x000000000080dafa                g115_e12
                0x000000000080dafb                g124_fix2
                0x000000000080dafc                g23b
                0x000000000080dafd                g93
                0x000000000080dafe                g119
                0x000000000080daff                PRE_g47
                0x000000000080db00                g21b
                0x000000000080db01                PRE_g97
                0x000000000080db02                g86
                0x000000000080db03                g43
                0x000000000080db04                _Pacemaker1_local__pre_FilteredVSense16
                0x000000000080db05                PRE_g113
                0x000000000080db06                PRE_g88
                0x000000000080db07                _Pacemaker1_local_AVI_ex
                0x000000000080db08                g98b
                0x000000000080db09                PVARPTO
                0x000000000080db0a                PRE_g14
                0x000000000080db0b                g36
                0x000000000080db0c                g124_e1
                0x000000000080db0d                g89
                0x000000000080db0e                g46
                0x000000000080db0f                VRP_stop
                0x000000000080db10                PVARP_start
                0x000000000080db11                _Pacemaker1_local__reg_AVI_ex16
                0x000000000080db12                _cg106
                0x000000000080db13                g57b
                0x000000000080db14                PVARP_stop
                0x000000000080db15                g132_e3
                0x000000000080db16                g95
                0x000000000080db17                g50
                0x000000000080db18                g96
                0x000000000080db19                g51
                0x000000000080db1a                PRE_g103
                0x000000000080db1b                PRE_g60
                0x000000000080db1c                _cg70
                0x000000000080db1d                g107
                0x000000000080db1e                g113
                0x000000000080db1f                _cg78
                0x000000000080db20                g18_e2
                0x000000000080db21                g51_e5
                0x000000000080db22                _cg112
                0x000000000080db23                g104
                0x000000000080db24                PRE_g130
                0x000000000080db25                g13
                0x000000000080db26                PRE_g86
                0x000000000080db27                g98
                0x000000000080db28                g53
                0x000000000080db29                g8
                0x000000000080db2a                g57
                0x000000000080db2b                AEI_start
                0x000000000080db2c                g70
                0x000000000080db2d                _cg66
                0x000000000080db2e                g116
                0x000000000080db2f                g6
                0x000000000080db30                g72
                0x000000000080db31                g81
                0x000000000080db32                g124
                0x000000000080db33                _cg108
                0x000000000080db34                g119_e13
                0x000000000080db35                g0
                0x000000000080db36                _cg89
                0x000000000080db37                _cg54
                0x000000000080db38                g75
                0x000000000080db39                g30
                0x000000000080db3a                _cg40
                0x000000000080db3b                g67_e6
                0x000000000080db3c                _cg30
                0x000000000080db3d                g16
                0x000000000080db3e                g70b
                0x000000000080db3f                _cg24
                0x000000000080db40                g58
                0x000000000080db41                _cg57
                0x000000000080db42                g68
                0x000000000080db43                g25
                0x000000000080db44                g124_fix4
                0x000000000080db45                g11
                0x000000000080db46                g65
                0x000000000080db47                g22
                0x000000000080db48                g28
                0x000000000080db49                g73
                0x000000000080db4a                g54b
                0x000000000080db4b                g93_e9
                0x000000000080db4c                g125
                0x000000000080db4d                g124_e1_fix
                0x000000000080db4e                g77
                0x000000000080db4f                g32
                0x000000000080db50                g88
                0x000000000080db51                g45
                0x000000000080db52                _cg23
                0x000000000080db53                g101_e10
                0x000000000080db54                _cg92
                0x000000000080db55                PRE_g45
                0x000000000080db56                g130
                0x000000000080db57                PRE_g5
                0x000000000080db58                g121
                0x000000000080db59                VPace
                0x000000000080db5a                g12b
                0x000000000080db5b                g39
                0x000000000080db5c                _cg49
                0x000000000080db5d                g120
                0x000000000080db5e                PRE_g105
                0x000000000080db5f                g29
                0x000000000080db60                _cg4
                0x000000000080db61                g67
                0x000000000080db62                g24
                0x000000000080db63                g133
                0x000000000080db64                g112b
                0x000000000080db65                AEI_stop
                0x000000000080db66                g109
                0x000000000080db67                _pre_VPace9
                0x000000000080db68                URI_start
                0x000000000080db69                g4b
                0x000000000080db6a                g106
                0x000000000080db6b                g10
                0x000000000080db6c                g48b
                0x000000000080db6d                PRE_g117
                0x000000000080db6e                AEITO
                0x000000000080db6f                g69
                0x000000000080db70                g26
                0x000000000080db71                _cg72
                0x000000000080db72                _cg39
                0x000000000080db73                PRE_g37
                0x000000000080db74                g109_e11
                0x000000000080db75                g74
 *fill*         0x000000000080db76        0x2 
 .sbss.__malloc_max_total_mem
                0x000000000080db78        0x4 c:/intelfpga/16.1/nios2eds/bin/gnu/h-x86_64-mingw32/bin/../lib/gcc/nios2-elf/5.3.0/../../../../../H-x86_64-mingw32/nios2-elf/lib\libc.a(lib_a-mallocr.o)
                0x000000000080db78                __malloc_max_total_mem
 .sbss.__malloc_max_sbrked_mem
                0x000000000080db7c        0x4 c:/intelfpga/16.1/nios2eds/bin/gnu/h-x86_64-mingw32/bin/../lib/gcc/nios2-elf/5.3.0/../../../../../H-x86_64-mingw32/nios2-elf/lib\libc.a(lib_a-mallocr.o)
                0x000000000080db7c                __malloc_max_sbrked_mem
 .sbss.__malloc_top_pad
                0x000000000080db80        0x4 c:/intelfpga/16.1/nios2eds/bin/gnu/h-x86_64-mingw32/bin/../lib/gcc/nios2-elf/5.3.0/../../../../../H-x86_64-mingw32/nios2-elf/lib\libc.a(lib_a-mallocr.o)
                0x000000000080db80                __malloc_top_pad
 .sbss          0x000000000080db84        0x4 c:/intelfpga/16.1/nios2eds/bin/gnu/h-x86_64-mingw32/bin/../lib/gcc/nios2-elf/5.3.0/../../../../../H-x86_64-mingw32/nios2-elf/lib\libc.a(lib_a-int_errno.o)
                0x000000000080db84                errno
 .sbss          0x000000000080db88        0xc ../heart_beets_bsp/\libhal_bsp.a(alt_main.o)
                0x000000000080db88                alt_argc
                0x000000000080db8c                alt_argv
                0x000000000080db90                alt_envp
 .sbss          0x000000000080db94        0x8 ../heart_beets_bsp/\libhal_bsp.a(alt_tick.o)
                0x000000000080db94                _alt_tick_rate
                0x000000000080db98                _alt_nticks
 .sbss          0x000000000080db9c        0x4 ../heart_beets_bsp/\libhal_bsp.a(alt_irq_vars.o)
                0x000000000080db9c                alt_irq_active
 .sbss          0x000000000080dba0        0x4 ../heart_beets_bsp/\libhal_bsp.a(alt_instruction_exception_entry.o)
                0x000000000080dba0                alt_instruction_exception_handler
 *(.sbss2 .sbss2.* .gnu.linkonce.sb2.*)
 *(.scommon)
                [!provide]                        PROVIDE (__sbss_end, ABSOLUTE (.))
                [!provide]                        PROVIDE (___sbss_end, ABSOLUTE (.))
 *(.dynbss)
 *(.bss .bss.* .gnu.linkonce.b.*)
 .bss           0x000000000080dba4        0x0 ../heart_beets_bsp//obj/HAL/src/crt0.o
 .bss           0x000000000080dba4        0x0 obj/default/hello_world.o
 .bss           0x000000000080dba4        0x0 obj/default/pacemaker.o
 .bss           0x000000000080dba4        0x0 c:/intelfpga/16.1/nios2eds/bin/gnu/h-x86_64-mingw32/bin/../lib/gcc/nios2-elf/5.3.0/../../../../../H-x86_64-mingw32/nios2-elf/lib\libc.a(lib_a-puts.o)
 .bss           0x000000000080dba4        0x0 c:/intelfpga/16.1/nios2eds/bin/gnu/h-x86_64-mingw32/bin/../lib/gcc/nios2-elf/5.3.0/../../../../../H-x86_64-mingw32/nios2-elf/lib\libc.a(lib_a-strlen.o)
 .bss           0x000000000080dba4        0x0 c:/intelfpga/16.1/nios2eds/bin/gnu/h-x86_64-mingw32/bin/../lib/gcc/nios2-elf/5.3.0/../../../../../H-x86_64-mingw32/nios2-elf/lib\libc.a(lib_a-findfp.o)
 .bss           0x000000000080dba4        0x0 c:/intelfpga/16.1/nios2eds/bin/gnu/h-x86_64-mingw32/bin/../lib/gcc/nios2-elf/5.3.0/../../../../../H-x86_64-mingw32/nios2-elf/lib\libc.a(lib_a-fvwrite.o)
 .bss           0x000000000080dba4        0x0 c:/intelfpga/16.1/nios2eds/bin/gnu/h-x86_64-mingw32/bin/../lib/gcc/nios2-elf/5.3.0/../../../../../H-x86_64-mingw32/nios2-elf/lib\libc.a(lib_a-fwalk.o)
 .bss           0x000000000080dba4        0x0 c:/intelfpga/16.1/nios2eds/bin/gnu/h-x86_64-mingw32/bin/../lib/gcc/nios2-elf/5.3.0/../../../../../H-x86_64-mingw32/nios2-elf/lib\libc.a(lib_a-impure.o)
 .bss           0x000000000080dba4        0x0 c:/intelfpga/16.1/nios2eds/bin/gnu/h-x86_64-mingw32/bin/../lib/gcc/nios2-elf/5.3.0/../../../../../H-x86_64-mingw32/nios2-elf/lib\libc.a(lib_a-mallocr.o)
 .bss.__malloc_current_mallinfo
                0x000000000080dba4       0x28 c:/intelfpga/16.1/nios2eds/bin/gnu/h-x86_64-mingw32/bin/../lib/gcc/nios2-elf/5.3.0/../../../../../H-x86_64-mingw32/nios2-elf/lib\libc.a(lib_a-mallocr.o)
                0x000000000080dba4                __malloc_current_mallinfo
 .bss           0x000000000080dbcc        0x0 c:/intelfpga/16.1/nios2eds/bin/gnu/h-x86_64-mingw32/bin/../lib/gcc/nios2-elf/5.3.0/../../../../../H-x86_64-mingw32/nios2-elf/lib\libc.a(lib_a-memchr.o)
 .bss           0x000000000080dbcc        0x0 c:/intelfpga/16.1/nios2eds/bin/gnu/h-x86_64-mingw32/bin/../lib/gcc/nios2-elf/5.3.0/../../../../../H-x86_64-mingw32/nios2-elf/lib\libc.a(lib_a-memcpy.o)
 .bss           0x000000000080dbcc        0x0 c:/intelfpga/16.1/nios2eds/bin/gnu/h-x86_64-mingw32/bin/../lib/gcc/nios2-elf/5.3.0/../../../../../H-x86_64-mingw32/nios2-elf/lib\libc.a(lib_a-memmove.o)
 .bss           0x000000000080dbcc        0x0 c:/intelfpga/16.1/nios2eds/bin/gnu/h-x86_64-mingw32/bin/../lib/gcc/nios2-elf/5.3.0/../../../../../H-x86_64-mingw32/nios2-elf/lib\libc.a(lib_a-memset.o)
 .bss           0x000000000080dbcc        0x0 c:/intelfpga/16.1/nios2eds/bin/gnu/h-x86_64-mingw32/bin/../lib/gcc/nios2-elf/5.3.0/../../../../../H-x86_64-mingw32/nios2-elf/lib\libc.a(lib_a-reallocr.o)
 .bss           0x000000000080dbcc        0x0 c:/intelfpga/16.1/nios2eds/bin/gnu/h-x86_64-mingw32/bin/../lib/gcc/nios2-elf/5.3.0/../../../../../H-x86_64-mingw32/nios2-elf/lib\libc.a(lib_a-sbrkr.o)
 .bss           0x000000000080dbcc        0x0 c:/intelfpga/16.1/nios2eds/bin/gnu/h-x86_64-mingw32/bin/../lib/gcc/nios2-elf/5.3.0/../../../../../H-x86_64-mingw32/nios2-elf/lib\libc.a(lib_a-stdio.o)
 .bss           0x000000000080dbcc        0x0 c:/intelfpga/16.1/nios2eds/bin/gnu/h-x86_64-mingw32/bin/../lib/gcc/nios2-elf/5.3.0/../../../../../H-x86_64-mingw32/nios2-elf/lib\libc.a(lib_a-writer.o)
 .bss           0x000000000080dbcc        0x0 c:/intelfpga/16.1/nios2eds/bin/gnu/h-x86_64-mingw32/bin/../lib/gcc/nios2-elf/5.3.0/../../../../../H-x86_64-mingw32/nios2-elf/lib\libc.a(lib_a-wsetup.o)
 .bss           0x000000000080dbcc        0x0 c:/intelfpga/16.1/nios2eds/bin/gnu/h-x86_64-mingw32/bin/../lib/gcc/nios2-elf/5.3.0/../../../../../H-x86_64-mingw32/nios2-elf/lib\libc.a(closer.o)
 .bss           0x000000000080dbcc        0x0 c:/intelfpga/16.1/nios2eds/bin/gnu/h-x86_64-mingw32/bin/../lib/gcc/nios2-elf/5.3.0/../../../../../H-x86_64-mingw32/nios2-elf/lib\libc.a(lib_a-fclose.o)
 .bss           0x000000000080dbcc        0x0 c:/intelfpga/16.1/nios2eds/bin/gnu/h-x86_64-mingw32/bin/../lib/gcc/nios2-elf/5.3.0/../../../../../H-x86_64-mingw32/nios2-elf/lib\libc.a(lib_a-fflush.o)
 .bss           0x000000000080dbcc        0x0 c:/intelfpga/16.1/nios2eds/bin/gnu/h-x86_64-mingw32/bin/../lib/gcc/nios2-elf/5.3.0/../../../../../H-x86_64-mingw32/nios2-elf/lib\libc.a(lib_a-freer.o)
 .bss           0x000000000080dbcc        0x0 c:/intelfpga/16.1/nios2eds/bin/gnu/h-x86_64-mingw32/bin/../lib/gcc/nios2-elf/5.3.0/../../../../../H-x86_64-mingw32/nios2-elf/lib\libc.a(lib_a-int_errno.o)
 .bss           0x000000000080dbcc        0x0 c:/intelfpga/16.1/nios2eds/bin/gnu/h-x86_64-mingw32/bin/../lib/gcc/nios2-elf/5.3.0/../../../../../H-x86_64-mingw32/nios2-elf/lib\libc.a(lib_a-lseekr.o)
 .bss           0x000000000080dbcc        0x0 c:/intelfpga/16.1/nios2eds/bin/gnu/h-x86_64-mingw32/bin/../lib/gcc/nios2-elf/5.3.0/../../../../../H-x86_64-mingw32/nios2-elf/lib\libc.a(lib_a-makebuf.o)
 .bss           0x000000000080dbcc        0x0 c:/intelfpga/16.1/nios2eds/bin/gnu/h-x86_64-mingw32/bin/../lib/gcc/nios2-elf/5.3.0/../../../../../H-x86_64-mingw32/nios2-elf/lib\libc.a(lib_a-readr.o)
 .bss           0x000000000080dbcc        0x0 c:/intelfpga/16.1/nios2eds/bin/gnu/h-x86_64-mingw32/bin/../lib/gcc/nios2-elf/5.3.0/../../../../../H-x86_64-mingw32/nios2-elf/lib\libc.a(lib_a-fstatr.o)
 .bss           0x000000000080dbcc        0x0 c:/intelfpga/16.1/nios2eds/bin/gnu/h-x86_64-mingw32/bin/../lib/gcc/nios2-elf/5.3.0/../../../../../H-x86_64-mingw32/nios2-elf/lib\libc.a(lib_a-isattyr.o)
 .bss           0x000000000080dbcc        0x0 c:/intelfpga/16.1/nios2eds/bin/gnu/h-x86_64-mingw32/bin/../lib/gcc/nios2-elf/5.3.0\libgcc.a(lib2-divmod.o)
 .bss           0x000000000080dbcc        0x0 ../heart_beets_bsp/\libhal_bsp.a(alt_alarm_start.o)
 .bss           0x000000000080dbcc        0x0 ../heart_beets_bsp/\libhal_bsp.a(alt_close.o)
 .bss           0x000000000080dbcc        0x0 ../heart_beets_bsp/\libhal_bsp.a(alt_dev.o)
 .bss           0x000000000080dbcc        0x0 ../heart_beets_bsp/\libhal_bsp.a(alt_errno.o)
 .bss           0x000000000080dbcc        0x0 ../heart_beets_bsp/\libhal_bsp.a(alt_fstat.o)
 .bss           0x000000000080dbcc        0x0 ../heart_beets_bsp/\libhal_bsp.a(alt_isatty.o)
 .bss           0x000000000080dbcc        0x0 ../heart_beets_bsp/\libhal_bsp.a(alt_load.o)
 .bss           0x000000000080dbcc        0x0 ../heart_beets_bsp/\libhal_bsp.a(alt_lseek.o)
 .bss           0x000000000080dbcc        0x0 ../heart_beets_bsp/\libhal_bsp.a(alt_main.o)
 .bss           0x000000000080dbcc        0x0 ../heart_beets_bsp/\libhal_bsp.a(alt_malloc_lock.o)
 .bss           0x000000000080dbcc        0x0 ../heart_beets_bsp/\libhal_bsp.a(alt_read.o)
 .bss           0x000000000080dbcc        0x0 ../heart_beets_bsp/\libhal_bsp.a(alt_release_fd.o)
 .bss           0x000000000080dbcc        0x0 ../heart_beets_bsp/\libhal_bsp.a(alt_sbrk.o)
 .bss           0x000000000080dbcc        0x0 ../heart_beets_bsp/\libhal_bsp.a(alt_tick.o)
 .bss           0x000000000080dbcc        0x0 ../heart_beets_bsp/\libhal_bsp.a(alt_write.o)
 .bss           0x000000000080dbcc        0x0 ../heart_beets_bsp/\libhal_bsp.a(alt_sys_init.o)
 .bss           0x000000000080dbcc        0x0 ../heart_beets_bsp/\libhal_bsp.a(altera_avalon_jtag_uart_fd.o)
 .bss           0x000000000080dbcc        0x0 ../heart_beets_bsp/\libhal_bsp.a(altera_avalon_jtag_uart_init.o)
 .bss           0x000000000080dbcc        0x0 ../heart_beets_bsp/\libhal_bsp.a(altera_avalon_jtag_uart_ioctl.o)
 .bss           0x000000000080dbcc        0x0 ../heart_beets_bsp/\libhal_bsp.a(altera_avalon_jtag_uart_read.o)
 .bss           0x000000000080dbcc        0x0 ../heart_beets_bsp/\libhal_bsp.a(altera_avalon_jtag_uart_write.o)
 .bss           0x000000000080dbcc        0x0 ../heart_beets_bsp/\libhal_bsp.a(altera_avalon_lcd_16207.o)
 .bss           0x000000000080dbcc        0x0 ../heart_beets_bsp/\libhal_bsp.a(altera_avalon_lcd_16207_fd.o)
 .bss           0x000000000080dbcc        0x0 ../heart_beets_bsp/\libhal_bsp.a(altera_avalon_timer_sc.o)
 .bss           0x000000000080dbcc        0x0 ../heart_beets_bsp/\libhal_bsp.a(altera_avalon_uart_fd.o)
 .bss           0x000000000080dbcc        0x0 ../heart_beets_bsp/\libhal_bsp.a(altera_avalon_uart_init.o)
 .bss           0x000000000080dbcc        0x0 ../heart_beets_bsp/\libhal_bsp.a(altera_avalon_uart_read.o)
 .bss           0x000000000080dbcc        0x0 ../heart_beets_bsp/\libhal_bsp.a(altera_avalon_uart_write.o)
 .bss           0x000000000080dbcc        0x0 ../heart_beets_bsp/\libhal_bsp.a(alt_dcache_flush_all.o)
 .bss           0x000000000080dbcc        0x0 ../heart_beets_bsp/\libhal_bsp.a(alt_dev_llist_insert.o)
 .bss           0x000000000080dbcc        0x0 ../heart_beets_bsp/\libhal_bsp.a(alt_do_ctors.o)
 .bss           0x000000000080dbcc        0x0 ../heart_beets_bsp/\libhal_bsp.a(alt_do_dtors.o)
 .bss           0x000000000080dbcc        0x0 ../heart_beets_bsp/\libhal_bsp.a(alt_icache_flush_all.o)
 .bss           0x000000000080dbcc        0x0 ../heart_beets_bsp/\libhal_bsp.a(alt_iic.o)
 .bss           0x000000000080dbcc        0x0 ../heart_beets_bsp/\libhal_bsp.a(alt_iic_isr_register.o)
 .bss           0x000000000080dbcc        0x0 ../heart_beets_bsp/\libhal_bsp.a(alt_io_redirect.o)
 .bss           0x000000000080dbcc        0x0 ../heart_beets_bsp/\libhal_bsp.a(alt_irq_entry.o)
 .bss           0x000000000080dbcc        0x0 ../heart_beets_bsp/\libhal_bsp.a(alt_irq_handler.o)
 .bss           0x000000000080dbcc        0x0 ../heart_beets_bsp/\libhal_bsp.a(alt_irq_vars.o)
 .bss           0x000000000080dbcc        0x0 ../heart_beets_bsp/\libhal_bsp.a(alt_open.o)
 .bss           0x000000000080dbcc        0x0 ../heart_beets_bsp/\libhal_bsp.a(alt_usleep.o)
 .bss           0x000000000080dbcc        0x0 ../heart_beets_bsp/\libhal_bsp.a(altera_nios2_gen2_irq.o)
 .bss           0x000000000080dbcc        0x0 ../heart_beets_bsp/\libhal_bsp.a(alt_busy_sleep.o)
 .bss           0x000000000080dbcc        0x0 ../heart_beets_bsp/\libhal_bsp.a(alt_exception_entry.o)
 .bss           0x000000000080dbcc        0x0 ../heart_beets_bsp/\libhal_bsp.a(alt_find_dev.o)
 .bss           0x000000000080dbcc        0x0 ../heart_beets_bsp/\libhal_bsp.a(alt_find_file.o)
 .bss           0x000000000080dbcc        0x0 ../heart_beets_bsp/\libhal_bsp.a(alt_get_fd.o)
 .bss           0x000000000080dbcc        0x0 ../heart_beets_bsp/\libhal_bsp.a(alt_icache_flush.o)
 .bss           0x000000000080dbcc        0x0 ../heart_beets_bsp/\libhal_bsp.a(alt_instruction_exception_entry.o)
 .bss           0x000000000080dbcc        0x0 c:/intelfpga/16.1/nios2eds/bin/gnu/h-x86_64-mingw32/bin/../lib/gcc/nios2-elf/5.3.0/../../../../../H-x86_64-mingw32/nios2-elf/lib\libc.a(lib_a-atexit.o)
 .bss           0x000000000080dbcc        0x0 c:/intelfpga/16.1/nios2eds/bin/gnu/h-x86_64-mingw32/bin/../lib/gcc/nios2-elf/5.3.0/../../../../../H-x86_64-mingw32/nios2-elf/lib\libc.a(lib_a-ctype_.o)
 .bss           0x000000000080dbcc        0x0 c:/intelfpga/16.1/nios2eds/bin/gnu/h-x86_64-mingw32/bin/../lib/gcc/nios2-elf/5.3.0/../../../../../H-x86_64-mingw32/nios2-elf/lib\libc.a(lib_a-exit.o)
 .bss           0x000000000080dbcc        0x0 c:/intelfpga/16.1/nios2eds/bin/gnu/h-x86_64-mingw32/bin/../lib/gcc/nios2-elf/5.3.0/../../../../../H-x86_64-mingw32/nios2-elf/lib\libc.a(lib_a-memcmp.o)
 .bss           0x000000000080dbcc        0x0 c:/intelfpga/16.1/nios2eds/bin/gnu/h-x86_64-mingw32/bin/../lib/gcc/nios2-elf/5.3.0/../../../../../H-x86_64-mingw32/nios2-elf/lib\libc.a(lib_a-__atexit.o)
 .bss           0x000000000080dbcc        0x0 c:/intelfpga/16.1/nios2eds/bin/gnu/h-x86_64-mingw32/bin/../lib/gcc/nios2-elf/5.3.0/../../../../../H-x86_64-mingw32/nios2-elf/lib\libc.a(lib_a-__call_atexit.o)
 .bss           0x000000000080dbcc        0x0 ../heart_beets_bsp/\libhal_bsp.a(alt_exit.o)
 *(COMMON)
 COMMON         0x000000000080dbcc       0xc0 obj/default/hello_world.o
                0x000000000080dbcc                Ventricular_timer
                0x000000000080dbe4                PVARP_timer
                0x000000000080dbfc                VRP_timer
                0x000000000080dc14                Atrial_timer
                0x000000000080dc2c                AVI_timer
                0x000000000080dc44                LRI_timer
                0x000000000080dc5c                AEI_timer
                0x000000000080dc74                URI_timer
 COMMON         0x000000000080dc8c      0x100 ../heart_beets_bsp/\libhal_bsp.a(alt_irq_handler.o)
                0x000000000080dc8c                alt_irq
                0x000000000080dd8c                . = ALIGN (0x4)
                0x000000000080dd8c                __bss_end = ABSOLUTE (.)

.sdram          0x000000000080dd8c        0x0
                [!provide]                        PROVIDE (_alt_partition_sdram_start, ABSOLUTE (.))
 *(.sdram .sdram. sdram.*)
                0x000000000080dd8c                . = ALIGN (0x4)
                [!provide]                        PROVIDE (_alt_partition_sdram_end, ABSOLUTE (.))
                0x000000000080dd8c                _end = ABSOLUTE (.)
                0x000000000080dd8c                end = ABSOLUTE (.)
                0x000000000080dd8c                __alt_stack_base = ABSOLUTE (.)
                [!provide]                        PROVIDE (_alt_partition_sdram_load_addr, LOADADDR (.sdram))

.onchip_mem     0x0000000001080000        0x0 load address 0x000000000080dd8c
                [!provide]                        PROVIDE (_alt_partition_onchip_mem_start, ABSOLUTE (.))
 *(.onchip_mem .onchip_mem. onchip_mem.*)
                0x0000000001080000                . = ALIGN (0x4)
                [!provide]                        PROVIDE (_alt_partition_onchip_mem_end, ABSOLUTE (.))
                [!provide]                        PROVIDE (_alt_partition_onchip_mem_load_addr, LOADADDR (.onchip_mem))

.stab
 *(.stab)

.stabstr
 *(.stabstr)

.stab.excl
 *(.stab.excl)

.stab.exclstr
 *(.stab.exclstr)

.stab.index
 *(.stab.index)

.stab.indexstr
 *(.stab.indexstr)

.comment        0x0000000000000000       0x23
 *(.comment)
 .comment       0x0000000000000000       0x23 obj/default/hello_world.o
                                         0x24 (size before relaxing)
 .comment       0x0000000000000023       0x24 obj/default/pacemaker.o
 .comment       0x0000000000000023       0x24 c:/intelfpga/16.1/nios2eds/bin/gnu/h-x86_64-mingw32/bin/../lib/gcc/nios2-elf/5.3.0/../../../../../H-x86_64-mingw32/nios2-elf/lib\libc.a(lib_a-puts.o)
 .comment       0x0000000000000023       0x24 c:/intelfpga/16.1/nios2eds/bin/gnu/h-x86_64-mingw32/bin/../lib/gcc/nios2-elf/5.3.0/../../../../../H-x86_64-mingw32/nios2-elf/lib\libc.a(lib_a-strlen.o)
 .comment       0x0000000000000023       0x24 c:/intelfpga/16.1/nios2eds/bin/gnu/h-x86_64-mingw32/bin/../lib/gcc/nios2-elf/5.3.0/../../../../../H-x86_64-mingw32/nios2-elf/lib\libc.a(lib_a-findfp.o)
 .comment       0x0000000000000023       0x24 c:/intelfpga/16.1/nios2eds/bin/gnu/h-x86_64-mingw32/bin/../lib/gcc/nios2-elf/5.3.0/../../../../../H-x86_64-mingw32/nios2-elf/lib\libc.a(lib_a-fvwrite.o)
 .comment       0x0000000000000023       0x24 c:/intelfpga/16.1/nios2eds/bin/gnu/h-x86_64-mingw32/bin/../lib/gcc/nios2-elf/5.3.0/../../../../../H-x86_64-mingw32/nios2-elf/lib\libc.a(lib_a-fwalk.o)
 .comment       0x0000000000000023       0x24 c:/intelfpga/16.1/nios2eds/bin/gnu/h-x86_64-mingw32/bin/../lib/gcc/nios2-elf/5.3.0/../../../../../H-x86_64-mingw32/nios2-elf/lib\libc.a(lib_a-impure.o)
 .comment       0x0000000000000023       0x24 c:/intelfpga/16.1/nios2eds/bin/gnu/h-x86_64-mingw32/bin/../lib/gcc/nios2-elf/5.3.0/../../../../../H-x86_64-mingw32/nios2-elf/lib\libc.a(lib_a-mallocr.o)
 .comment       0x0000000000000023       0x24 c:/intelfpga/16.1/nios2eds/bin/gnu/h-x86_64-mingw32/bin/../lib/gcc/nios2-elf/5.3.0/../../../../../H-x86_64-mingw32/nios2-elf/lib\libc.a(lib_a-memchr.o)
 .comment       0x0000000000000023       0x24 c:/intelfpga/16.1/nios2eds/bin/gnu/h-x86_64-mingw32/bin/../lib/gcc/nios2-elf/5.3.0/../../../../../H-x86_64-mingw32/nios2-elf/lib\libc.a(lib_a-memcpy.o)
 .comment       0x0000000000000023       0x24 c:/intelfpga/16.1/nios2eds/bin/gnu/h-x86_64-mingw32/bin/../lib/gcc/nios2-elf/5.3.0/../../../../../H-x86_64-mingw32/nios2-elf/lib\libc.a(lib_a-memmove.o)
 .comment       0x0000000000000023       0x24 c:/intelfpga/16.1/nios2eds/bin/gnu/h-x86_64-mingw32/bin/../lib/gcc/nios2-elf/5.3.0/../../../../../H-x86_64-mingw32/nios2-elf/lib\libc.a(lib_a-memset.o)
 .comment       0x0000000000000023       0x24 c:/intelfpga/16.1/nios2eds/bin/gnu/h-x86_64-mingw32/bin/../lib/gcc/nios2-elf/5.3.0/../../../../../H-x86_64-mingw32/nios2-elf/lib\libc.a(lib_a-reallocr.o)
 .comment       0x0000000000000023       0x24 c:/intelfpga/16.1/nios2eds/bin/gnu/h-x86_64-mingw32/bin/../lib/gcc/nios2-elf/5.3.0/../../../../../H-x86_64-mingw32/nios2-elf/lib\libc.a(lib_a-sbrkr.o)
 .comment       0x0000000000000023       0x24 c:/intelfpga/16.1/nios2eds/bin/gnu/h-x86_64-mingw32/bin/../lib/gcc/nios2-elf/5.3.0/../../../../../H-x86_64-mingw32/nios2-elf/lib\libc.a(lib_a-stdio.o)
 .comment       0x0000000000000023       0x24 c:/intelfpga/16.1/nios2eds/bin/gnu/h-x86_64-mingw32/bin/../lib/gcc/nios2-elf/5.3.0/../../../../../H-x86_64-mingw32/nios2-elf/lib\libc.a(lib_a-writer.o)
 .comment       0x0000000000000023       0x24 c:/intelfpga/16.1/nios2eds/bin/gnu/h-x86_64-mingw32/bin/../lib/gcc/nios2-elf/5.3.0/../../../../../H-x86_64-mingw32/nios2-elf/lib\libc.a(lib_a-wsetup.o)
 .comment       0x0000000000000023       0x24 c:/intelfpga/16.1/nios2eds/bin/gnu/h-x86_64-mingw32/bin/../lib/gcc/nios2-elf/5.3.0/../../../../../H-x86_64-mingw32/nios2-elf/lib\libc.a(closer.o)
 .comment       0x0000000000000023       0x24 c:/intelfpga/16.1/nios2eds/bin/gnu/h-x86_64-mingw32/bin/../lib/gcc/nios2-elf/5.3.0/../../../../../H-x86_64-mingw32/nios2-elf/lib\libc.a(lib_a-fclose.o)
 .comment       0x0000000000000023       0x24 c:/intelfpga/16.1/nios2eds/bin/gnu/h-x86_64-mingw32/bin/../lib/gcc/nios2-elf/5.3.0/../../../../../H-x86_64-mingw32/nios2-elf/lib\libc.a(lib_a-fflush.o)
 .comment       0x0000000000000023       0x24 c:/intelfpga/16.1/nios2eds/bin/gnu/h-x86_64-mingw32/bin/../lib/gcc/nios2-elf/5.3.0/../../../../../H-x86_64-mingw32/nios2-elf/lib\libc.a(lib_a-freer.o)
 .comment       0x0000000000000023       0x24 c:/intelfpga/16.1/nios2eds/bin/gnu/h-x86_64-mingw32/bin/../lib/gcc/nios2-elf/5.3.0/../../../../../H-x86_64-mingw32/nios2-elf/lib\libc.a(lib_a-int_errno.o)
 .comment       0x0000000000000023       0x24 c:/intelfpga/16.1/nios2eds/bin/gnu/h-x86_64-mingw32/bin/../lib/gcc/nios2-elf/5.3.0/../../../../../H-x86_64-mingw32/nios2-elf/lib\libc.a(lib_a-lseekr.o)
 .comment       0x0000000000000023       0x24 c:/intelfpga/16.1/nios2eds/bin/gnu/h-x86_64-mingw32/bin/../lib/gcc/nios2-elf/5.3.0/../../../../../H-x86_64-mingw32/nios2-elf/lib\libc.a(lib_a-makebuf.o)
 .comment       0x0000000000000023       0x24 c:/intelfpga/16.1/nios2eds/bin/gnu/h-x86_64-mingw32/bin/../lib/gcc/nios2-elf/5.3.0/../../../../../H-x86_64-mingw32/nios2-elf/lib\libc.a(lib_a-readr.o)
 .comment       0x0000000000000023       0x24 c:/intelfpga/16.1/nios2eds/bin/gnu/h-x86_64-mingw32/bin/../lib/gcc/nios2-elf/5.3.0/../../../../../H-x86_64-mingw32/nios2-elf/lib\libc.a(lib_a-fstatr.o)
 .comment       0x0000000000000023       0x24 c:/intelfpga/16.1/nios2eds/bin/gnu/h-x86_64-mingw32/bin/../lib/gcc/nios2-elf/5.3.0/../../../../../H-x86_64-mingw32/nios2-elf/lib\libc.a(lib_a-isattyr.o)
 .comment       0x0000000000000023       0x24 c:/intelfpga/16.1/nios2eds/bin/gnu/h-x86_64-mingw32/bin/../lib/gcc/nios2-elf/5.3.0\libgcc.a(lib2-divmod.o)
 .comment       0x0000000000000023       0x24 ../heart_beets_bsp/\libhal_bsp.a(alt_alarm_start.o)
 .comment       0x0000000000000023       0x24 ../heart_beets_bsp/\libhal_bsp.a(alt_close.o)
 .comment       0x0000000000000023       0x24 ../heart_beets_bsp/\libhal_bsp.a(alt_dev.o)
 .comment       0x0000000000000023       0x24 ../heart_beets_bsp/\libhal_bsp.a(alt_errno.o)
 .comment       0x0000000000000023       0x24 ../heart_beets_bsp/\libhal_bsp.a(alt_fstat.o)
 .comment       0x0000000000000023       0x24 ../heart_beets_bsp/\libhal_bsp.a(alt_isatty.o)
 .comment       0x0000000000000023       0x24 ../heart_beets_bsp/\libhal_bsp.a(alt_load.o)
 .comment       0x0000000000000023       0x24 ../heart_beets_bsp/\libhal_bsp.a(alt_lseek.o)
 .comment       0x0000000000000023       0x24 ../heart_beets_bsp/\libhal_bsp.a(alt_main.o)
 .comment       0x0000000000000023       0x24 ../heart_beets_bsp/\libhal_bsp.a(alt_malloc_lock.o)
 .comment       0x0000000000000023       0x24 ../heart_beets_bsp/\libhal_bsp.a(alt_read.o)
 .comment       0x0000000000000023       0x24 ../heart_beets_bsp/\libhal_bsp.a(alt_release_fd.o)
 .comment       0x0000000000000023       0x24 ../heart_beets_bsp/\libhal_bsp.a(alt_sbrk.o)
 .comment       0x0000000000000023       0x24 ../heart_beets_bsp/\libhal_bsp.a(alt_tick.o)
 .comment       0x0000000000000023       0x24 ../heart_beets_bsp/\libhal_bsp.a(alt_write.o)
 .comment       0x0000000000000023       0x24 ../heart_beets_bsp/\libhal_bsp.a(alt_sys_init.o)
 .comment       0x0000000000000023       0x24 ../heart_beets_bsp/\libhal_bsp.a(altera_avalon_jtag_uart_fd.o)
 .comment       0x0000000000000023       0x24 ../heart_beets_bsp/\libhal_bsp.a(altera_avalon_jtag_uart_init.o)
 .comment       0x0000000000000023       0x24 ../heart_beets_bsp/\libhal_bsp.a(altera_avalon_jtag_uart_ioctl.o)
 .comment       0x0000000000000023       0x24 ../heart_beets_bsp/\libhal_bsp.a(altera_avalon_jtag_uart_read.o)
 .comment       0x0000000000000023       0x24 ../heart_beets_bsp/\libhal_bsp.a(altera_avalon_jtag_uart_write.o)
 .comment       0x0000000000000023       0x24 ../heart_beets_bsp/\libhal_bsp.a(altera_avalon_lcd_16207.o)
 .comment       0x0000000000000023       0x24 ../heart_beets_bsp/\libhal_bsp.a(altera_avalon_lcd_16207_fd.o)
 .comment       0x0000000000000023       0x24 ../heart_beets_bsp/\libhal_bsp.a(altera_avalon_timer_sc.o)
 .comment       0x0000000000000023       0x24 ../heart_beets_bsp/\libhal_bsp.a(altera_avalon_uart_fd.o)
 .comment       0x0000000000000023       0x24 ../heart_beets_bsp/\libhal_bsp.a(altera_avalon_uart_init.o)
 .comment       0x0000000000000023       0x24 ../heart_beets_bsp/\libhal_bsp.a(altera_avalon_uart_read.o)
 .comment       0x0000000000000023       0x24 ../heart_beets_bsp/\libhal_bsp.a(altera_avalon_uart_write.o)
 .comment       0x0000000000000023       0x24 ../heart_beets_bsp/\libhal_bsp.a(alt_dcache_flush_all.o)
 .comment       0x0000000000000023       0x24 ../heart_beets_bsp/\libhal_bsp.a(alt_dev_llist_insert.o)
 .comment       0x0000000000000023       0x24 ../heart_beets_bsp/\libhal_bsp.a(alt_do_ctors.o)
 .comment       0x0000000000000023       0x24 ../heart_beets_bsp/\libhal_bsp.a(alt_do_dtors.o)
 .comment       0x0000000000000023       0x24 ../heart_beets_bsp/\libhal_bsp.a(alt_icache_flush_all.o)
 .comment       0x0000000000000023       0x24 ../heart_beets_bsp/\libhal_bsp.a(alt_iic.o)
 .comment       0x0000000000000023       0x24 ../heart_beets_bsp/\libhal_bsp.a(alt_iic_isr_register.o)
 .comment       0x0000000000000023       0x24 ../heart_beets_bsp/\libhal_bsp.a(alt_io_redirect.o)
 .comment       0x0000000000000023       0x24 ../heart_beets_bsp/\libhal_bsp.a(alt_irq_handler.o)
 .comment       0x0000000000000023       0x24 ../heart_beets_bsp/\libhal_bsp.a(alt_irq_vars.o)
 .comment       0x0000000000000023       0x24 ../heart_beets_bsp/\libhal_bsp.a(alt_open.o)
 .comment       0x0000000000000023       0x24 ../heart_beets_bsp/\libhal_bsp.a(alt_usleep.o)
 .comment       0x0000000000000023       0x24 ../heart_beets_bsp/\libhal_bsp.a(altera_nios2_gen2_irq.o)
 .comment       0x0000000000000023       0x24 ../heart_beets_bsp/\libhal_bsp.a(alt_busy_sleep.o)
 .comment       0x0000000000000023       0x24 ../heart_beets_bsp/\libhal_bsp.a(alt_find_dev.o)
 .comment       0x0000000000000023       0x24 ../heart_beets_bsp/\libhal_bsp.a(alt_find_file.o)
 .comment       0x0000000000000023       0x24 ../heart_beets_bsp/\libhal_bsp.a(alt_get_fd.o)
 .comment       0x0000000000000023       0x24 ../heart_beets_bsp/\libhal_bsp.a(alt_icache_flush.o)
 .comment       0x0000000000000023       0x24 ../heart_beets_bsp/\libhal_bsp.a(alt_instruction_exception_entry.o)
 .comment       0x0000000000000023       0x24 c:/intelfpga/16.1/nios2eds/bin/gnu/h-x86_64-mingw32/bin/../lib/gcc/nios2-elf/5.3.0/../../../../../H-x86_64-mingw32/nios2-elf/lib\libc.a(lib_a-atexit.o)
 .comment       0x0000000000000023       0x24 c:/intelfpga/16.1/nios2eds/bin/gnu/h-x86_64-mingw32/bin/../lib/gcc/nios2-elf/5.3.0/../../../../../H-x86_64-mingw32/nios2-elf/lib\libc.a(lib_a-ctype_.o)
 .comment       0x0000000000000023       0x24 c:/intelfpga/16.1/nios2eds/bin/gnu/h-x86_64-mingw32/bin/../lib/gcc/nios2-elf/5.3.0/../../../../../H-x86_64-mingw32/nios2-elf/lib\libc.a(lib_a-exit.o)
 .comment       0x0000000000000023       0x24 c:/intelfpga/16.1/nios2eds/bin/gnu/h-x86_64-mingw32/bin/../lib/gcc/nios2-elf/5.3.0/../../../../../H-x86_64-mingw32/nios2-elf/lib\libc.a(lib_a-memcmp.o)
 .comment       0x0000000000000023       0x24 c:/intelfpga/16.1/nios2eds/bin/gnu/h-x86_64-mingw32/bin/../lib/gcc/nios2-elf/5.3.0/../../../../../H-x86_64-mingw32/nios2-elf/lib\libc.a(lib_a-__atexit.o)
 .comment       0x0000000000000023       0x24 c:/intelfpga/16.1/nios2eds/bin/gnu/h-x86_64-mingw32/bin/../lib/gcc/nios2-elf/5.3.0/../../../../../H-x86_64-mingw32/nios2-elf/lib\libc.a(lib_a-__call_atexit.o)
 .comment       0x0000000000000023       0x24 ../heart_beets_bsp/\libhal_bsp.a(alt_exit.o)

.debug
 *(.debug)

.line
 *(.line)

.debug_srcinfo
 *(.debug_srcinfo)

.debug_sfnames
 *(.debug_sfnames)

.debug_aranges  0x0000000000000000      0xb68
 *(.debug_aranges)
 .debug_aranges
                0x0000000000000000       0x28 ../heart_beets_bsp//obj/HAL/src/crt0.o
 .debug_aranges
                0x0000000000000028       0x20 obj/default/hello_world.o
 .debug_aranges
                0x0000000000000048       0x20 obj/default/pacemaker.o
 .debug_aranges
                0x0000000000000068       0x28 c:/intelfpga/16.1/nios2eds/bin/gnu/h-x86_64-mingw32/bin/../lib/gcc/nios2-elf/5.3.0/../../../../../H-x86_64-mingw32/nios2-elf/lib\libc.a(lib_a-puts.o)
 .debug_aranges
                0x0000000000000090       0x20 c:/intelfpga/16.1/nios2eds/bin/gnu/h-x86_64-mingw32/bin/../lib/gcc/nios2-elf/5.3.0/../../../../../H-x86_64-mingw32/nios2-elf/lib\libc.a(lib_a-strlen.o)
 .debug_aranges
                0x00000000000000b0       0x68 c:/intelfpga/16.1/nios2eds/bin/gnu/h-x86_64-mingw32/bin/../lib/gcc/nios2-elf/5.3.0/../../../../../H-x86_64-mingw32/nios2-elf/lib\libc.a(lib_a-findfp.o)
 .debug_aranges
                0x0000000000000118       0x20 c:/intelfpga/16.1/nios2eds/bin/gnu/h-x86_64-mingw32/bin/../lib/gcc/nios2-elf/5.3.0/../../../../../H-x86_64-mingw32/nios2-elf/lib\libc.a(lib_a-fvwrite.o)
 .debug_aranges
                0x0000000000000138       0x28 c:/intelfpga/16.1/nios2eds/bin/gnu/h-x86_64-mingw32/bin/../lib/gcc/nios2-elf/5.3.0/../../../../../H-x86_64-mingw32/nios2-elf/lib\libc.a(lib_a-fwalk.o)
 .debug_aranges
                0x0000000000000160       0x18 c:/intelfpga/16.1/nios2eds/bin/gnu/h-x86_64-mingw32/bin/../lib/gcc/nios2-elf/5.3.0/../../../../../H-x86_64-mingw32/nios2-elf/lib\libc.a(lib_a-impure.o)
 .debug_aranges
                0x0000000000000178       0x20 c:/intelfpga/16.1/nios2eds/bin/gnu/h-x86_64-mingw32/bin/../lib/gcc/nios2-elf/5.3.0/../../../../../H-x86_64-mingw32/nios2-elf/lib\libc.a(lib_a-mallocr.o)
 .debug_aranges
                0x0000000000000198       0x20 c:/intelfpga/16.1/nios2eds/bin/gnu/h-x86_64-mingw32/bin/../lib/gcc/nios2-elf/5.3.0/../../../../../H-x86_64-mingw32/nios2-elf/lib\libc.a(lib_a-memchr.o)
 .debug_aranges
                0x00000000000001b8       0x20 c:/intelfpga/16.1/nios2eds/bin/gnu/h-x86_64-mingw32/bin/../lib/gcc/nios2-elf/5.3.0/../../../../../H-x86_64-mingw32/nios2-elf/lib\libc.a(lib_a-memcpy.o)
 .debug_aranges
                0x00000000000001d8       0x20 c:/intelfpga/16.1/nios2eds/bin/gnu/h-x86_64-mingw32/bin/../lib/gcc/nios2-elf/5.3.0/../../../../../H-x86_64-mingw32/nios2-elf/lib\libc.a(lib_a-memmove.o)
 .debug_aranges
                0x00000000000001f8       0x20 c:/intelfpga/16.1/nios2eds/bin/gnu/h-x86_64-mingw32/bin/../lib/gcc/nios2-elf/5.3.0/../../../../../H-x86_64-mingw32/nios2-elf/lib\libc.a(lib_a-memset.o)
 .debug_aranges
                0x0000000000000218       0x20 c:/intelfpga/16.1/nios2eds/bin/gnu/h-x86_64-mingw32/bin/../lib/gcc/nios2-elf/5.3.0/../../../../../H-x86_64-mingw32/nios2-elf/lib\libc.a(lib_a-reallocr.o)
 .debug_aranges
                0x0000000000000238       0x20 c:/intelfpga/16.1/nios2eds/bin/gnu/h-x86_64-mingw32/bin/../lib/gcc/nios2-elf/5.3.0/../../../../../H-x86_64-mingw32/nios2-elf/lib\libc.a(lib_a-sbrkr.o)
 .debug_aranges
                0x0000000000000258       0x40 c:/intelfpga/16.1/nios2eds/bin/gnu/h-x86_64-mingw32/bin/../lib/gcc/nios2-elf/5.3.0/../../../../../H-x86_64-mingw32/nios2-elf/lib\libc.a(lib_a-stdio.o)
 .debug_aranges
                0x0000000000000298       0x20 c:/intelfpga/16.1/nios2eds/bin/gnu/h-x86_64-mingw32/bin/../lib/gcc/nios2-elf/5.3.0/../../../../../H-x86_64-mingw32/nios2-elf/lib\libc.a(lib_a-writer.o)
 .debug_aranges
                0x00000000000002b8       0x20 c:/intelfpga/16.1/nios2eds/bin/gnu/h-x86_64-mingw32/bin/../lib/gcc/nios2-elf/5.3.0/../../../../../H-x86_64-mingw32/nios2-elf/lib\libc.a(lib_a-wsetup.o)
 .debug_aranges
                0x00000000000002d8       0x20 c:/intelfpga/16.1/nios2eds/bin/gnu/h-x86_64-mingw32/bin/../lib/gcc/nios2-elf/5.3.0/../../../../../H-x86_64-mingw32/nios2-elf/lib\libc.a(closer.o)
 .debug_aranges
                0x00000000000002f8       0x28 c:/intelfpga/16.1/nios2eds/bin/gnu/h-x86_64-mingw32/bin/../lib/gcc/nios2-elf/5.3.0/../../../../../H-x86_64-mingw32/nios2-elf/lib\libc.a(lib_a-fclose.o)
 .debug_aranges
                0x0000000000000320       0x30 c:/intelfpga/16.1/nios2eds/bin/gnu/h-x86_64-mingw32/bin/../lib/gcc/nios2-elf/5.3.0/../../../../../H-x86_64-mingw32/nios2-elf/lib\libc.a(lib_a-fflush.o)
 .debug_aranges
                0x0000000000000350       0x28 c:/intelfpga/16.1/nios2eds/bin/gnu/h-x86_64-mingw32/bin/../lib/gcc/nios2-elf/5.3.0/../../../../../H-x86_64-mingw32/nios2-elf/lib\libc.a(lib_a-freer.o)
 .debug_aranges
                0x0000000000000378       0x18 c:/intelfpga/16.1/nios2eds/bin/gnu/h-x86_64-mingw32/bin/../lib/gcc/nios2-elf/5.3.0/../../../../../H-x86_64-mingw32/nios2-elf/lib\libc.a(lib_a-int_errno.o)
 .debug_aranges
                0x0000000000000390       0x20 c:/intelfpga/16.1/nios2eds/bin/gnu/h-x86_64-mingw32/bin/../lib/gcc/nios2-elf/5.3.0/../../../../../H-x86_64-mingw32/nios2-elf/lib\libc.a(lib_a-lseekr.o)
 .debug_aranges
                0x00000000000003b0       0x20 c:/intelfpga/16.1/nios2eds/bin/gnu/h-x86_64-mingw32/bin/../lib/gcc/nios2-elf/5.3.0/../../../../../H-x86_64-mingw32/nios2-elf/lib\libc.a(lib_a-makebuf.o)
 .debug_aranges
                0x00000000000003d0       0x20 c:/intelfpga/16.1/nios2eds/bin/gnu/h-x86_64-mingw32/bin/../lib/gcc/nios2-elf/5.3.0/../../../../../H-x86_64-mingw32/nios2-elf/lib\libc.a(lib_a-readr.o)
 .debug_aranges
                0x00000000000003f0       0x20 c:/intelfpga/16.1/nios2eds/bin/gnu/h-x86_64-mingw32/bin/../lib/gcc/nios2-elf/5.3.0/../../../../../H-x86_64-mingw32/nios2-elf/lib\libc.a(lib_a-fstatr.o)
 .debug_aranges
                0x0000000000000410       0x20 c:/intelfpga/16.1/nios2eds/bin/gnu/h-x86_64-mingw32/bin/../lib/gcc/nios2-elf/5.3.0/../../../../../H-x86_64-mingw32/nios2-elf/lib\libc.a(lib_a-isattyr.o)
 .debug_aranges
                0x0000000000000430       0x20 c:/intelfpga/16.1/nios2eds/bin/gnu/h-x86_64-mingw32/bin/../lib/gcc/nios2-elf/5.3.0\libgcc.a(lib2-divmod.o)
 .debug_aranges
                0x0000000000000450       0x20 ../heart_beets_bsp/\libhal_bsp.a(alt_alarm_start.o)
 .debug_aranges
                0x0000000000000470       0x20 ../heart_beets_bsp/\libhal_bsp.a(alt_close.o)
 .debug_aranges
                0x0000000000000490       0x20 ../heart_beets_bsp/\libhal_bsp.a(alt_dev.o)
 .debug_aranges
                0x00000000000004b0       0x18 ../heart_beets_bsp/\libhal_bsp.a(alt_errno.o)
 .debug_aranges
                0x00000000000004c8       0x20 ../heart_beets_bsp/\libhal_bsp.a(alt_fstat.o)
 .debug_aranges
                0x00000000000004e8       0x20 ../heart_beets_bsp/\libhal_bsp.a(alt_isatty.o)
 .debug_aranges
                0x0000000000000508       0x20 ../heart_beets_bsp/\libhal_bsp.a(alt_load.o)
 .debug_aranges
                0x0000000000000528       0x20 ../heart_beets_bsp/\libhal_bsp.a(alt_lseek.o)
 .debug_aranges
                0x0000000000000548       0x20 ../heart_beets_bsp/\libhal_bsp.a(alt_main.o)
 .debug_aranges
                0x0000000000000568       0x20 ../heart_beets_bsp/\libhal_bsp.a(alt_malloc_lock.o)
 .debug_aranges
                0x0000000000000588       0x20 ../heart_beets_bsp/\libhal_bsp.a(alt_read.o)
 .debug_aranges
                0x00000000000005a8       0x20 ../heart_beets_bsp/\libhal_bsp.a(alt_release_fd.o)
 .debug_aranges
                0x00000000000005c8       0x20 ../heart_beets_bsp/\libhal_bsp.a(alt_sbrk.o)
 .debug_aranges
                0x00000000000005e8       0x20 ../heart_beets_bsp/\libhal_bsp.a(alt_tick.o)
 .debug_aranges
                0x0000000000000608       0x20 ../heart_beets_bsp/\libhal_bsp.a(alt_write.o)
 .debug_aranges
                0x0000000000000628       0x20 ../heart_beets_bsp/\libhal_bsp.a(alt_sys_init.o)
 .debug_aranges
                0x0000000000000648       0x20 ../heart_beets_bsp/\libhal_bsp.a(altera_avalon_jtag_uart_fd.o)
 .debug_aranges
                0x0000000000000668       0x20 ../heart_beets_bsp/\libhal_bsp.a(altera_avalon_jtag_uart_init.o)
 .debug_aranges
                0x0000000000000688       0x20 ../heart_beets_bsp/\libhal_bsp.a(altera_avalon_jtag_uart_ioctl.o)
 .debug_aranges
                0x00000000000006a8       0x20 ../heart_beets_bsp/\libhal_bsp.a(altera_avalon_jtag_uart_read.o)
 .debug_aranges
                0x00000000000006c8       0x20 ../heart_beets_bsp/\libhal_bsp.a(altera_avalon_jtag_uart_write.o)
 .debug_aranges
                0x00000000000006e8       0x20 ../heart_beets_bsp/\libhal_bsp.a(altera_avalon_lcd_16207.o)
 .debug_aranges
                0x0000000000000708       0x20 ../heart_beets_bsp/\libhal_bsp.a(altera_avalon_lcd_16207_fd.o)
 .debug_aranges
                0x0000000000000728       0x20 ../heart_beets_bsp/\libhal_bsp.a(altera_avalon_timer_sc.o)
 .debug_aranges
                0x0000000000000748       0x20 ../heart_beets_bsp/\libhal_bsp.a(altera_avalon_uart_fd.o)
 .debug_aranges
                0x0000000000000768       0x20 ../heart_beets_bsp/\libhal_bsp.a(altera_avalon_uart_init.o)
 .debug_aranges
                0x0000000000000788       0x20 ../heart_beets_bsp/\libhal_bsp.a(altera_avalon_uart_read.o)
 .debug_aranges
                0x00000000000007a8       0x20 ../heart_beets_bsp/\libhal_bsp.a(altera_avalon_uart_write.o)
 .debug_aranges
                0x00000000000007c8       0x20 ../heart_beets_bsp/\libhal_bsp.a(alt_dcache_flush_all.o)
 .debug_aranges
                0x00000000000007e8       0x20 ../heart_beets_bsp/\libhal_bsp.a(alt_dev_llist_insert.o)
 .debug_aranges
                0x0000000000000808       0x20 ../heart_beets_bsp/\libhal_bsp.a(alt_do_ctors.o)
 .debug_aranges
                0x0000000000000828       0x20 ../heart_beets_bsp/\libhal_bsp.a(alt_do_dtors.o)
 .debug_aranges
                0x0000000000000848       0x20 ../heart_beets_bsp/\libhal_bsp.a(alt_icache_flush_all.o)
 .debug_aranges
                0x0000000000000868       0x20 ../heart_beets_bsp/\libhal_bsp.a(alt_iic.o)
 .debug_aranges
                0x0000000000000888       0x20 ../heart_beets_bsp/\libhal_bsp.a(alt_iic_isr_register.o)
 .debug_aranges
                0x00000000000008a8       0x20 ../heart_beets_bsp/\libhal_bsp.a(alt_io_redirect.o)
 .debug_aranges
                0x00000000000008c8       0x30 ../heart_beets_bsp/\libhal_bsp.a(alt_irq_entry.o)
 .debug_aranges
                0x00000000000008f8       0x20 ../heart_beets_bsp/\libhal_bsp.a(alt_irq_handler.o)
 .debug_aranges
                0x0000000000000918       0x18 ../heart_beets_bsp/\libhal_bsp.a(alt_irq_vars.o)
 .debug_aranges
                0x0000000000000930       0x20 ../heart_beets_bsp/\libhal_bsp.a(alt_open.o)
 .debug_aranges
                0x0000000000000950       0x20 ../heart_beets_bsp/\libhal_bsp.a(alt_usleep.o)
 .debug_aranges
                0x0000000000000970       0x20 ../heart_beets_bsp/\libhal_bsp.a(altera_nios2_gen2_irq.o)
 .debug_aranges
                0x0000000000000990       0x20 ../heart_beets_bsp/\libhal_bsp.a(alt_busy_sleep.o)
 .debug_aranges
                0x00000000000009b0       0x38 ../heart_beets_bsp/\libhal_bsp.a(alt_exception_entry.o)
 .debug_aranges
                0x00000000000009e8       0x20 ../heart_beets_bsp/\libhal_bsp.a(alt_find_dev.o)
 .debug_aranges
                0x0000000000000a08       0x20 ../heart_beets_bsp/\libhal_bsp.a(alt_find_file.o)
 .debug_aranges
                0x0000000000000a28       0x20 ../heart_beets_bsp/\libhal_bsp.a(alt_get_fd.o)
 .debug_aranges
                0x0000000000000a48       0x20 ../heart_beets_bsp/\libhal_bsp.a(alt_icache_flush.o)
 .debug_aranges
                0x0000000000000a68       0x28 ../heart_beets_bsp/\libhal_bsp.a(alt_instruction_exception_entry.o)
 .debug_aranges
                0x0000000000000a90       0x20 c:/intelfpga/16.1/nios2eds/bin/gnu/h-x86_64-mingw32/bin/../lib/gcc/nios2-elf/5.3.0/../../../../../H-x86_64-mingw32/nios2-elf/lib\libc.a(lib_a-atexit.o)
 .debug_aranges
                0x0000000000000ab0       0x18 c:/intelfpga/16.1/nios2eds/bin/gnu/h-x86_64-mingw32/bin/../lib/gcc/nios2-elf/5.3.0/../../../../../H-x86_64-mingw32/nios2-elf/lib\libc.a(lib_a-ctype_.o)
 .debug_aranges
                0x0000000000000ac8       0x20 c:/intelfpga/16.1/nios2eds/bin/gnu/h-x86_64-mingw32/bin/../lib/gcc/nios2-elf/5.3.0/../../../../../H-x86_64-mingw32/nios2-elf/lib\libc.a(lib_a-exit.o)
 .debug_aranges
                0x0000000000000ae8       0x20 c:/intelfpga/16.1/nios2eds/bin/gnu/h-x86_64-mingw32/bin/../lib/gcc/nios2-elf/5.3.0/../../../../../H-x86_64-mingw32/nios2-elf/lib\libc.a(lib_a-memcmp.o)
 .debug_aranges
                0x0000000000000b08       0x20 c:/intelfpga/16.1/nios2eds/bin/gnu/h-x86_64-mingw32/bin/../lib/gcc/nios2-elf/5.3.0/../../../../../H-x86_64-mingw32/nios2-elf/lib\libc.a(lib_a-__atexit.o)
 .debug_aranges
                0x0000000000000b28       0x20 c:/intelfpga/16.1/nios2eds/bin/gnu/h-x86_64-mingw32/bin/../lib/gcc/nios2-elf/5.3.0/../../../../../H-x86_64-mingw32/nios2-elf/lib\libc.a(lib_a-__call_atexit.o)
 .debug_aranges
                0x0000000000000b48       0x20 ../heart_beets_bsp/\libhal_bsp.a(alt_exit.o)

.debug_pubnames
 *(.debug_pubnames)

.debug_info     0x0000000000000000    0x19b7b
 *(.debug_info .gnu.linkonce.wi.*)
 .debug_info    0x0000000000000000       0x7c ../heart_beets_bsp//obj/HAL/src/crt0.o
 .debug_info    0x000000000000007c      0x54f obj/default/hello_world.o
 .debug_info    0x00000000000005cb     0x141b obj/default/pacemaker.o
 .debug_info    0x00000000000019e6      0xa38 c:/intelfpga/16.1/nios2eds/bin/gnu/h-x86_64-mingw32/bin/../lib/gcc/nios2-elf/5.3.0/../../../../../H-x86_64-mingw32/nios2-elf/lib\libc.a(lib_a-puts.o)
 .debug_info    0x000000000000241e       0xe2 c:/intelfpga/16.1/nios2eds/bin/gnu/h-x86_64-mingw32/bin/../lib/gcc/nios2-elf/5.3.0/../../../../../H-x86_64-mingw32/nios2-elf/lib\libc.a(lib_a-strlen.o)
 .debug_info    0x0000000000002500      0xd37 c:/intelfpga/16.1/nios2eds/bin/gnu/h-x86_64-mingw32/bin/../lib/gcc/nios2-elf/5.3.0/../../../../../H-x86_64-mingw32/nios2-elf/lib\libc.a(lib_a-findfp.o)
 .debug_info    0x0000000000003237      0xbb8 c:/intelfpga/16.1/nios2eds/bin/gnu/h-x86_64-mingw32/bin/../lib/gcc/nios2-elf/5.3.0/../../../../../H-x86_64-mingw32/nios2-elf/lib\libc.a(lib_a-fvwrite.o)
 .debug_info    0x0000000000003def      0x9b0 c:/intelfpga/16.1/nios2eds/bin/gnu/h-x86_64-mingw32/bin/../lib/gcc/nios2-elf/5.3.0/../../../../../H-x86_64-mingw32/nios2-elf/lib\libc.a(lib_a-fwalk.o)
 .debug_info    0x000000000000479f      0x8a1 c:/intelfpga/16.1/nios2eds/bin/gnu/h-x86_64-mingw32/bin/../lib/gcc/nios2-elf/5.3.0/../../../../../H-x86_64-mingw32/nios2-elf/lib\libc.a(lib_a-impure.o)
 .debug_info    0x0000000000005040      0xd57 c:/intelfpga/16.1/nios2eds/bin/gnu/h-x86_64-mingw32/bin/../lib/gcc/nios2-elf/5.3.0/../../../../../H-x86_64-mingw32/nios2-elf/lib\libc.a(lib_a-mallocr.o)
 .debug_info    0x0000000000005d97      0x132 c:/intelfpga/16.1/nios2eds/bin/gnu/h-x86_64-mingw32/bin/../lib/gcc/nios2-elf/5.3.0/../../../../../H-x86_64-mingw32/nios2-elf/lib\libc.a(lib_a-memchr.o)
 .debug_info    0x0000000000005ec9      0x144 c:/intelfpga/16.1/nios2eds/bin/gnu/h-x86_64-mingw32/bin/../lib/gcc/nios2-elf/5.3.0/../../../../../H-x86_64-mingw32/nios2-elf/lib\libc.a(lib_a-memcpy.o)
 .debug_info    0x000000000000600d      0x13a c:/intelfpga/16.1/nios2eds/bin/gnu/h-x86_64-mingw32/bin/../lib/gcc/nios2-elf/5.3.0/../../../../../H-x86_64-mingw32/nios2-elf/lib\libc.a(lib_a-memmove.o)
 .debug_info    0x0000000000006147      0x121 c:/intelfpga/16.1/nios2eds/bin/gnu/h-x86_64-mingw32/bin/../lib/gcc/nios2-elf/5.3.0/../../../../../H-x86_64-mingw32/nios2-elf/lib\libc.a(lib_a-memset.o)
 .debug_info    0x0000000000006268      0xc6b c:/intelfpga/16.1/nios2eds/bin/gnu/h-x86_64-mingw32/bin/../lib/gcc/nios2-elf/5.3.0/../../../../../H-x86_64-mingw32/nios2-elf/lib\libc.a(lib_a-reallocr.o)
 .debug_info    0x0000000000006ed3      0x900 c:/intelfpga/16.1/nios2eds/bin/gnu/h-x86_64-mingw32/bin/../lib/gcc/nios2-elf/5.3.0/../../../../../H-x86_64-mingw32/nios2-elf/lib\libc.a(lib_a-sbrkr.o)
 .debug_info    0x00000000000077d3      0xb32 c:/intelfpga/16.1/nios2eds/bin/gnu/h-x86_64-mingw32/bin/../lib/gcc/nios2-elf/5.3.0/../../../../../H-x86_64-mingw32/nios2-elf/lib\libc.a(lib_a-stdio.o)
 .debug_info    0x0000000000008305      0x928 c:/intelfpga/16.1/nios2eds/bin/gnu/h-x86_64-mingw32/bin/../lib/gcc/nios2-elf/5.3.0/../../../../../H-x86_64-mingw32/nios2-elf/lib\libc.a(lib_a-writer.o)
 .debug_info    0x0000000000008c2d      0x936 c:/intelfpga/16.1/nios2eds/bin/gnu/h-x86_64-mingw32/bin/../lib/gcc/nios2-elf/5.3.0/../../../../../H-x86_64-mingw32/nios2-elf/lib\libc.a(lib_a-wsetup.o)
 .debug_info    0x0000000000009563      0x8df c:/intelfpga/16.1/nios2eds/bin/gnu/h-x86_64-mingw32/bin/../lib/gcc/nios2-elf/5.3.0/../../../../../H-x86_64-mingw32/nios2-elf/lib\libc.a(closer.o)
 .debug_info    0x0000000000009e42      0xa23 c:/intelfpga/16.1/nios2eds/bin/gnu/h-x86_64-mingw32/bin/../lib/gcc/nios2-elf/5.3.0/../../../../../H-x86_64-mingw32/nios2-elf/lib\libc.a(lib_a-fclose.o)
 .debug_info    0x000000000000a865      0xa93 c:/intelfpga/16.1/nios2eds/bin/gnu/h-x86_64-mingw32/bin/../lib/gcc/nios2-elf/5.3.0/../../../../../H-x86_64-mingw32/nios2-elf/lib\libc.a(lib_a-fflush.o)
 .debug_info    0x000000000000b2f8      0xbf7 c:/intelfpga/16.1/nios2eds/bin/gnu/h-x86_64-mingw32/bin/../lib/gcc/nios2-elf/5.3.0/../../../../../H-x86_64-mingw32/nios2-elf/lib\libc.a(lib_a-freer.o)
 .debug_info    0x000000000000beef       0x8a c:/intelfpga/16.1/nios2eds/bin/gnu/h-x86_64-mingw32/bin/../lib/gcc/nios2-elf/5.3.0/../../../../../H-x86_64-mingw32/nios2-elf/lib\libc.a(lib_a-int_errno.o)
 .debug_info    0x000000000000bf79      0x90b c:/intelfpga/16.1/nios2eds/bin/gnu/h-x86_64-mingw32/bin/../lib/gcc/nios2-elf/5.3.0/../../../../../H-x86_64-mingw32/nios2-elf/lib\libc.a(lib_a-lseekr.o)
 .debug_info    0x000000000000c884      0xad8 c:/intelfpga/16.1/nios2eds/bin/gnu/h-x86_64-mingw32/bin/../lib/gcc/nios2-elf/5.3.0/../../../../../H-x86_64-mingw32/nios2-elf/lib\libc.a(lib_a-makebuf.o)
 .debug_info    0x000000000000d35c      0x921 c:/intelfpga/16.1/nios2eds/bin/gnu/h-x86_64-mingw32/bin/../lib/gcc/nios2-elf/5.3.0/../../../../../H-x86_64-mingw32/nios2-elf/lib\libc.a(lib_a-readr.o)
 .debug_info    0x000000000000dc7d      0xa5d c:/intelfpga/16.1/nios2eds/bin/gnu/h-x86_64-mingw32/bin/../lib/gcc/nios2-elf/5.3.0/../../../../../H-x86_64-mingw32/nios2-elf/lib\libc.a(lib_a-fstatr.o)
 .debug_info    0x000000000000e6da      0x8df c:/intelfpga/16.1/nios2eds/bin/gnu/h-x86_64-mingw32/bin/../lib/gcc/nios2-elf/5.3.0/../../../../../H-x86_64-mingw32/nios2-elf/lib\libc.a(lib_a-isattyr.o)
 .debug_info    0x000000000000efb9      0x2c6 c:/intelfpga/16.1/nios2eds/bin/gnu/h-x86_64-mingw32/bin/../lib/gcc/nios2-elf/5.3.0\libgcc.a(lib2-divmod.o)
 .debug_info    0x000000000000f27f      0x2cc ../heart_beets_bsp/\libhal_bsp.a(alt_alarm_start.o)
 .debug_info    0x000000000000f54b      0x321 ../heart_beets_bsp/\libhal_bsp.a(alt_close.o)
 .debug_info    0x000000000000f86c      0x49c ../heart_beets_bsp/\libhal_bsp.a(alt_dev.o)
 .debug_info    0x000000000000fd08       0xa6 ../heart_beets_bsp/\libhal_bsp.a(alt_errno.o)
 .debug_info    0x000000000000fdae      0x488 ../heart_beets_bsp/\libhal_bsp.a(alt_fstat.o)
 .debug_info    0x0000000000010236      0x48b ../heart_beets_bsp/\libhal_bsp.a(alt_isatty.o)
 .debug_info    0x00000000000106c1      0x145 ../heart_beets_bsp/\libhal_bsp.a(alt_load.o)
 .debug_info    0x0000000000010806      0x352 ../heart_beets_bsp/\libhal_bsp.a(alt_lseek.o)
 .debug_info    0x0000000000010b58      0x131 ../heart_beets_bsp/\libhal_bsp.a(alt_main.o)
 .debug_info    0x0000000000010c89      0x8b6 ../heart_beets_bsp/\libhal_bsp.a(alt_malloc_lock.o)
 .debug_info    0x000000000001153f      0x4b0 ../heart_beets_bsp/\libhal_bsp.a(alt_read.o)
 .debug_info    0x00000000000119ef      0x2b0 ../heart_beets_bsp/\libhal_bsp.a(alt_release_fd.o)
 .debug_info    0x0000000000011c9f      0x1ac ../heart_beets_bsp/\libhal_bsp.a(alt_sbrk.o)
 .debug_info    0x0000000000011e4b      0x299 ../heart_beets_bsp/\libhal_bsp.a(alt_tick.o)
 .debug_info    0x00000000000120e4      0x4b7 ../heart_beets_bsp/\libhal_bsp.a(alt_write.o)
 .debug_info    0x000000000001259b      0x723 ../heart_beets_bsp/\libhal_bsp.a(alt_sys_init.o)
 .debug_info    0x0000000000012cbe      0x52e ../heart_beets_bsp/\libhal_bsp.a(altera_avalon_jtag_uart_fd.o)
 .debug_info    0x00000000000131ec      0x3a0 ../heart_beets_bsp/\libhal_bsp.a(altera_avalon_jtag_uart_init.o)
 .debug_info    0x000000000001358c      0x280 ../heart_beets_bsp/\libhal_bsp.a(altera_avalon_jtag_uart_ioctl.o)
 .debug_info    0x000000000001380c      0x345 ../heart_beets_bsp/\libhal_bsp.a(altera_avalon_jtag_uart_read.o)
 .debug_info    0x0000000000013b51      0x340 ../heart_beets_bsp/\libhal_bsp.a(altera_avalon_jtag_uart_write.o)
 .debug_info    0x0000000000013e91      0x6d1 ../heart_beets_bsp/\libhal_bsp.a(altera_avalon_lcd_16207.o)
 .debug_info    0x0000000000014562      0x4cc ../heart_beets_bsp/\libhal_bsp.a(altera_avalon_lcd_16207_fd.o)
 .debug_info    0x0000000000014a2e      0x226 ../heart_beets_bsp/\libhal_bsp.a(altera_avalon_timer_sc.o)
 .debug_info    0x0000000000014c54      0x447 ../heart_beets_bsp/\libhal_bsp.a(altera_avalon_uart_fd.o)
 .debug_info    0x000000000001509b      0x333 ../heart_beets_bsp/\libhal_bsp.a(altera_avalon_uart_init.o)
 .debug_info    0x00000000000153ce      0x319 ../heart_beets_bsp/\libhal_bsp.a(altera_avalon_uart_read.o)
 .debug_info    0x00000000000156e7      0x31e ../heart_beets_bsp/\libhal_bsp.a(altera_avalon_uart_write.o)
 .debug_info    0x0000000000015a05       0xa5 ../heart_beets_bsp/\libhal_bsp.a(alt_dcache_flush_all.o)
 .debug_info    0x0000000000015aaa      0x1a9 ../heart_beets_bsp/\libhal_bsp.a(alt_dev_llist_insert.o)
 .debug_info    0x0000000000015c53       0x83 ../heart_beets_bsp/\libhal_bsp.a(alt_do_ctors.o)
 .debug_info    0x0000000000015cd6       0x83 ../heart_beets_bsp/\libhal_bsp.a(alt_do_dtors.o)
 .debug_info    0x0000000000015d59       0x92 ../heart_beets_bsp/\libhal_bsp.a(alt_icache_flush_all.o)
 .debug_info    0x0000000000015deb      0x350 ../heart_beets_bsp/\libhal_bsp.a(alt_iic.o)
 .debug_info    0x000000000001613b      0x1ef ../heart_beets_bsp/\libhal_bsp.a(alt_iic_isr_register.o)
 .debug_info    0x000000000001632a      0x4a5 ../heart_beets_bsp/\libhal_bsp.a(alt_io_redirect.o)
 .debug_info    0x00000000000167cf       0x85 ../heart_beets_bsp/\libhal_bsp.a(alt_irq_entry.o)
 .debug_info    0x0000000000016854      0x187 ../heart_beets_bsp/\libhal_bsp.a(alt_irq_handler.o)
 .debug_info    0x00000000000169db       0x88 ../heart_beets_bsp/\libhal_bsp.a(alt_irq_vars.o)
 .debug_info    0x0000000000016a63      0x3bb ../heart_beets_bsp/\libhal_bsp.a(alt_open.o)
 .debug_info    0x0000000000016e1e       0xb0 ../heart_beets_bsp/\libhal_bsp.a(alt_usleep.o)
 .debug_info    0x0000000000016ece       0x92 ../heart_beets_bsp/\libhal_bsp.a(altera_nios2_gen2_irq.o)
 .debug_info    0x0000000000016f60       0xd7 ../heart_beets_bsp/\libhal_bsp.a(alt_busy_sleep.o)
 .debug_info    0x0000000000017037       0x8b ../heart_beets_bsp/\libhal_bsp.a(alt_exception_entry.o)
 .debug_info    0x00000000000170c2      0x2e9 ../heart_beets_bsp/\libhal_bsp.a(alt_find_dev.o)
 .debug_info    0x00000000000173ab      0x2e6 ../heart_beets_bsp/\libhal_bsp.a(alt_find_file.o)
 .debug_info    0x0000000000017691      0x310 ../heart_beets_bsp/\libhal_bsp.a(alt_get_fd.o)
 .debug_info    0x00000000000179a1       0xdc ../heart_beets_bsp/\libhal_bsp.a(alt_icache_flush.o)
 .debug_info    0x0000000000017a7d      0x1e7 ../heart_beets_bsp/\libhal_bsp.a(alt_instruction_exception_entry.o)
 .debug_info    0x0000000000017c64       0xfe c:/intelfpga/16.1/nios2eds/bin/gnu/h-x86_64-mingw32/bin/../lib/gcc/nios2-elf/5.3.0/../../../../../H-x86_64-mingw32/nios2-elf/lib\libc.a(lib_a-atexit.o)
 .debug_info    0x0000000000017d62       0x96 c:/intelfpga/16.1/nios2eds/bin/gnu/h-x86_64-mingw32/bin/../lib/gcc/nios2-elf/5.3.0/../../../../../H-x86_64-mingw32/nios2-elf/lib\libc.a(lib_a-ctype_.o)
 .debug_info    0x0000000000017df8      0x8e4 c:/intelfpga/16.1/nios2eds/bin/gnu/h-x86_64-mingw32/bin/../lib/gcc/nios2-elf/5.3.0/../../../../../H-x86_64-mingw32/nios2-elf/lib\libc.a(lib_a-exit.o)
 .debug_info    0x00000000000186dc      0x11a c:/intelfpga/16.1/nios2eds/bin/gnu/h-x86_64-mingw32/bin/../lib/gcc/nios2-elf/5.3.0/../../../../../H-x86_64-mingw32/nios2-elf/lib\libc.a(lib_a-memcmp.o)
 .debug_info    0x00000000000187f6      0x934 c:/intelfpga/16.1/nios2eds/bin/gnu/h-x86_64-mingw32/bin/../lib/gcc/nios2-elf/5.3.0/../../../../../H-x86_64-mingw32/nios2-elf/lib\libc.a(lib_a-__atexit.o)
 .debug_info    0x000000000001912a      0x965 c:/intelfpga/16.1/nios2eds/bin/gnu/h-x86_64-mingw32/bin/../lib/gcc/nios2-elf/5.3.0/../../../../../H-x86_64-mingw32/nios2-elf/lib\libc.a(lib_a-__call_atexit.o)
 .debug_info    0x0000000000019a8f       0xec ../heart_beets_bsp/\libhal_bsp.a(alt_exit.o)

.debug_abbrev   0x0000000000000000     0x6bd9
 *(.debug_abbrev)
 .debug_abbrev  0x0000000000000000       0x12 ../heart_beets_bsp//obj/HAL/src/crt0.o
 .debug_abbrev  0x0000000000000012      0x154 obj/default/hello_world.o
 .debug_abbrev  0x0000000000000166       0x73 obj/default/pacemaker.o
 .debug_abbrev  0x00000000000001d9      0x249 c:/intelfpga/16.1/nios2eds/bin/gnu/h-x86_64-mingw32/bin/../lib/gcc/nios2-elf/5.3.0/../../../../../H-x86_64-mingw32/nios2-elf/lib\libc.a(lib_a-puts.o)
 .debug_abbrev  0x0000000000000422       0x90 c:/intelfpga/16.1/nios2eds/bin/gnu/h-x86_64-mingw32/bin/../lib/gcc/nios2-elf/5.3.0/../../../../../H-x86_64-mingw32/nios2-elf/lib\libc.a(lib_a-strlen.o)
 .debug_abbrev  0x00000000000004b2      0x391 c:/intelfpga/16.1/nios2eds/bin/gnu/h-x86_64-mingw32/bin/../lib/gcc/nios2-elf/5.3.0/../../../../../H-x86_64-mingw32/nios2-elf/lib\libc.a(lib_a-findfp.o)
 .debug_abbrev  0x0000000000000843      0x228 c:/intelfpga/16.1/nios2eds/bin/gnu/h-x86_64-mingw32/bin/../lib/gcc/nios2-elf/5.3.0/../../../../../H-x86_64-mingw32/nios2-elf/lib\libc.a(lib_a-fvwrite.o)
 .debug_abbrev  0x0000000000000a6b      0x1d1 c:/intelfpga/16.1/nios2eds/bin/gnu/h-x86_64-mingw32/bin/../lib/gcc/nios2-elf/5.3.0/../../../../../H-x86_64-mingw32/nios2-elf/lib\libc.a(lib_a-fwalk.o)
 .debug_abbrev  0x0000000000000c3c      0x18f c:/intelfpga/16.1/nios2eds/bin/gnu/h-x86_64-mingw32/bin/../lib/gcc/nios2-elf/5.3.0/../../../../../H-x86_64-mingw32/nios2-elf/lib\libc.a(lib_a-impure.o)
 .debug_abbrev  0x0000000000000dcb      0x29d c:/intelfpga/16.1/nios2eds/bin/gnu/h-x86_64-mingw32/bin/../lib/gcc/nios2-elf/5.3.0/../../../../../H-x86_64-mingw32/nios2-elf/lib\libc.a(lib_a-mallocr.o)
 .debug_abbrev  0x0000000000001068       0xab c:/intelfpga/16.1/nios2eds/bin/gnu/h-x86_64-mingw32/bin/../lib/gcc/nios2-elf/5.3.0/../../../../../H-x86_64-mingw32/nios2-elf/lib\libc.a(lib_a-memchr.o)
 .debug_abbrev  0x0000000000001113       0xa3 c:/intelfpga/16.1/nios2eds/bin/gnu/h-x86_64-mingw32/bin/../lib/gcc/nios2-elf/5.3.0/../../../../../H-x86_64-mingw32/nios2-elf/lib\libc.a(lib_a-memcpy.o)
 .debug_abbrev  0x00000000000011b6       0x9c c:/intelfpga/16.1/nios2eds/bin/gnu/h-x86_64-mingw32/bin/../lib/gcc/nios2-elf/5.3.0/../../../../../H-x86_64-mingw32/nios2-elf/lib\libc.a(lib_a-memmove.o)
 .debug_abbrev  0x0000000000001252       0xae c:/intelfpga/16.1/nios2eds/bin/gnu/h-x86_64-mingw32/bin/../lib/gcc/nios2-elf/5.3.0/../../../../../H-x86_64-mingw32/nios2-elf/lib\libc.a(lib_a-memset.o)
 .debug_abbrev  0x0000000000001300      0x231 c:/intelfpga/16.1/nios2eds/bin/gnu/h-x86_64-mingw32/bin/../lib/gcc/nios2-elf/5.3.0/../../../../../H-x86_64-mingw32/nios2-elf/lib\libc.a(lib_a-reallocr.o)
 .debug_abbrev  0x0000000000001531      0x20a c:/intelfpga/16.1/nios2eds/bin/gnu/h-x86_64-mingw32/bin/../lib/gcc/nios2-elf/5.3.0/../../../../../H-x86_64-mingw32/nios2-elf/lib\libc.a(lib_a-sbrkr.o)
 .debug_abbrev  0x000000000000173b      0x239 c:/intelfpga/16.1/nios2eds/bin/gnu/h-x86_64-mingw32/bin/../lib/gcc/nios2-elf/5.3.0/../../../../../H-x86_64-mingw32/nios2-elf/lib\libc.a(lib_a-stdio.o)
 .debug_abbrev  0x0000000000001974      0x1eb c:/intelfpga/16.1/nios2eds/bin/gnu/h-x86_64-mingw32/bin/../lib/gcc/nios2-elf/5.3.0/../../../../../H-x86_64-mingw32/nios2-elf/lib\libc.a(lib_a-writer.o)
 .debug_abbrev  0x0000000000001b5f      0x218 c:/intelfpga/16.1/nios2eds/bin/gnu/h-x86_64-mingw32/bin/../lib/gcc/nios2-elf/5.3.0/../../../../../H-x86_64-mingw32/nios2-elf/lib\libc.a(lib_a-wsetup.o)
 .debug_abbrev  0x0000000000001d77      0x1e6 c:/intelfpga/16.1/nios2eds/bin/gnu/h-x86_64-mingw32/bin/../lib/gcc/nios2-elf/5.3.0/../../../../../H-x86_64-mingw32/nios2-elf/lib\libc.a(closer.o)
 .debug_abbrev  0x0000000000001f5d      0x2a2 c:/intelfpga/16.1/nios2eds/bin/gnu/h-x86_64-mingw32/bin/../lib/gcc/nios2-elf/5.3.0/../../../../../H-x86_64-mingw32/nios2-elf/lib\libc.a(lib_a-fclose.o)
 .debug_abbrev  0x00000000000021ff      0x2a0 c:/intelfpga/16.1/nios2eds/bin/gnu/h-x86_64-mingw32/bin/../lib/gcc/nios2-elf/5.3.0/../../../../../H-x86_64-mingw32/nios2-elf/lib\libc.a(lib_a-fflush.o)
 .debug_abbrev  0x000000000000249f      0x264 c:/intelfpga/16.1/nios2eds/bin/gnu/h-x86_64-mingw32/bin/../lib/gcc/nios2-elf/5.3.0/../../../../../H-x86_64-mingw32/nios2-elf/lib\libc.a(lib_a-freer.o)
 .debug_abbrev  0x0000000000002703       0x37 c:/intelfpga/16.1/nios2eds/bin/gnu/h-x86_64-mingw32/bin/../lib/gcc/nios2-elf/5.3.0/../../../../../H-x86_64-mingw32/nios2-elf/lib\libc.a(lib_a-int_errno.o)
 .debug_abbrev  0x000000000000273a      0x1f5 c:/intelfpga/16.1/nios2eds/bin/gnu/h-x86_64-mingw32/bin/../lib/gcc/nios2-elf/5.3.0/../../../../../H-x86_64-mingw32/nios2-elf/lib\libc.a(lib_a-lseekr.o)
 .debug_abbrev  0x000000000000292f      0x20f c:/intelfpga/16.1/nios2eds/bin/gnu/h-x86_64-mingw32/bin/../lib/gcc/nios2-elf/5.3.0/../../../../../H-x86_64-mingw32/nios2-elf/lib\libc.a(lib_a-makebuf.o)
 .debug_abbrev  0x0000000000002b3e      0x1e6 c:/intelfpga/16.1/nios2eds/bin/gnu/h-x86_64-mingw32/bin/../lib/gcc/nios2-elf/5.3.0/../../../../../H-x86_64-mingw32/nios2-elf/lib\libc.a(lib_a-readr.o)
 .debug_abbrev  0x0000000000002d24      0x1f5 c:/intelfpga/16.1/nios2eds/bin/gnu/h-x86_64-mingw32/bin/../lib/gcc/nios2-elf/5.3.0/../../../../../H-x86_64-mingw32/nios2-elf/lib\libc.a(lib_a-fstatr.o)
 .debug_abbrev  0x0000000000002f19      0x1e6 c:/intelfpga/16.1/nios2eds/bin/gnu/h-x86_64-mingw32/bin/../lib/gcc/nios2-elf/5.3.0/../../../../../H-x86_64-mingw32/nios2-elf/lib\libc.a(lib_a-isattyr.o)
 .debug_abbrev  0x00000000000030ff      0x10e c:/intelfpga/16.1/nios2eds/bin/gnu/h-x86_64-mingw32/bin/../lib/gcc/nios2-elf/5.3.0\libgcc.a(lib2-divmod.o)
 .debug_abbrev  0x000000000000320d      0x162 ../heart_beets_bsp/\libhal_bsp.a(alt_alarm_start.o)
 .debug_abbrev  0x000000000000336f      0x11f ../heart_beets_bsp/\libhal_bsp.a(alt_close.o)
 .debug_abbrev  0x000000000000348e       0xd9 ../heart_beets_bsp/\libhal_bsp.a(alt_dev.o)
 .debug_abbrev  0x0000000000003567       0x5a ../heart_beets_bsp/\libhal_bsp.a(alt_errno.o)
 .debug_abbrev  0x00000000000035c1      0x11f ../heart_beets_bsp/\libhal_bsp.a(alt_fstat.o)
 .debug_abbrev  0x00000000000036e0      0x11f ../heart_beets_bsp/\libhal_bsp.a(alt_isatty.o)
 .debug_abbrev  0x00000000000037ff       0x9f ../heart_beets_bsp/\libhal_bsp.a(alt_load.o)
 .debug_abbrev  0x000000000000389e      0x11f ../heart_beets_bsp/\libhal_bsp.a(alt_lseek.o)
 .debug_abbrev  0x00000000000039bd       0xba ../heart_beets_bsp/\libhal_bsp.a(alt_main.o)
 .debug_abbrev  0x0000000000003a77      0x1b4 ../heart_beets_bsp/\libhal_bsp.a(alt_malloc_lock.o)
 .debug_abbrev  0x0000000000003c2b      0x12e ../heart_beets_bsp/\libhal_bsp.a(alt_read.o)
 .debug_abbrev  0x0000000000003d59       0xde ../heart_beets_bsp/\libhal_bsp.a(alt_release_fd.o)
 .debug_abbrev  0x0000000000003e37      0x112 ../heart_beets_bsp/\libhal_bsp.a(alt_sbrk.o)
 .debug_abbrev  0x0000000000003f49      0x15a ../heart_beets_bsp/\libhal_bsp.a(alt_tick.o)
 .debug_abbrev  0x00000000000040a3      0x133 ../heart_beets_bsp/\libhal_bsp.a(alt_write.o)
 .debug_abbrev  0x00000000000041d6      0x19f ../heart_beets_bsp/\libhal_bsp.a(alt_sys_init.o)
 .debug_abbrev  0x0000000000004375      0x127 ../heart_beets_bsp/\libhal_bsp.a(altera_avalon_jtag_uart_fd.o)
 .debug_abbrev  0x000000000000449c      0x19e ../heart_beets_bsp/\libhal_bsp.a(altera_avalon_jtag_uart_init.o)
 .debug_abbrev  0x000000000000463a      0x111 ../heart_beets_bsp/\libhal_bsp.a(altera_avalon_jtag_uart_ioctl.o)
 .debug_abbrev  0x000000000000474b      0x1aa ../heart_beets_bsp/\libhal_bsp.a(altera_avalon_jtag_uart_read.o)
 .debug_abbrev  0x00000000000048f5      0x1a8 ../heart_beets_bsp/\libhal_bsp.a(altera_avalon_jtag_uart_write.o)
 .debug_abbrev  0x0000000000004a9d      0x20f ../heart_beets_bsp/\libhal_bsp.a(altera_avalon_lcd_16207.o)
 .debug_abbrev  0x0000000000004cac      0x125 ../heart_beets_bsp/\libhal_bsp.a(altera_avalon_lcd_16207_fd.o)
 .debug_abbrev  0x0000000000004dd1      0x155 ../heart_beets_bsp/\libhal_bsp.a(altera_avalon_timer_sc.o)
 .debug_abbrev  0x0000000000004f26      0x109 ../heart_beets_bsp/\libhal_bsp.a(altera_avalon_uart_fd.o)
 .debug_abbrev  0x000000000000502f      0x178 ../heart_beets_bsp/\libhal_bsp.a(altera_avalon_uart_init.o)
 .debug_abbrev  0x00000000000051a7      0x183 ../heart_beets_bsp/\libhal_bsp.a(altera_avalon_uart_read.o)
 .debug_abbrev  0x000000000000532a      0x18a ../heart_beets_bsp/\libhal_bsp.a(altera_avalon_uart_write.o)
 .debug_abbrev  0x00000000000054b4       0x5a ../heart_beets_bsp/\libhal_bsp.a(alt_dcache_flush_all.o)
 .debug_abbrev  0x000000000000550e      0x114 ../heart_beets_bsp/\libhal_bsp.a(alt_dev_llist_insert.o)
 .debug_abbrev  0x0000000000005622       0x79 ../heart_beets_bsp/\libhal_bsp.a(alt_do_ctors.o)
 .debug_abbrev  0x000000000000569b       0x79 ../heart_beets_bsp/\libhal_bsp.a(alt_do_dtors.o)
 .debug_abbrev  0x0000000000005714       0x42 ../heart_beets_bsp/\libhal_bsp.a(alt_icache_flush_all.o)
 .debug_abbrev  0x0000000000005756      0x163 ../heart_beets_bsp/\libhal_bsp.a(alt_iic.o)
 .debug_abbrev  0x00000000000058b9      0x169 ../heart_beets_bsp/\libhal_bsp.a(alt_iic_isr_register.o)
 .debug_abbrev  0x0000000000005a22      0x114 ../heart_beets_bsp/\libhal_bsp.a(alt_io_redirect.o)
 .debug_abbrev  0x0000000000005b36       0x12 ../heart_beets_bsp/\libhal_bsp.a(alt_irq_entry.o)
 .debug_abbrev  0x0000000000005b48      0x122 ../heart_beets_bsp/\libhal_bsp.a(alt_irq_handler.o)
 .debug_abbrev  0x0000000000005c6a       0x40 ../heart_beets_bsp/\libhal_bsp.a(alt_irq_vars.o)
 .debug_abbrev  0x0000000000005caa      0x148 ../heart_beets_bsp/\libhal_bsp.a(alt_open.o)
 .debug_abbrev  0x0000000000005df2       0x60 ../heart_beets_bsp/\libhal_bsp.a(alt_usleep.o)
 .debug_abbrev  0x0000000000005e52       0x42 ../heart_beets_bsp/\libhal_bsp.a(altera_nios2_gen2_irq.o)
 .debug_abbrev  0x0000000000005e94       0x7e ../heart_beets_bsp/\libhal_bsp.a(alt_busy_sleep.o)
 .debug_abbrev  0x0000000000005f12       0x12 ../heart_beets_bsp/\libhal_bsp.a(alt_exception_entry.o)
 .debug_abbrev  0x0000000000005f24       0xf0 ../heart_beets_bsp/\libhal_bsp.a(alt_find_dev.o)
 .debug_abbrev  0x0000000000006014       0xf0 ../heart_beets_bsp/\libhal_bsp.a(alt_find_file.o)
 .debug_abbrev  0x0000000000006104      0x10d ../heart_beets_bsp/\libhal_bsp.a(alt_get_fd.o)
 .debug_abbrev  0x0000000000006211       0x8c ../heart_beets_bsp/\libhal_bsp.a(alt_icache_flush.o)
 .debug_abbrev  0x000000000000629d       0xdc ../heart_beets_bsp/\libhal_bsp.a(alt_instruction_exception_entry.o)
 .debug_abbrev  0x0000000000006379       0xaa c:/intelfpga/16.1/nios2eds/bin/gnu/h-x86_64-mingw32/bin/../lib/gcc/nios2-elf/5.3.0/../../../../../H-x86_64-mingw32/nios2-elf/lib\libc.a(lib_a-atexit.o)
 .debug_abbrev  0x0000000000006423       0x5d c:/intelfpga/16.1/nios2eds/bin/gnu/h-x86_64-mingw32/bin/../lib/gcc/nios2-elf/5.3.0/../../../../../H-x86_64-mingw32/nios2-elf/lib\libc.a(lib_a-ctype_.o)
 .debug_abbrev  0x0000000000006480      0x1e5 c:/intelfpga/16.1/nios2eds/bin/gnu/h-x86_64-mingw32/bin/../lib/gcc/nios2-elf/5.3.0/../../../../../H-x86_64-mingw32/nios2-elf/lib\libc.a(lib_a-exit.o)
 .debug_abbrev  0x0000000000006665       0x7f c:/intelfpga/16.1/nios2eds/bin/gnu/h-x86_64-mingw32/bin/../lib/gcc/nios2-elf/5.3.0/../../../../../H-x86_64-mingw32/nios2-elf/lib\libc.a(lib_a-memcmp.o)
 .debug_abbrev  0x00000000000066e4      0x21e c:/intelfpga/16.1/nios2eds/bin/gnu/h-x86_64-mingw32/bin/../lib/gcc/nios2-elf/5.3.0/../../../../../H-x86_64-mingw32/nios2-elf/lib\libc.a(lib_a-__atexit.o)
 .debug_abbrev  0x0000000000006902      0x22e c:/intelfpga/16.1/nios2eds/bin/gnu/h-x86_64-mingw32/bin/../lib/gcc/nios2-elf/5.3.0/../../../../../H-x86_64-mingw32/nios2-elf/lib\libc.a(lib_a-__call_atexit.o)
 .debug_abbrev  0x0000000000006b30       0xa9 ../heart_beets_bsp/\libhal_bsp.a(alt_exit.o)

.debug_line     0x0000000000000000     0x8655
 *(.debug_line)
 .debug_line    0x0000000000000000       0x72 ../heart_beets_bsp//obj/HAL/src/crt0.o
 .debug_line    0x0000000000000072      0x1cc obj/default/hello_world.o
 .debug_line    0x000000000000023e      0xfd7 obj/default/pacemaker.o
 .debug_line    0x0000000000001215      0x245 c:/intelfpga/16.1/nios2eds/bin/gnu/h-x86_64-mingw32/bin/../lib/gcc/nios2-elf/5.3.0/../../../../../H-x86_64-mingw32/nios2-elf/lib\libc.a(lib_a-puts.o)
 .debug_line    0x000000000000145a      0x16c c:/intelfpga/16.1/nios2eds/bin/gnu/h-x86_64-mingw32/bin/../lib/gcc/nios2-elf/5.3.0/../../../../../H-x86_64-mingw32/nios2-elf/lib\libc.a(lib_a-strlen.o)
 .debug_line    0x00000000000015c6      0x36f c:/intelfpga/16.1/nios2eds/bin/gnu/h-x86_64-mingw32/bin/../lib/gcc/nios2-elf/5.3.0/../../../../../H-x86_64-mingw32/nios2-elf/lib\libc.a(lib_a-findfp.o)
 .debug_line    0x0000000000001935      0x342 c:/intelfpga/16.1/nios2eds/bin/gnu/h-x86_64-mingw32/bin/../lib/gcc/nios2-elf/5.3.0/../../../../../H-x86_64-mingw32/nios2-elf/lib\libc.a(lib_a-fvwrite.o)
 .debug_line    0x0000000000001c77      0x237 c:/intelfpga/16.1/nios2eds/bin/gnu/h-x86_64-mingw32/bin/../lib/gcc/nios2-elf/5.3.0/../../../../../H-x86_64-mingw32/nios2-elf/lib\libc.a(lib_a-fwalk.o)
 .debug_line    0x0000000000001eae      0x15d c:/intelfpga/16.1/nios2eds/bin/gnu/h-x86_64-mingw32/bin/../lib/gcc/nios2-elf/5.3.0/../../../../../H-x86_64-mingw32/nios2-elf/lib\libc.a(lib_a-impure.o)
 .debug_line    0x000000000000200b      0x3f9 c:/intelfpga/16.1/nios2eds/bin/gnu/h-x86_64-mingw32/bin/../lib/gcc/nios2-elf/5.3.0/../../../../../H-x86_64-mingw32/nios2-elf/lib\libc.a(lib_a-mallocr.o)
 .debug_line    0x0000000000002404      0x18a c:/intelfpga/16.1/nios2eds/bin/gnu/h-x86_64-mingw32/bin/../lib/gcc/nios2-elf/5.3.0/../../../../../H-x86_64-mingw32/nios2-elf/lib\libc.a(lib_a-memchr.o)
 .debug_line    0x000000000000258e      0x189 c:/intelfpga/16.1/nios2eds/bin/gnu/h-x86_64-mingw32/bin/../lib/gcc/nios2-elf/5.3.0/../../../../../H-x86_64-mingw32/nios2-elf/lib\libc.a(lib_a-memcpy.o)
 .debug_line    0x0000000000002717      0x18a c:/intelfpga/16.1/nios2eds/bin/gnu/h-x86_64-mingw32/bin/../lib/gcc/nios2-elf/5.3.0/../../../../../H-x86_64-mingw32/nios2-elf/lib\libc.a(lib_a-memmove.o)
 .debug_line    0x00000000000028a1      0x18c c:/intelfpga/16.1/nios2eds/bin/gnu/h-x86_64-mingw32/bin/../lib/gcc/nios2-elf/5.3.0/../../../../../H-x86_64-mingw32/nios2-elf/lib\libc.a(lib_a-memset.o)
 .debug_line    0x0000000000002a2d      0x2f2 c:/intelfpga/16.1/nios2eds/bin/gnu/h-x86_64-mingw32/bin/../lib/gcc/nios2-elf/5.3.0/../../../../../H-x86_64-mingw32/nios2-elf/lib\libc.a(lib_a-reallocr.o)
 .debug_line    0x0000000000002d1f      0x1e6 c:/intelfpga/16.1/nios2eds/bin/gnu/h-x86_64-mingw32/bin/../lib/gcc/nios2-elf/5.3.0/../../../../../H-x86_64-mingw32/nios2-elf/lib\libc.a(lib_a-sbrkr.o)
 .debug_line    0x0000000000002f05      0x267 c:/intelfpga/16.1/nios2eds/bin/gnu/h-x86_64-mingw32/bin/../lib/gcc/nios2-elf/5.3.0/../../../../../H-x86_64-mingw32/nios2-elf/lib\libc.a(lib_a-stdio.o)
 .debug_line    0x000000000000316c      0x1f3 c:/intelfpga/16.1/nios2eds/bin/gnu/h-x86_64-mingw32/bin/../lib/gcc/nios2-elf/5.3.0/../../../../../H-x86_64-mingw32/nios2-elf/lib\libc.a(lib_a-writer.o)
 .debug_line    0x000000000000335f      0x263 c:/intelfpga/16.1/nios2eds/bin/gnu/h-x86_64-mingw32/bin/../lib/gcc/nios2-elf/5.3.0/../../../../../H-x86_64-mingw32/nios2-elf/lib\libc.a(lib_a-wsetup.o)
 .debug_line    0x00000000000035c2      0x1f3 c:/intelfpga/16.1/nios2eds/bin/gnu/h-x86_64-mingw32/bin/../lib/gcc/nios2-elf/5.3.0/../../../../../H-x86_64-mingw32/nios2-elf/lib\libc.a(closer.o)
 .debug_line    0x00000000000037b5      0x236 c:/intelfpga/16.1/nios2eds/bin/gnu/h-x86_64-mingw32/bin/../lib/gcc/nios2-elf/5.3.0/../../../../../H-x86_64-mingw32/nios2-elf/lib\libc.a(lib_a-fclose.o)
 .debug_line    0x00000000000039eb      0x2e7 c:/intelfpga/16.1/nios2eds/bin/gnu/h-x86_64-mingw32/bin/../lib/gcc/nios2-elf/5.3.0/../../../../../H-x86_64-mingw32/nios2-elf/lib\libc.a(lib_a-fflush.o)
 .debug_line    0x0000000000003cd2      0x2f4 c:/intelfpga/16.1/nios2eds/bin/gnu/h-x86_64-mingw32/bin/../lib/gcc/nios2-elf/5.3.0/../../../../../H-x86_64-mingw32/nios2-elf/lib\libc.a(lib_a-freer.o)
 .debug_line    0x0000000000003fc6       0x5c c:/intelfpga/16.1/nios2eds/bin/gnu/h-x86_64-mingw32/bin/../lib/gcc/nios2-elf/5.3.0/../../../../../H-x86_64-mingw32/nios2-elf/lib\libc.a(lib_a-int_errno.o)
 .debug_line    0x0000000000004022      0x1f3 c:/intelfpga/16.1/nios2eds/bin/gnu/h-x86_64-mingw32/bin/../lib/gcc/nios2-elf/5.3.0/../../../../../H-x86_64-mingw32/nios2-elf/lib\libc.a(lib_a-lseekr.o)
 .debug_line    0x0000000000004215      0x271 c:/intelfpga/16.1/nios2eds/bin/gnu/h-x86_64-mingw32/bin/../lib/gcc/nios2-elf/5.3.0/../../../../../H-x86_64-mingw32/nios2-elf/lib\libc.a(lib_a-makebuf.o)
 .debug_line    0x0000000000004486      0x1f2 c:/intelfpga/16.1/nios2eds/bin/gnu/h-x86_64-mingw32/bin/../lib/gcc/nios2-elf/5.3.0/../../../../../H-x86_64-mingw32/nios2-elf/lib\libc.a(lib_a-readr.o)
 .debug_line    0x0000000000004678      0x1fc c:/intelfpga/16.1/nios2eds/bin/gnu/h-x86_64-mingw32/bin/../lib/gcc/nios2-elf/5.3.0/../../../../../H-x86_64-mingw32/nios2-elf/lib\libc.a(lib_a-fstatr.o)
 .debug_line    0x0000000000004874      0x1f4 c:/intelfpga/16.1/nios2eds/bin/gnu/h-x86_64-mingw32/bin/../lib/gcc/nios2-elf/5.3.0/../../../../../H-x86_64-mingw32/nios2-elf/lib\libc.a(lib_a-isattyr.o)
 .debug_line    0x0000000000004a68      0x102 c:/intelfpga/16.1/nios2eds/bin/gnu/h-x86_64-mingw32/bin/../lib/gcc/nios2-elf/5.3.0\libgcc.a(lib2-divmod.o)
 .debug_line    0x0000000000004b6a       0xf9 ../heart_beets_bsp/\libhal_bsp.a(alt_alarm_start.o)
 .debug_line    0x0000000000004c63      0x160 ../heart_beets_bsp/\libhal_bsp.a(alt_close.o)
 .debug_line    0x0000000000004dc3       0xf3 ../heart_beets_bsp/\libhal_bsp.a(alt_dev.o)
 .debug_line    0x0000000000004eb6       0x51 ../heart_beets_bsp/\libhal_bsp.a(alt_errno.o)
 .debug_line    0x0000000000004f07      0x159 ../heart_beets_bsp/\libhal_bsp.a(alt_fstat.o)
 .debug_line    0x0000000000005060      0x15d ../heart_beets_bsp/\libhal_bsp.a(alt_isatty.o)
 .debug_line    0x00000000000051bd       0x8e ../heart_beets_bsp/\libhal_bsp.a(alt_load.o)
 .debug_line    0x000000000000524b      0x15e ../heart_beets_bsp/\libhal_bsp.a(alt_lseek.o)
 .debug_line    0x00000000000053a9       0xa4 ../heart_beets_bsp/\libhal_bsp.a(alt_main.o)
 .debug_line    0x000000000000544d      0x118 ../heart_beets_bsp/\libhal_bsp.a(alt_malloc_lock.o)
 .debug_line    0x0000000000005565      0x1d2 ../heart_beets_bsp/\libhal_bsp.a(alt_read.o)
 .debug_line    0x0000000000005737       0xae ../heart_beets_bsp/\libhal_bsp.a(alt_release_fd.o)
 .debug_line    0x00000000000057e5       0xee ../heart_beets_bsp/\libhal_bsp.a(alt_sbrk.o)
 .debug_line    0x00000000000058d3       0xff ../heart_beets_bsp/\libhal_bsp.a(alt_tick.o)
 .debug_line    0x00000000000059d2      0x1d1 ../heart_beets_bsp/\libhal_bsp.a(alt_write.o)
 .debug_line    0x0000000000005ba3      0x1c6 ../heart_beets_bsp/\libhal_bsp.a(alt_sys_init.o)
 .debug_line    0x0000000000005d69      0x12f ../heart_beets_bsp/\libhal_bsp.a(altera_avalon_jtag_uart_fd.o)
 .debug_line    0x0000000000005e98      0x18b ../heart_beets_bsp/\libhal_bsp.a(altera_avalon_jtag_uart_init.o)
 .debug_line    0x0000000000006023      0x131 ../heart_beets_bsp/\libhal_bsp.a(altera_avalon_jtag_uart_ioctl.o)
 .debug_line    0x0000000000006154      0x171 ../heart_beets_bsp/\libhal_bsp.a(altera_avalon_jtag_uart_read.o)
 .debug_line    0x00000000000062c5      0x170 ../heart_beets_bsp/\libhal_bsp.a(altera_avalon_jtag_uart_write.o)
 .debug_line    0x0000000000006435      0x33e ../heart_beets_bsp/\libhal_bsp.a(altera_avalon_lcd_16207.o)
 .debug_line    0x0000000000006773      0x119 ../heart_beets_bsp/\libhal_bsp.a(altera_avalon_lcd_16207_fd.o)
 .debug_line    0x000000000000688c       0xfd ../heart_beets_bsp/\libhal_bsp.a(altera_avalon_timer_sc.o)
 .debug_line    0x0000000000006989       0xee ../heart_beets_bsp/\libhal_bsp.a(altera_avalon_uart_fd.o)
 .debug_line    0x0000000000006a77      0x18f ../heart_beets_bsp/\libhal_bsp.a(altera_avalon_uart_init.o)
 .debug_line    0x0000000000006c06      0x17e ../heart_beets_bsp/\libhal_bsp.a(altera_avalon_uart_read.o)
 .debug_line    0x0000000000006d84      0x165 ../heart_beets_bsp/\libhal_bsp.a(altera_avalon_uart_write.o)
 .debug_line    0x0000000000006ee9       0x61 ../heart_beets_bsp/\libhal_bsp.a(alt_dcache_flush_all.o)
 .debug_line    0x0000000000006f4a       0xcf ../heart_beets_bsp/\libhal_bsp.a(alt_dev_llist_insert.o)
 .debug_line    0x0000000000007019       0x59 ../heart_beets_bsp/\libhal_bsp.a(alt_do_ctors.o)
 .debug_line    0x0000000000007072       0x59 ../heart_beets_bsp/\libhal_bsp.a(alt_do_dtors.o)
 .debug_line    0x00000000000070cb       0x50 ../heart_beets_bsp/\libhal_bsp.a(alt_icache_flush_all.o)
 .debug_line    0x000000000000711b       0xeb ../heart_beets_bsp/\libhal_bsp.a(alt_iic.o)
 .debug_line    0x0000000000007206       0xdb ../heart_beets_bsp/\libhal_bsp.a(alt_iic_isr_register.o)
 .debug_line    0x00000000000072e1      0x12e ../heart_beets_bsp/\libhal_bsp.a(alt_io_redirect.o)
 .debug_line    0x000000000000740f       0x6b ../heart_beets_bsp/\libhal_bsp.a(alt_irq_entry.o)
 .debug_line    0x000000000000747a       0xaa ../heart_beets_bsp/\libhal_bsp.a(alt_irq_handler.o)
 .debug_line    0x0000000000007524       0x50 ../heart_beets_bsp/\libhal_bsp.a(alt_irq_vars.o)
 .debug_line    0x0000000000007574      0x128 ../heart_beets_bsp/\libhal_bsp.a(alt_open.o)
 .debug_line    0x000000000000769c       0xa8 ../heart_beets_bsp/\libhal_bsp.a(alt_usleep.o)
 .debug_line    0x0000000000007744       0x51 ../heart_beets_bsp/\libhal_bsp.a(altera_nios2_gen2_irq.o)
 .debug_line    0x0000000000007795       0xa0 ../heart_beets_bsp/\libhal_bsp.a(alt_busy_sleep.o)
 .debug_line    0x0000000000007835       0xb3 ../heart_beets_bsp/\libhal_bsp.a(alt_exception_entry.o)
 .debug_line    0x00000000000078e8       0xb5 ../heart_beets_bsp/\libhal_bsp.a(alt_find_dev.o)
 .debug_line    0x000000000000799d       0xd1 ../heart_beets_bsp/\libhal_bsp.a(alt_find_file.o)
 .debug_line    0x0000000000007a6e       0xd4 ../heart_beets_bsp/\libhal_bsp.a(alt_get_fd.o)
 .debug_line    0x0000000000007b42       0x81 ../heart_beets_bsp/\libhal_bsp.a(alt_icache_flush.o)
 .debug_line    0x0000000000007bc3       0xba ../heart_beets_bsp/\libhal_bsp.a(alt_instruction_exception_entry.o)
 .debug_line    0x0000000000007c7d       0xe4 c:/intelfpga/16.1/nios2eds/bin/gnu/h-x86_64-mingw32/bin/../lib/gcc/nios2-elf/5.3.0/../../../../../H-x86_64-mingw32/nios2-elf/lib\libc.a(lib_a-atexit.o)
 .debug_line    0x0000000000007d61       0xc4 c:/intelfpga/16.1/nios2eds/bin/gnu/h-x86_64-mingw32/bin/../lib/gcc/nios2-elf/5.3.0/../../../../../H-x86_64-mingw32/nios2-elf/lib\libc.a(lib_a-ctype_.o)
 .debug_line    0x0000000000007e25      0x1f9 c:/intelfpga/16.1/nios2eds/bin/gnu/h-x86_64-mingw32/bin/../lib/gcc/nios2-elf/5.3.0/../../../../../H-x86_64-mingw32/nios2-elf/lib\libc.a(lib_a-exit.o)
 .debug_line    0x000000000000801e      0x173 c:/intelfpga/16.1/nios2eds/bin/gnu/h-x86_64-mingw32/bin/../lib/gcc/nios2-elf/5.3.0/../../../../../H-x86_64-mingw32/nios2-elf/lib\libc.a(lib_a-memcmp.o)
 .debug_line    0x0000000000008191      0x21c c:/intelfpga/16.1/nios2eds/bin/gnu/h-x86_64-mingw32/bin/../lib/gcc/nios2-elf/5.3.0/../../../../../H-x86_64-mingw32/nios2-elf/lib\libc.a(lib_a-__atexit.o)
 .debug_line    0x00000000000083ad      0x237 c:/intelfpga/16.1/nios2eds/bin/gnu/h-x86_64-mingw32/bin/../lib/gcc/nios2-elf/5.3.0/../../../../../H-x86_64-mingw32/nios2-elf/lib\libc.a(lib_a-__call_atexit.o)
 .debug_line    0x00000000000085e4       0x71 ../heart_beets_bsp/\libhal_bsp.a(alt_exit.o)

.debug_frame    0x0000000000000000     0x1bc8
 *(.debug_frame)
 .debug_frame   0x0000000000000000      0x1d8 obj/default/hello_world.o
 .debug_frame   0x00000000000001d8       0x58 obj/default/pacemaker.o
 .debug_frame   0x0000000000000230       0x48 c:/intelfpga/16.1/nios2eds/bin/gnu/h-x86_64-mingw32/bin/../lib/gcc/nios2-elf/5.3.0/../../../../../H-x86_64-mingw32/nios2-elf/lib\libc.a(lib_a-puts.o)
 .debug_frame   0x0000000000000278       0x20 c:/intelfpga/16.1/nios2eds/bin/gnu/h-x86_64-mingw32/bin/../lib/gcc/nios2-elf/5.3.0/../../../../../H-x86_64-mingw32/nios2-elf/lib\libc.a(lib_a-strlen.o)
 .debug_frame   0x0000000000000298      0x160 c:/intelfpga/16.1/nios2eds/bin/gnu/h-x86_64-mingw32/bin/../lib/gcc/nios2-elf/5.3.0/../../../../../H-x86_64-mingw32/nios2-elf/lib\libc.a(lib_a-findfp.o)
 .debug_frame   0x00000000000003f8       0x78 c:/intelfpga/16.1/nios2eds/bin/gnu/h-x86_64-mingw32/bin/../lib/gcc/nios2-elf/5.3.0/../../../../../H-x86_64-mingw32/nios2-elf/lib\libc.a(lib_a-fvwrite.o)
 .debug_frame   0x0000000000000470       0x90 c:/intelfpga/16.1/nios2eds/bin/gnu/h-x86_64-mingw32/bin/../lib/gcc/nios2-elf/5.3.0/../../../../../H-x86_64-mingw32/nios2-elf/lib\libc.a(lib_a-fwalk.o)
 .debug_frame   0x0000000000000500       0x54 c:/intelfpga/16.1/nios2eds/bin/gnu/h-x86_64-mingw32/bin/../lib/gcc/nios2-elf/5.3.0/../../../../../H-x86_64-mingw32/nios2-elf/lib\libc.a(lib_a-mallocr.o)
 .debug_frame   0x0000000000000554       0x20 c:/intelfpga/16.1/nios2eds/bin/gnu/h-x86_64-mingw32/bin/../lib/gcc/nios2-elf/5.3.0/../../../../../H-x86_64-mingw32/nios2-elf/lib\libc.a(lib_a-memchr.o)
 .debug_frame   0x0000000000000574       0x38 c:/intelfpga/16.1/nios2eds/bin/gnu/h-x86_64-mingw32/bin/../lib/gcc/nios2-elf/5.3.0/../../../../../H-x86_64-mingw32/nios2-elf/lib\libc.a(lib_a-memcpy.o)
 .debug_frame   0x00000000000005ac       0x20 c:/intelfpga/16.1/nios2eds/bin/gnu/h-x86_64-mingw32/bin/../lib/gcc/nios2-elf/5.3.0/../../../../../H-x86_64-mingw32/nios2-elf/lib\libc.a(lib_a-memmove.o)
 .debug_frame   0x00000000000005cc       0x20 c:/intelfpga/16.1/nios2eds/bin/gnu/h-x86_64-mingw32/bin/../lib/gcc/nios2-elf/5.3.0/../../../../../H-x86_64-mingw32/nios2-elf/lib\libc.a(lib_a-memset.o)
 .debug_frame   0x00000000000005ec       0x70 c:/intelfpga/16.1/nios2eds/bin/gnu/h-x86_64-mingw32/bin/../lib/gcc/nios2-elf/5.3.0/../../../../../H-x86_64-mingw32/nios2-elf/lib\libc.a(lib_a-reallocr.o)
 .debug_frame   0x000000000000065c       0x38 c:/intelfpga/16.1/nios2eds/bin/gnu/h-x86_64-mingw32/bin/../lib/gcc/nios2-elf/5.3.0/../../../../../H-x86_64-mingw32/nios2-elf/lib\libc.a(lib_a-sbrkr.o)
 .debug_frame   0x0000000000000694       0xb4 c:/intelfpga/16.1/nios2eds/bin/gnu/h-x86_64-mingw32/bin/../lib/gcc/nios2-elf/5.3.0/../../../../../H-x86_64-mingw32/nios2-elf/lib\libc.a(lib_a-stdio.o)
 .debug_frame   0x0000000000000748       0x38 c:/intelfpga/16.1/nios2eds/bin/gnu/h-x86_64-mingw32/bin/../lib/gcc/nios2-elf/5.3.0/../../../../../H-x86_64-mingw32/nios2-elf/lib\libc.a(lib_a-writer.o)
 .debug_frame   0x0000000000000780       0x38 c:/intelfpga/16.1/nios2eds/bin/gnu/h-x86_64-mingw32/bin/../lib/gcc/nios2-elf/5.3.0/../../../../../H-x86_64-mingw32/nios2-elf/lib\libc.a(lib_a-wsetup.o)
 .debug_frame   0x00000000000007b8       0x38 c:/intelfpga/16.1/nios2eds/bin/gnu/h-x86_64-mingw32/bin/../lib/gcc/nios2-elf/5.3.0/../../../../../H-x86_64-mingw32/nios2-elf/lib\libc.a(closer.o)
 .debug_frame   0x00000000000007f0       0x54 c:/intelfpga/16.1/nios2eds/bin/gnu/h-x86_64-mingw32/bin/../lib/gcc/nios2-elf/5.3.0/../../../../../H-x86_64-mingw32/nios2-elf/lib\libc.a(lib_a-fclose.o)
 .debug_frame   0x0000000000000844       0x7c c:/intelfpga/16.1/nios2eds/bin/gnu/h-x86_64-mingw32/bin/../lib/gcc/nios2-elf/5.3.0/../../../../../H-x86_64-mingw32/nios2-elf/lib\libc.a(lib_a-fflush.o)
 .debug_frame   0x00000000000008c0       0x70 c:/intelfpga/16.1/nios2eds/bin/gnu/h-x86_64-mingw32/bin/../lib/gcc/nios2-elf/5.3.0/../../../../../H-x86_64-mingw32/nios2-elf/lib\libc.a(lib_a-freer.o)
 .debug_frame   0x0000000000000930       0x38 c:/intelfpga/16.1/nios2eds/bin/gnu/h-x86_64-mingw32/bin/../lib/gcc/nios2-elf/5.3.0/../../../../../H-x86_64-mingw32/nios2-elf/lib\libc.a(lib_a-lseekr.o)
 .debug_frame   0x0000000000000968       0x4c c:/intelfpga/16.1/nios2eds/bin/gnu/h-x86_64-mingw32/bin/../lib/gcc/nios2-elf/5.3.0/../../../../../H-x86_64-mingw32/nios2-elf/lib\libc.a(lib_a-makebuf.o)
 .debug_frame   0x00000000000009b4       0x38 c:/intelfpga/16.1/nios2eds/bin/gnu/h-x86_64-mingw32/bin/../lib/gcc/nios2-elf/5.3.0/../../../../../H-x86_64-mingw32/nios2-elf/lib\libc.a(lib_a-readr.o)
 .debug_frame   0x00000000000009ec       0x38 c:/intelfpga/16.1/nios2eds/bin/gnu/h-x86_64-mingw32/bin/../lib/gcc/nios2-elf/5.3.0/../../../../../H-x86_64-mingw32/nios2-elf/lib\libc.a(lib_a-fstatr.o)
 .debug_frame   0x0000000000000a24       0x38 c:/intelfpga/16.1/nios2eds/bin/gnu/h-x86_64-mingw32/bin/../lib/gcc/nios2-elf/5.3.0/../../../../../H-x86_64-mingw32/nios2-elf/lib\libc.a(lib_a-isattyr.o)
 .debug_frame   0x0000000000000a5c       0x50 c:/intelfpga/16.1/nios2eds/bin/gnu/h-x86_64-mingw32/bin/../lib/gcc/nios2-elf/5.3.0\libgcc.a(lib2-divmod.o)
 .debug_frame   0x0000000000000aac       0x34 ../heart_beets_bsp/\libhal_bsp.a(alt_alarm_start.o)
 .debug_frame   0x0000000000000ae0       0x60 ../heart_beets_bsp/\libhal_bsp.a(alt_close.o)
 .debug_frame   0x0000000000000b40       0x34 ../heart_beets_bsp/\libhal_bsp.a(alt_dev.o)
 .debug_frame   0x0000000000000b74       0x60 ../heart_beets_bsp/\libhal_bsp.a(alt_fstat.o)
 .debug_frame   0x0000000000000bd4       0x60 ../heart_beets_bsp/\libhal_bsp.a(alt_isatty.o)
 .debug_frame   0x0000000000000c34       0x5c ../heart_beets_bsp/\libhal_bsp.a(alt_load.o)
 .debug_frame   0x0000000000000c90       0x60 ../heart_beets_bsp/\libhal_bsp.a(alt_lseek.o)
 .debug_frame   0x0000000000000cf0       0x2c ../heart_beets_bsp/\libhal_bsp.a(alt_main.o)
 .debug_frame   0x0000000000000d1c       0x58 ../heart_beets_bsp/\libhal_bsp.a(alt_malloc_lock.o)
 .debug_frame   0x0000000000000d74       0x60 ../heart_beets_bsp/\libhal_bsp.a(alt_read.o)
 .debug_frame   0x0000000000000dd4       0x34 ../heart_beets_bsp/\libhal_bsp.a(alt_release_fd.o)
 .debug_frame   0x0000000000000e08       0x34 ../heart_beets_bsp/\libhal_bsp.a(alt_sbrk.o)
 .debug_frame   0x0000000000000e3c       0x5c ../heart_beets_bsp/\libhal_bsp.a(alt_tick.o)
 .debug_frame   0x0000000000000e98       0x60 ../heart_beets_bsp/\libhal_bsp.a(alt_write.o)
 .debug_frame   0x0000000000000ef8       0x88 ../heart_beets_bsp/\libhal_bsp.a(alt_sys_init.o)
 .debug_frame   0x0000000000000f80       0xb0 ../heart_beets_bsp/\libhal_bsp.a(altera_avalon_jtag_uart_fd.o)
 .debug_frame   0x0000000000001030       0xa4 ../heart_beets_bsp/\libhal_bsp.a(altera_avalon_jtag_uart_init.o)
 .debug_frame   0x00000000000010d4       0x34 ../heart_beets_bsp/\libhal_bsp.a(altera_avalon_jtag_uart_ioctl.o)
 .debug_frame   0x0000000000001108       0x38 ../heart_beets_bsp/\libhal_bsp.a(altera_avalon_jtag_uart_read.o)
 .debug_frame   0x0000000000001140       0x38 ../heart_beets_bsp/\libhal_bsp.a(altera_avalon_jtag_uart_write.o)
 .debug_frame   0x0000000000001178      0x178 ../heart_beets_bsp/\libhal_bsp.a(altera_avalon_lcd_16207.o)
 .debug_frame   0x00000000000012f0       0x38 ../heart_beets_bsp/\libhal_bsp.a(altera_avalon_lcd_16207_fd.o)
 .debug_frame   0x0000000000001328       0x60 ../heart_beets_bsp/\libhal_bsp.a(altera_avalon_timer_sc.o)
 .debug_frame   0x0000000000001388       0x88 ../heart_beets_bsp/\libhal_bsp.a(altera_avalon_uart_fd.o)
 .debug_frame   0x0000000000001410       0xcc ../heart_beets_bsp/\libhal_bsp.a(altera_avalon_uart_init.o)
 .debug_frame   0x00000000000014dc       0x60 ../heart_beets_bsp/\libhal_bsp.a(altera_avalon_uart_read.o)
 .debug_frame   0x000000000000153c       0x60 ../heart_beets_bsp/\libhal_bsp.a(altera_avalon_uart_write.o)
 .debug_frame   0x000000000000159c       0x34 ../heart_beets_bsp/\libhal_bsp.a(alt_dcache_flush_all.o)
 .debug_frame   0x00000000000015d0       0x60 ../heart_beets_bsp/\libhal_bsp.a(alt_dev_llist_insert.o)
 .debug_frame   0x0000000000001630       0x38 ../heart_beets_bsp/\libhal_bsp.a(alt_do_ctors.o)
 .debug_frame   0x0000000000001668       0x38 ../heart_beets_bsp/\libhal_bsp.a(alt_do_dtors.o)
 .debug_frame   0x00000000000016a0       0x38 ../heart_beets_bsp/\libhal_bsp.a(alt_icache_flush_all.o)
 .debug_frame   0x00000000000016d8       0xa4 ../heart_beets_bsp/\libhal_bsp.a(alt_iic.o)
 .debug_frame   0x000000000000177c       0x38 ../heart_beets_bsp/\libhal_bsp.a(alt_iic_isr_register.o)
 .debug_frame   0x00000000000017b4       0x60 ../heart_beets_bsp/\libhal_bsp.a(alt_io_redirect.o)
 .debug_frame   0x0000000000001814       0x38 ../heart_beets_bsp/\libhal_bsp.a(alt_irq_handler.o)
 .debug_frame   0x000000000000184c       0x84 ../heart_beets_bsp/\libhal_bsp.a(alt_open.o)
 .debug_frame   0x00000000000018d0       0x38 ../heart_beets_bsp/\libhal_bsp.a(alt_usleep.o)
 .debug_frame   0x0000000000001908       0x34 ../heart_beets_bsp/\libhal_bsp.a(altera_nios2_gen2_irq.o)
 .debug_frame   0x000000000000193c       0x38 ../heart_beets_bsp/\libhal_bsp.a(alt_busy_sleep.o)
 .debug_frame   0x0000000000001974       0x38 ../heart_beets_bsp/\libhal_bsp.a(alt_find_dev.o)
 .debug_frame   0x00000000000019ac       0x38 ../heart_beets_bsp/\libhal_bsp.a(alt_find_file.o)
 .debug_frame   0x00000000000019e4       0x34 ../heart_beets_bsp/\libhal_bsp.a(alt_get_fd.o)
 .debug_frame   0x0000000000001a18       0x34 ../heart_beets_bsp/\libhal_bsp.a(alt_icache_flush.o)
 .debug_frame   0x0000000000001a4c       0x5c ../heart_beets_bsp/\libhal_bsp.a(alt_instruction_exception_entry.o)
 .debug_frame   0x0000000000001aa8       0x20 c:/intelfpga/16.1/nios2eds/bin/gnu/h-x86_64-mingw32/bin/../lib/gcc/nios2-elf/5.3.0/../../../../../H-x86_64-mingw32/nios2-elf/lib\libc.a(lib_a-atexit.o)
 .debug_frame   0x0000000000001ac8       0x28 c:/intelfpga/16.1/nios2eds/bin/gnu/h-x86_64-mingw32/bin/../lib/gcc/nios2-elf/5.3.0/../../../../../H-x86_64-mingw32/nios2-elf/lib\libc.a(lib_a-exit.o)
 .debug_frame   0x0000000000001af0       0x20 c:/intelfpga/16.1/nios2eds/bin/gnu/h-x86_64-mingw32/bin/../lib/gcc/nios2-elf/5.3.0/../../../../../H-x86_64-mingw32/nios2-elf/lib\libc.a(lib_a-memcmp.o)
 .debug_frame   0x0000000000001b10       0x38 c:/intelfpga/16.1/nios2eds/bin/gnu/h-x86_64-mingw32/bin/../lib/gcc/nios2-elf/5.3.0/../../../../../H-x86_64-mingw32/nios2-elf/lib\libc.a(lib_a-__atexit.o)
 .debug_frame   0x0000000000001b48       0x54 c:/intelfpga/16.1/nios2eds/bin/gnu/h-x86_64-mingw32/bin/../lib/gcc/nios2-elf/5.3.0/../../../../../H-x86_64-mingw32/nios2-elf/lib\libc.a(lib_a-__call_atexit.o)
 .debug_frame   0x0000000000001b9c       0x2c ../heart_beets_bsp/\libhal_bsp.a(alt_exit.o)

.debug_str      0x0000000000000000     0x351f
 *(.debug_str)
 .debug_str     0x0000000000000000      0x387 obj/default/hello_world.o
                                        0x3f4 (size before relaxing)
 .debug_str     0x0000000000000387      0x580 obj/default/pacemaker.o
                                        0x6dc (size before relaxing)
 .debug_str     0x0000000000000907      0x4df c:/intelfpga/16.1/nios2eds/bin/gnu/h-x86_64-mingw32/bin/../lib/gcc/nios2-elf/5.3.0/../../../../../H-x86_64-mingw32/nios2-elf/lib\libc.a(lib_a-puts.o)
                                        0x602 (size before relaxing)
 .debug_str     0x0000000000000de6       0xcb c:/intelfpga/16.1/nios2eds/bin/gnu/h-x86_64-mingw32/bin/../lib/gcc/nios2-elf/5.3.0/../../../../../H-x86_64-mingw32/nios2-elf/lib\libc.a(lib_a-strlen.o)
                                        0x1dd (size before relaxing)
 .debug_str     0x0000000000000eb1      0x143 c:/intelfpga/16.1/nios2eds/bin/gnu/h-x86_64-mingw32/bin/../lib/gcc/nios2-elf/5.3.0/../../../../../H-x86_64-mingw32/nios2-elf/lib\libc.a(lib_a-findfp.o)
                                        0x6b1 (size before relaxing)
 .debug_str     0x0000000000000ff4       0x97 c:/intelfpga/16.1/nios2eds/bin/gnu/h-x86_64-mingw32/bin/../lib/gcc/nios2-elf/5.3.0/../../../../../H-x86_64-mingw32/nios2-elf/lib\libc.a(lib_a-fvwrite.o)
                                        0x62d (size before relaxing)
 .debug_str     0x000000000000108b       0x47 c:/intelfpga/16.1/nios2eds/bin/gnu/h-x86_64-mingw32/bin/../lib/gcc/nios2-elf/5.3.0/../../../../../H-x86_64-mingw32/nios2-elf/lib\libc.a(lib_a-fwalk.o)
                                        0x5a0 (size before relaxing)
 .debug_str     0x00000000000010d2       0xc8 c:/intelfpga/16.1/nios2eds/bin/gnu/h-x86_64-mingw32/bin/../lib/gcc/nios2-elf/5.3.0/../../../../../H-x86_64-mingw32/nios2-elf/lib\libc.a(lib_a-impure.o)
                                        0x59b (size before relaxing)
 .debug_str     0x000000000000119a      0x2a7 c:/intelfpga/16.1/nios2eds/bin/gnu/h-x86_64-mingw32/bin/../lib/gcc/nios2-elf/5.3.0/../../../../../H-x86_64-mingw32/nios2-elf/lib\libc.a(lib_a-mallocr.o)
                                        0x7a0 (size before relaxing)
 .debug_str     0x0000000000001441       0x4f c:/intelfpga/16.1/nios2eds/bin/gnu/h-x86_64-mingw32/bin/../lib/gcc/nios2-elf/5.3.0/../../../../../H-x86_64-mingw32/nios2-elf/lib\libc.a(lib_a-memchr.o)
                                        0x1e4 (size before relaxing)
 .debug_str     0x0000000000001490       0x61 c:/intelfpga/16.1/nios2eds/bin/gnu/h-x86_64-mingw32/bin/../lib/gcc/nios2-elf/5.3.0/../../../../../H-x86_64-mingw32/nios2-elf/lib\libc.a(lib_a-memcpy.o)
                                        0x1f1 (size before relaxing)
 .debug_str     0x00000000000014f1       0x44 c:/intelfpga/16.1/nios2eds/bin/gnu/h-x86_64-mingw32/bin/../lib/gcc/nios2-elf/5.3.0/../../../../../H-x86_64-mingw32/nios2-elf/lib\libc.a(lib_a-memmove.o)
                                        0x1fd (size before relaxing)
 .debug_str     0x0000000000001535       0x41 c:/intelfpga/16.1/nios2eds/bin/gnu/h-x86_64-mingw32/bin/../lib/gcc/nios2-elf/5.3.0/../../../../../H-x86_64-mingw32/nios2-elf/lib\libc.a(lib_a-memset.o)
                                        0x1de (size before relaxing)
 .debug_str     0x0000000000001576       0x4e c:/intelfpga/16.1/nios2eds/bin/gnu/h-x86_64-mingw32/bin/../lib/gcc/nios2-elf/5.3.0/../../../../../H-x86_64-mingw32/nios2-elf/lib\libc.a(lib_a-reallocr.o)
                                        0x67c (size before relaxing)
 .debug_str     0x00000000000015c4       0x4c c:/intelfpga/16.1/nios2eds/bin/gnu/h-x86_64-mingw32/bin/../lib/gcc/nios2-elf/5.3.0/../../../../../H-x86_64-mingw32/nios2-elf/lib\libc.a(lib_a-sbrkr.o)
                                        0x591 (size before relaxing)
 .debug_str     0x0000000000001610       0x98 c:/intelfpga/16.1/nios2eds/bin/gnu/h-x86_64-mingw32/bin/../lib/gcc/nios2-elf/5.3.0/../../../../../H-x86_64-mingw32/nios2-elf/lib\libc.a(lib_a-stdio.o)
                                        0x5ef (size before relaxing)
 .debug_str     0x00000000000016a8       0x39 c:/intelfpga/16.1/nios2eds/bin/gnu/h-x86_64-mingw32/bin/../lib/gcc/nios2-elf/5.3.0/../../../../../H-x86_64-mingw32/nios2-elf/lib\libc.a(lib_a-writer.o)
                                        0x595 (size before relaxing)
 .debug_str     0x00000000000016e1       0x46 c:/intelfpga/16.1/nios2eds/bin/gnu/h-x86_64-mingw32/bin/../lib/gcc/nios2-elf/5.3.0/../../../../../H-x86_64-mingw32/nios2-elf/lib\libc.a(lib_a-wsetup.o)
                                        0x5ba (size before relaxing)
 .debug_str     0x0000000000001727       0x39 c:/intelfpga/16.1/nios2eds/bin/gnu/h-x86_64-mingw32/bin/../lib/gcc/nios2-elf/5.3.0/../../../../../H-x86_64-mingw32/nios2-elf/lib\libc.a(closer.o)
                                        0x585 (size before relaxing)
 .debug_str     0x0000000000001760       0x5a c:/intelfpga/16.1/nios2eds/bin/gnu/h-x86_64-mingw32/bin/../lib/gcc/nios2-elf/5.3.0/../../../../../H-x86_64-mingw32/nios2-elf/lib\libc.a(lib_a-fclose.o)
                                        0x5e8 (size before relaxing)
 .debug_str     0x00000000000017ba       0x51 c:/intelfpga/16.1/nios2eds/bin/gnu/h-x86_64-mingw32/bin/../lib/gcc/nios2-elf/5.3.0/../../../../../H-x86_64-mingw32/nios2-elf/lib\libc.a(lib_a-fflush.o)
                                        0x5fb (size before relaxing)
 .debug_str     0x000000000000180b       0x34 c:/intelfpga/16.1/nios2eds/bin/gnu/h-x86_64-mingw32/bin/../lib/gcc/nios2-elf/5.3.0/../../../../../H-x86_64-mingw32/nios2-elf/lib\libc.a(lib_a-freer.o)
                                        0x6ea (size before relaxing)
 .debug_str     0x000000000000183f       0x3c c:/intelfpga/16.1/nios2eds/bin/gnu/h-x86_64-mingw32/bin/../lib/gcc/nios2-elf/5.3.0/../../../../../H-x86_64-mingw32/nios2-elf/lib\libc.a(lib_a-int_errno.o)
                                        0x1c3 (size before relaxing)
 .debug_str     0x000000000000187b       0x3f c:/intelfpga/16.1/nios2eds/bin/gnu/h-x86_64-mingw32/bin/../lib/gcc/nios2-elf/5.3.0/../../../../../H-x86_64-mingw32/nios2-elf/lib\libc.a(lib_a-lseekr.o)
                                        0x58c (size before relaxing)
 .debug_str     0x00000000000018ba      0x121 c:/intelfpga/16.1/nios2eds/bin/gnu/h-x86_64-mingw32/bin/../lib/gcc/nios2-elf/5.3.0/../../../../../H-x86_64-mingw32/nios2-elf/lib\libc.a(lib_a-makebuf.o)
                                        0x69d (size before relaxing)
 .debug_str     0x00000000000019db       0x38 c:/intelfpga/16.1/nios2eds/bin/gnu/h-x86_64-mingw32/bin/../lib/gcc/nios2-elf/5.3.0/../../../../../H-x86_64-mingw32/nios2-elf/lib\libc.a(lib_a-readr.o)
                                        0x592 (size before relaxing)
 .debug_str     0x0000000000001a13       0x45 c:/intelfpga/16.1/nios2eds/bin/gnu/h-x86_64-mingw32/bin/../lib/gcc/nios2-elf/5.3.0/../../../../../H-x86_64-mingw32/nios2-elf/lib\libc.a(lib_a-fstatr.o)
                                        0x671 (size before relaxing)
 .debug_str     0x0000000000001a58       0x41 c:/intelfpga/16.1/nios2eds/bin/gnu/h-x86_64-mingw32/bin/../lib/gcc/nios2-elf/5.3.0/../../../../../H-x86_64-mingw32/nios2-elf/lib\libc.a(lib_a-isattyr.o)
                                        0x588 (size before relaxing)
 .debug_str     0x0000000000001a99      0x16d c:/intelfpga/16.1/nios2eds/bin/gnu/h-x86_64-mingw32/bin/../lib/gcc/nios2-elf/5.3.0\libgcc.a(lib2-divmod.o)
                                        0x1b8 (size before relaxing)
 .debug_str     0x0000000000001c06       0xed ../heart_beets_bsp/\libhal_bsp.a(alt_alarm_start.o)
                                        0x289 (size before relaxing)
 .debug_str     0x0000000000001cf3       0x8b ../heart_beets_bsp/\libhal_bsp.a(alt_close.o)
                                        0x216 (size before relaxing)
 .debug_str     0x0000000000001d7e       0x50 ../heart_beets_bsp/\libhal_bsp.a(alt_dev.o)
                                        0x310 (size before relaxing)
 .debug_str     0x0000000000001dce       0x14 ../heart_beets_bsp/\libhal_bsp.a(alt_errno.o)
                                        0x150 (size before relaxing)
 .debug_str     0x0000000000001de2       0x14 ../heart_beets_bsp/\libhal_bsp.a(alt_fstat.o)
                                        0x2f7 (size before relaxing)
 .debug_str     0x0000000000001df6       0x15 ../heart_beets_bsp/\libhal_bsp.a(alt_isatty.o)
                                        0x2ff (size before relaxing)
 .debug_str     0x0000000000001e0b       0xe9 ../heart_beets_bsp/\libhal_bsp.a(alt_load.o)
                                        0x21d (size before relaxing)
 .debug_str     0x0000000000001ef4       0x14 ../heart_beets_bsp/\libhal_bsp.a(alt_lseek.o)
                                        0x21c (size before relaxing)
 .debug_str     0x0000000000001f08       0x44 ../heart_beets_bsp/\libhal_bsp.a(alt_main.o)
                                        0x1a8 (size before relaxing)
 .debug_str     0x0000000000001f4c       0x1a ../heart_beets_bsp/\libhal_bsp.a(alt_malloc_lock.o)
                                        0x51a (size before relaxing)
 .debug_str     0x0000000000001f66       0x13 ../heart_beets_bsp/\libhal_bsp.a(alt_read.o)
                                        0x302 (size before relaxing)
 .debug_str     0x0000000000001f79       0x28 ../heart_beets_bsp/\libhal_bsp.a(alt_release_fd.o)
                                        0x1de (size before relaxing)
 .debug_str     0x0000000000001fa1       0x61 ../heart_beets_bsp/\libhal_bsp.a(alt_sbrk.o)
                                        0x1df (size before relaxing)
 .debug_str     0x0000000000002002       0x4a ../heart_beets_bsp/\libhal_bsp.a(alt_tick.o)
                                        0x25d (size before relaxing)
 .debug_str     0x000000000000204c       0x14 ../heart_beets_bsp/\libhal_bsp.a(alt_write.o)
                                        0x303 (size before relaxing)
 .debug_str     0x0000000000002060      0x294 ../heart_beets_bsp/\libhal_bsp.a(alt_sys_init.o)
                                        0x504 (size before relaxing)
 .debug_str     0x00000000000022f4       0xb2 ../heart_beets_bsp/\libhal_bsp.a(altera_avalon_jtag_uart_fd.o)
                                        0x3af (size before relaxing)
 .debug_str     0x00000000000023a6       0xbc ../heart_beets_bsp/\libhal_bsp.a(altera_avalon_jtag_uart_init.o)
                                        0x343 (size before relaxing)
 .debug_str     0x0000000000002462       0x4a ../heart_beets_bsp/\libhal_bsp.a(altera_avalon_jtag_uart_ioctl.o)
                                        0x29e (size before relaxing)
 .debug_str     0x00000000000024ac       0x48 ../heart_beets_bsp/\libhal_bsp.a(altera_avalon_jtag_uart_read.o)
                                        0x2f3 (size before relaxing)
 .debug_str     0x00000000000024f4       0x4a ../heart_beets_bsp/\libhal_bsp.a(altera_avalon_jtag_uart_write.o)
                                        0x2f4 (size before relaxing)
 .debug_str     0x000000000000253e      0x1f9 ../heart_beets_bsp/\libhal_bsp.a(altera_avalon_lcd_16207.o)
                                        0x49a (size before relaxing)
 .debug_str     0x0000000000002737       0x4a ../heart_beets_bsp/\libhal_bsp.a(altera_avalon_lcd_16207_fd.o)
                                        0x363 (size before relaxing)
 .debug_str     0x0000000000002781       0x6d ../heart_beets_bsp/\libhal_bsp.a(altera_avalon_timer_sc.o)
                                        0x256 (size before relaxing)
 .debug_str     0x00000000000027ee       0x77 ../heart_beets_bsp/\libhal_bsp.a(altera_avalon_uart_fd.o)
                                        0x300 (size before relaxing)
 .debug_str     0x0000000000002865       0xa7 ../heart_beets_bsp/\libhal_bsp.a(altera_avalon_uart_init.o)
                                        0x2c2 (size before relaxing)
 .debug_str     0x000000000000290c       0x4f ../heart_beets_bsp/\libhal_bsp.a(altera_avalon_uart_read.o)
                                        0x2a3 (size before relaxing)
 .debug_str     0x000000000000295b       0x49 ../heart_beets_bsp/\libhal_bsp.a(altera_avalon_uart_write.o)
                                        0x297 (size before relaxing)
 .debug_str     0x00000000000029a4       0x34 ../heart_beets_bsp/\libhal_bsp.a(alt_dcache_flush_all.o)
                                        0x160 (size before relaxing)
 .debug_str     0x00000000000029d8       0x34 ../heart_beets_bsp/\libhal_bsp.a(alt_dev_llist_insert.o)
                                        0x1d7 (size before relaxing)
 .debug_str     0x0000000000002a0c       0x48 ../heart_beets_bsp/\libhal_bsp.a(alt_do_ctors.o)
                                         0xdb (size before relaxing)
 .debug_str     0x0000000000002a54       0x4c ../heart_beets_bsp/\libhal_bsp.a(alt_do_dtors.o)
                                         0xda (size before relaxing)
 .debug_str     0x0000000000002aa0       0x34 ../heart_beets_bsp/\libhal_bsp.a(alt_icache_flush_all.o)
                                        0x160 (size before relaxing)
 .debug_str     0x0000000000002ad4       0xbd ../heart_beets_bsp/\libhal_bsp.a(alt_iic.o)
                                        0x249 (size before relaxing)
 .debug_str     0x0000000000002b91       0x4c ../heart_beets_bsp/\libhal_bsp.a(alt_iic_isr_register.o)
                                        0x1f3 (size before relaxing)
 .debug_str     0x0000000000002bdd       0x56 ../heart_beets_bsp/\libhal_bsp.a(alt_io_redirect.o)
                                        0x321 (size before relaxing)
 .debug_str     0x0000000000002c33       0x3a ../heart_beets_bsp/\libhal_bsp.a(alt_irq_handler.o)
                                        0x1a2 (size before relaxing)
 .debug_str     0x0000000000002c6d       0x17 ../heart_beets_bsp/\libhal_bsp.a(alt_irq_vars.o)
                                        0x145 (size before relaxing)
 .debug_str     0x0000000000002c84       0x29 ../heart_beets_bsp/\libhal_bsp.a(alt_open.o)
                                        0x256 (size before relaxing)
 .debug_str     0x0000000000002cad       0x27 ../heart_beets_bsp/\libhal_bsp.a(alt_usleep.o)
                                        0x153 (size before relaxing)
 .debug_str     0x0000000000002cd4       0x3b ../heart_beets_bsp/\libhal_bsp.a(altera_nios2_gen2_irq.o)
                                        0x167 (size before relaxing)
 .debug_str     0x0000000000002d0f       0x42 ../heart_beets_bsp/\libhal_bsp.a(alt_busy_sleep.o)
                                        0x176 (size before relaxing)
 .debug_str     0x0000000000002d51       0x24 ../heart_beets_bsp/\libhal_bsp.a(alt_find_dev.o)
                                        0x1f7 (size before relaxing)
 .debug_str     0x0000000000002d75       0x26 ../heart_beets_bsp/\libhal_bsp.a(alt_find_file.o)
                                        0x205 (size before relaxing)
 .debug_str     0x0000000000002d9b       0x30 ../heart_beets_bsp/\libhal_bsp.a(alt_get_fd.o)
                                        0x227 (size before relaxing)
 .debug_str     0x0000000000002dcb       0x2c ../heart_beets_bsp/\libhal_bsp.a(alt_icache_flush.o)
                                        0x166 (size before relaxing)
 .debug_str     0x0000000000002df7      0x48b ../heart_beets_bsp/\libhal_bsp.a(alt_instruction_exception_entry.o)
                                        0x5ab (size before relaxing)
 .debug_str     0x0000000000003282       0x7e c:/intelfpga/16.1/nios2eds/bin/gnu/h-x86_64-mingw32/bin/../lib/gcc/nios2-elf/5.3.0/../../../../../H-x86_64-mingw32/nios2-elf/lib\libc.a(lib_a-atexit.o)
                                        0x207 (size before relaxing)
 .debug_str     0x0000000000003300       0xcd c:/intelfpga/16.1/nios2eds/bin/gnu/h-x86_64-mingw32/bin/../lib/gcc/nios2-elf/5.3.0/../../../../../H-x86_64-mingw32/nios2-elf/lib\libc.a(lib_a-ctype_.o)
                                        0x149 (size before relaxing)
 .debug_str     0x00000000000033cd       0x49 c:/intelfpga/16.1/nios2eds/bin/gnu/h-x86_64-mingw32/bin/../lib/gcc/nios2-elf/5.3.0/../../../../../H-x86_64-mingw32/nios2-elf/lib\libc.a(lib_a-exit.o)
                                        0x5a4 (size before relaxing)
 .debug_str     0x0000000000003416       0x41 c:/intelfpga/16.1/nios2eds/bin/gnu/h-x86_64-mingw32/bin/../lib/gcc/nios2-elf/5.3.0/../../../../../H-x86_64-mingw32/nios2-elf/lib\libc.a(lib_a-memcmp.o)
                                        0x1ca (size before relaxing)
 .debug_str     0x0000000000003457       0x3c c:/intelfpga/16.1/nios2eds/bin/gnu/h-x86_64-mingw32/bin/../lib/gcc/nios2-elf/5.3.0/../../../../../H-x86_64-mingw32/nios2-elf/lib\libc.a(lib_a-__atexit.o)
                                        0x5dc (size before relaxing)
 .debug_str     0x0000000000003493       0x62 c:/intelfpga/16.1/nios2eds/bin/gnu/h-x86_64-mingw32/bin/../lib/gcc/nios2-elf/5.3.0/../../../../../H-x86_64-mingw32/nios2-elf/lib\libc.a(lib_a-__call_atexit.o)
                                        0x5c8 (size before relaxing)
 .debug_str     0x00000000000034f5       0x2a ../heart_beets_bsp/\libhal_bsp.a(alt_exit.o)
                                        0x15c (size before relaxing)

.debug_loc      0x0000000000000000     0x4a4c
 *(.debug_loc)
 .debug_loc     0x0000000000000000      0x117 c:/intelfpga/16.1/nios2eds/bin/gnu/h-x86_64-mingw32/bin/../lib/gcc/nios2-elf/5.3.0/../../../../../H-x86_64-mingw32/nios2-elf/lib\libc.a(lib_a-puts.o)
 .debug_loc     0x0000000000000117       0x47 c:/intelfpga/16.1/nios2eds/bin/gnu/h-x86_64-mingw32/bin/../lib/gcc/nios2-elf/5.3.0/../../../../../H-x86_64-mingw32/nios2-elf/lib\libc.a(lib_a-strlen.o)
 .debug_loc     0x000000000000015e      0x2ee c:/intelfpga/16.1/nios2eds/bin/gnu/h-x86_64-mingw32/bin/../lib/gcc/nios2-elf/5.3.0/../../../../../H-x86_64-mingw32/nios2-elf/lib\libc.a(lib_a-findfp.o)
 .debug_loc     0x000000000000044c      0x5d7 c:/intelfpga/16.1/nios2eds/bin/gnu/h-x86_64-mingw32/bin/../lib/gcc/nios2-elf/5.3.0/../../../../../H-x86_64-mingw32/nios2-elf/lib\libc.a(lib_a-fvwrite.o)
 .debug_loc     0x0000000000000a23      0x25b c:/intelfpga/16.1/nios2eds/bin/gnu/h-x86_64-mingw32/bin/../lib/gcc/nios2-elf/5.3.0/../../../../../H-x86_64-mingw32/nios2-elf/lib\libc.a(lib_a-fwalk.o)
 .debug_loc     0x0000000000000c7e      0xb1b c:/intelfpga/16.1/nios2eds/bin/gnu/h-x86_64-mingw32/bin/../lib/gcc/nios2-elf/5.3.0/../../../../../H-x86_64-mingw32/nios2-elf/lib\libc.a(lib_a-mallocr.o)
 .debug_loc     0x0000000000001799      0x1a1 c:/intelfpga/16.1/nios2eds/bin/gnu/h-x86_64-mingw32/bin/../lib/gcc/nios2-elf/5.3.0/../../../../../H-x86_64-mingw32/nios2-elf/lib\libc.a(lib_a-memchr.o)
 .debug_loc     0x000000000000193a      0x266 c:/intelfpga/16.1/nios2eds/bin/gnu/h-x86_64-mingw32/bin/../lib/gcc/nios2-elf/5.3.0/../../../../../H-x86_64-mingw32/nios2-elf/lib\libc.a(lib_a-memcpy.o)
 .debug_loc     0x0000000000001ba0      0x308 c:/intelfpga/16.1/nios2eds/bin/gnu/h-x86_64-mingw32/bin/../lib/gcc/nios2-elf/5.3.0/../../../../../H-x86_64-mingw32/nios2-elf/lib\libc.a(lib_a-memmove.o)
 .debug_loc     0x0000000000001ea8      0x1a6 c:/intelfpga/16.1/nios2eds/bin/gnu/h-x86_64-mingw32/bin/../lib/gcc/nios2-elf/5.3.0/../../../../../H-x86_64-mingw32/nios2-elf/lib\libc.a(lib_a-memset.o)
 .debug_loc     0x000000000000204e      0xde4 c:/intelfpga/16.1/nios2eds/bin/gnu/h-x86_64-mingw32/bin/../lib/gcc/nios2-elf/5.3.0/../../../../../H-x86_64-mingw32/nios2-elf/lib\libc.a(lib_a-reallocr.o)
 .debug_loc     0x0000000000002e32       0x58 c:/intelfpga/16.1/nios2eds/bin/gnu/h-x86_64-mingw32/bin/../lib/gcc/nios2-elf/5.3.0/../../../../../H-x86_64-mingw32/nios2-elf/lib\libc.a(lib_a-sbrkr.o)
 .debug_loc     0x0000000000002e8a      0x33a c:/intelfpga/16.1/nios2eds/bin/gnu/h-x86_64-mingw32/bin/../lib/gcc/nios2-elf/5.3.0/../../../../../H-x86_64-mingw32/nios2-elf/lib\libc.a(lib_a-stdio.o)
 .debug_loc     0x00000000000031c4       0xb0 c:/intelfpga/16.1/nios2eds/bin/gnu/h-x86_64-mingw32/bin/../lib/gcc/nios2-elf/5.3.0/../../../../../H-x86_64-mingw32/nios2-elf/lib\libc.a(lib_a-writer.o)
 .debug_loc     0x0000000000003274       0xa2 c:/intelfpga/16.1/nios2eds/bin/gnu/h-x86_64-mingw32/bin/../lib/gcc/nios2-elf/5.3.0/../../../../../H-x86_64-mingw32/nios2-elf/lib\libc.a(lib_a-wsetup.o)
 .debug_loc     0x0000000000003316       0x58 c:/intelfpga/16.1/nios2eds/bin/gnu/h-x86_64-mingw32/bin/../lib/gcc/nios2-elf/5.3.0/../../../../../H-x86_64-mingw32/nios2-elf/lib\libc.a(closer.o)
 .debug_loc     0x000000000000336e      0x199 c:/intelfpga/16.1/nios2eds/bin/gnu/h-x86_64-mingw32/bin/../lib/gcc/nios2-elf/5.3.0/../../../../../H-x86_64-mingw32/nios2-elf/lib\libc.a(lib_a-fclose.o)
 .debug_loc     0x0000000000003507      0x36f c:/intelfpga/16.1/nios2eds/bin/gnu/h-x86_64-mingw32/bin/../lib/gcc/nios2-elf/5.3.0/../../../../../H-x86_64-mingw32/nios2-elf/lib\libc.a(lib_a-fflush.o)
 .debug_loc     0x0000000000003876      0x4e7 c:/intelfpga/16.1/nios2eds/bin/gnu/h-x86_64-mingw32/bin/../lib/gcc/nios2-elf/5.3.0/../../../../../H-x86_64-mingw32/nios2-elf/lib\libc.a(lib_a-freer.o)
 .debug_loc     0x0000000000003d5d       0xb0 c:/intelfpga/16.1/nios2eds/bin/gnu/h-x86_64-mingw32/bin/../lib/gcc/nios2-elf/5.3.0/../../../../../H-x86_64-mingw32/nios2-elf/lib\libc.a(lib_a-lseekr.o)
 .debug_loc     0x0000000000003e0d      0x122 c:/intelfpga/16.1/nios2eds/bin/gnu/h-x86_64-mingw32/bin/../lib/gcc/nios2-elf/5.3.0/../../../../../H-x86_64-mingw32/nios2-elf/lib\libc.a(lib_a-makebuf.o)
 .debug_loc     0x0000000000003f2f       0xb0 c:/intelfpga/16.1/nios2eds/bin/gnu/h-x86_64-mingw32/bin/../lib/gcc/nios2-elf/5.3.0/../../../../../H-x86_64-mingw32/nios2-elf/lib\libc.a(lib_a-readr.o)
 .debug_loc     0x0000000000003fdf       0x84 c:/intelfpga/16.1/nios2eds/bin/gnu/h-x86_64-mingw32/bin/../lib/gcc/nios2-elf/5.3.0/../../../../../H-x86_64-mingw32/nios2-elf/lib\libc.a(lib_a-fstatr.o)
 .debug_loc     0x0000000000004063       0x58 c:/intelfpga/16.1/nios2eds/bin/gnu/h-x86_64-mingw32/bin/../lib/gcc/nios2-elf/5.3.0/../../../../../H-x86_64-mingw32/nios2-elf/lib\libc.a(lib_a-isattyr.o)
 .debug_loc     0x00000000000040bb      0x4ce c:/intelfpga/16.1/nios2eds/bin/gnu/h-x86_64-mingw32/bin/../lib/gcc/nios2-elf/5.3.0\libgcc.a(lib2-divmod.o)
 .debug_loc     0x0000000000004589       0x2c c:/intelfpga/16.1/nios2eds/bin/gnu/h-x86_64-mingw32/bin/../lib/gcc/nios2-elf/5.3.0/../../../../../H-x86_64-mingw32/nios2-elf/lib\libc.a(lib_a-atexit.o)
 .debug_loc     0x00000000000045b5       0x1e c:/intelfpga/16.1/nios2eds/bin/gnu/h-x86_64-mingw32/bin/../lib/gcc/nios2-elf/5.3.0/../../../../../H-x86_64-mingw32/nios2-elf/lib\libc.a(lib_a-exit.o)
 .debug_loc     0x00000000000045d3      0x126 c:/intelfpga/16.1/nios2eds/bin/gnu/h-x86_64-mingw32/bin/../lib/gcc/nios2-elf/5.3.0/../../../../../H-x86_64-mingw32/nios2-elf/lib\libc.a(lib_a-memcmp.o)
 .debug_loc     0x00000000000046f9      0x185 c:/intelfpga/16.1/nios2eds/bin/gnu/h-x86_64-mingw32/bin/../lib/gcc/nios2-elf/5.3.0/../../../../../H-x86_64-mingw32/nios2-elf/lib\libc.a(lib_a-__atexit.o)
 .debug_loc     0x000000000000487e      0x1ce c:/intelfpga/16.1/nios2eds/bin/gnu/h-x86_64-mingw32/bin/../lib/gcc/nios2-elf/5.3.0/../../../../../H-x86_64-mingw32/nios2-elf/lib\libc.a(lib_a-__call_atexit.o)

.debug_macinfo
 *(.debug_macinfo)

.debug_weaknames
 *(.debug_weaknames)

.debug_funcnames
 *(.debug_funcnames)

.debug_typenames
 *(.debug_typenames)

.debug_varnames
 *(.debug_varnames)

.debug_alt_sim_info
                0x0000000000000000       0x60
 *(.debug_alt_sim_info)
 .debug_alt_sim_info
                0x0000000000000000       0x30 ../heart_beets_bsp//obj/HAL/src/crt0.o
 .debug_alt_sim_info
                0x0000000000000030       0x30 ../heart_beets_bsp/\libhal_bsp.a(alt_busy_sleep.o)
                0x0000000001000000                __alt_data_end = 0x1000000
                0x0000000001000000                PROVIDE (__alt_stack_pointer, __alt_data_end)
                [!provide]                        PROVIDE (__alt_stack_limit, __alt_stack_base)
                0x000000000080dd8c                PROVIDE (__alt_heap_start, end)
                0x0000000001000000                PROVIDE (__alt_heap_limit, 0x1000000)
OUTPUT(heart_beets.elf elf32-littlenios2)

.debug_ranges   0x0000000000000000      0x698
 .debug_ranges  0x0000000000000000       0x20 ../heart_beets_bsp//obj/HAL/src/crt0.o
 .debug_ranges  0x0000000000000020       0x30 c:/intelfpga/16.1/nios2eds/bin/gnu/h-x86_64-mingw32/bin/../lib/gcc/nios2-elf/5.3.0/../../../../../H-x86_64-mingw32/nios2-elf/lib\libc.a(lib_a-puts.o)
 .debug_ranges  0x0000000000000050       0x10 c:/intelfpga/16.1/nios2eds/bin/gnu/h-x86_64-mingw32/bin/../lib/gcc/nios2-elf/5.3.0/../../../../../H-x86_64-mingw32/nios2-elf/lib\libc.a(lib_a-strlen.o)
 .debug_ranges  0x0000000000000060       0xc8 c:/intelfpga/16.1/nios2eds/bin/gnu/h-x86_64-mingw32/bin/../lib/gcc/nios2-elf/5.3.0/../../../../../H-x86_64-mingw32/nios2-elf/lib\libc.a(lib_a-findfp.o)
 .debug_ranges  0x0000000000000128       0x30 c:/intelfpga/16.1/nios2eds/bin/gnu/h-x86_64-mingw32/bin/../lib/gcc/nios2-elf/5.3.0/../../../../../H-x86_64-mingw32/nios2-elf/lib\libc.a(lib_a-fvwrite.o)
 .debug_ranges  0x0000000000000158       0x18 c:/intelfpga/16.1/nios2eds/bin/gnu/h-x86_64-mingw32/bin/../lib/gcc/nios2-elf/5.3.0/../../../../../H-x86_64-mingw32/nios2-elf/lib\libc.a(lib_a-fwalk.o)
 .debug_ranges  0x0000000000000170       0x48 c:/intelfpga/16.1/nios2eds/bin/gnu/h-x86_64-mingw32/bin/../lib/gcc/nios2-elf/5.3.0/../../../../../H-x86_64-mingw32/nios2-elf/lib\libc.a(lib_a-mallocr.o)
 .debug_ranges  0x00000000000001b8       0x10 c:/intelfpga/16.1/nios2eds/bin/gnu/h-x86_64-mingw32/bin/../lib/gcc/nios2-elf/5.3.0/../../../../../H-x86_64-mingw32/nios2-elf/lib\libc.a(lib_a-memchr.o)
 .debug_ranges  0x00000000000001c8       0x10 c:/intelfpga/16.1/nios2eds/bin/gnu/h-x86_64-mingw32/bin/../lib/gcc/nios2-elf/5.3.0/../../../../../H-x86_64-mingw32/nios2-elf/lib\libc.a(lib_a-memcpy.o)
 .debug_ranges  0x00000000000001d8       0x10 c:/intelfpga/16.1/nios2eds/bin/gnu/h-x86_64-mingw32/bin/../lib/gcc/nios2-elf/5.3.0/../../../../../H-x86_64-mingw32/nios2-elf/lib\libc.a(lib_a-memmove.o)
 .debug_ranges  0x00000000000001e8       0x10 c:/intelfpga/16.1/nios2eds/bin/gnu/h-x86_64-mingw32/bin/../lib/gcc/nios2-elf/5.3.0/../../../../../H-x86_64-mingw32/nios2-elf/lib\libc.a(lib_a-memset.o)
 .debug_ranges  0x00000000000001f8      0x148 c:/intelfpga/16.1/nios2eds/bin/gnu/h-x86_64-mingw32/bin/../lib/gcc/nios2-elf/5.3.0/../../../../../H-x86_64-mingw32/nios2-elf/lib\libc.a(lib_a-reallocr.o)
 .debug_ranges  0x0000000000000340       0x10 c:/intelfpga/16.1/nios2eds/bin/gnu/h-x86_64-mingw32/bin/../lib/gcc/nios2-elf/5.3.0/../../../../../H-x86_64-mingw32/nios2-elf/lib\libc.a(lib_a-sbrkr.o)
 .debug_ranges  0x0000000000000350       0x30 c:/intelfpga/16.1/nios2eds/bin/gnu/h-x86_64-mingw32/bin/../lib/gcc/nios2-elf/5.3.0/../../../../../H-x86_64-mingw32/nios2-elf/lib\libc.a(lib_a-stdio.o)
 .debug_ranges  0x0000000000000380       0x10 c:/intelfpga/16.1/nios2eds/bin/gnu/h-x86_64-mingw32/bin/../lib/gcc/nios2-elf/5.3.0/../../../../../H-x86_64-mingw32/nios2-elf/lib\libc.a(lib_a-writer.o)
 .debug_ranges  0x0000000000000390       0x40 c:/intelfpga/16.1/nios2eds/bin/gnu/h-x86_64-mingw32/bin/../lib/gcc/nios2-elf/5.3.0/../../../../../H-x86_64-mingw32/nios2-elf/lib\libc.a(lib_a-wsetup.o)
 .debug_ranges  0x00000000000003d0       0x10 c:/intelfpga/16.1/nios2eds/bin/gnu/h-x86_64-mingw32/bin/../lib/gcc/nios2-elf/5.3.0/../../../../../H-x86_64-mingw32/nios2-elf/lib\libc.a(closer.o)
 .debug_ranges  0x00000000000003e0       0x48 c:/intelfpga/16.1/nios2eds/bin/gnu/h-x86_64-mingw32/bin/../lib/gcc/nios2-elf/5.3.0/../../../../../H-x86_64-mingw32/nios2-elf/lib\libc.a(lib_a-fclose.o)
 .debug_ranges  0x0000000000000428       0x58 c:/intelfpga/16.1/nios2eds/bin/gnu/h-x86_64-mingw32/bin/../lib/gcc/nios2-elf/5.3.0/../../../../../H-x86_64-mingw32/nios2-elf/lib\libc.a(lib_a-fflush.o)
 .debug_ranges  0x0000000000000480       0x18 c:/intelfpga/16.1/nios2eds/bin/gnu/h-x86_64-mingw32/bin/../lib/gcc/nios2-elf/5.3.0/../../../../../H-x86_64-mingw32/nios2-elf/lib\libc.a(lib_a-freer.o)
 .debug_ranges  0x0000000000000498       0x10 c:/intelfpga/16.1/nios2eds/bin/gnu/h-x86_64-mingw32/bin/../lib/gcc/nios2-elf/5.3.0/../../../../../H-x86_64-mingw32/nios2-elf/lib\libc.a(lib_a-lseekr.o)
 .debug_ranges  0x00000000000004a8       0x10 c:/intelfpga/16.1/nios2eds/bin/gnu/h-x86_64-mingw32/bin/../lib/gcc/nios2-elf/5.3.0/../../../../../H-x86_64-mingw32/nios2-elf/lib\libc.a(lib_a-makebuf.o)
 .debug_ranges  0x00000000000004b8       0x10 c:/intelfpga/16.1/nios2eds/bin/gnu/h-x86_64-mingw32/bin/../lib/gcc/nios2-elf/5.3.0/../../../../../H-x86_64-mingw32/nios2-elf/lib\libc.a(lib_a-readr.o)
 .debug_ranges  0x00000000000004c8       0x10 c:/intelfpga/16.1/nios2eds/bin/gnu/h-x86_64-mingw32/bin/../lib/gcc/nios2-elf/5.3.0/../../../../../H-x86_64-mingw32/nios2-elf/lib\libc.a(lib_a-fstatr.o)
 .debug_ranges  0x00000000000004d8       0x10 c:/intelfpga/16.1/nios2eds/bin/gnu/h-x86_64-mingw32/bin/../lib/gcc/nios2-elf/5.3.0/../../../../../H-x86_64-mingw32/nios2-elf/lib\libc.a(lib_a-isattyr.o)
 .debug_ranges  0x00000000000004e8       0x60 c:/intelfpga/16.1/nios2eds/bin/gnu/h-x86_64-mingw32/bin/../lib/gcc/nios2-elf/5.3.0\libgcc.a(lib2-divmod.o)
 .debug_ranges  0x0000000000000548       0x30 ../heart_beets_bsp/\libhal_bsp.a(altera_avalon_jtag_uart_init.o)
 .debug_ranges  0x0000000000000578       0x18 ../heart_beets_bsp/\libhal_bsp.a(altera_avalon_jtag_uart_read.o)
 .debug_ranges  0x0000000000000590       0x18 ../heart_beets_bsp/\libhal_bsp.a(altera_avalon_lcd_16207.o)
 .debug_ranges  0x00000000000005a8       0x28 ../heart_beets_bsp/\libhal_bsp.a(alt_irq_entry.o)
 .debug_ranges  0x00000000000005d0       0x10 ../heart_beets_bsp/\libhal_bsp.a(alt_irq_handler.o)
 .debug_ranges  0x00000000000005e0       0x30 ../heart_beets_bsp/\libhal_bsp.a(alt_exception_entry.o)
 .debug_ranges  0x0000000000000610       0x18 ../heart_beets_bsp/\libhal_bsp.a(alt_instruction_exception_entry.o)
 .debug_ranges  0x0000000000000628       0x10 c:/intelfpga/16.1/nios2eds/bin/gnu/h-x86_64-mingw32/bin/../lib/gcc/nios2-elf/5.3.0/../../../../../H-x86_64-mingw32/nios2-elf/lib\libc.a(lib_a-atexit.o)
 .debug_ranges  0x0000000000000638       0x10 c:/intelfpga/16.1/nios2eds/bin/gnu/h-x86_64-mingw32/bin/../lib/gcc/nios2-elf/5.3.0/../../../../../H-x86_64-mingw32/nios2-elf/lib\libc.a(lib_a-exit.o)
 .debug_ranges  0x0000000000000648       0x10 c:/intelfpga/16.1/nios2eds/bin/gnu/h-x86_64-mingw32/bin/../lib/gcc/nios2-elf/5.3.0/../../../../../H-x86_64-mingw32/nios2-elf/lib\libc.a(lib_a-memcmp.o)
 .debug_ranges  0x0000000000000658       0x10 c:/intelfpga/16.1/nios2eds/bin/gnu/h-x86_64-mingw32/bin/../lib/gcc/nios2-elf/5.3.0/../../../../../H-x86_64-mingw32/nios2-elf/lib\libc.a(lib_a-__atexit.o)
 .debug_ranges  0x0000000000000668       0x30 c:/intelfpga/16.1/nios2eds/bin/gnu/h-x86_64-mingw32/bin/../lib/gcc/nios2-elf/5.3.0/../../../../../H-x86_64-mingw32/nios2-elf/lib\libc.a(lib_a-__call_atexit.o)
