
heart_beets.elf:     file format elf32-littlenios2
heart_beets.elf
architecture: nios2:r1, flags 0x00000112:
EXEC_P, HAS_SYMS, D_PAGED
start address 0x00800244

Program Header:
    LOAD off    0x00001000 vaddr 0x00800000 paddr 0x00800000 align 2**12
         filesz 0x00000020 memsz 0x00000020 flags r-x
    LOAD off    0x00001020 vaddr 0x00800020 paddr 0x00800020 align 2**12
         filesz 0x0000a184 memsz 0x0000a184 flags r-x
    LOAD off    0x0000b1a4 vaddr 0x0080a1a4 paddr 0x0080bdfc align 2**12
         filesz 0x00001c58 memsz 0x00001c58 flags rw-
    LOAD off    0x0000da54 vaddr 0x0080da54 paddr 0x0080da54 align 2**12
         filesz 0x00000000 memsz 0x00000378 flags rw-

Sections:
Idx Name          Size      VMA       LMA       File off  Algn
  0 .entry        00000020  00800000  00800000  00001000  2**5
                  CONTENTS, ALLOC, LOAD, READONLY, CODE
  1 .exceptions   00000224  00800020  00800020  00001020  2**2
                  CONTENTS, ALLOC, LOAD, READONLY, CODE
  2 .text         00009c0c  00800244  00800244  00001244  2**2
                  CONTENTS, ALLOC, LOAD, READONLY, CODE
  3 .rodata       00000354  00809e50  00809e50  0000ae50  2**2
                  CONTENTS, ALLOC, LOAD, READONLY, DATA
  4 .rwdata       00001c58  0080a1a4  0080bdfc  0000b1a4  2**2
                  CONTENTS, ALLOC, LOAD, DATA, SMALL_DATA
  5 .bss          00000378  0080da54  0080da54  0000da54  2**2
                  ALLOC, SMALL_DATA
  6 .sdram        00000000  0080ddcc  0080ddcc  0000cdfc  2**0
                  CONTENTS
  7 .onchip_mem   00000000  01080000  01080000  0000cdfc  2**0
                  CONTENTS
  8 .comment      00000023  00000000  00000000  0000cdfc  2**0
                  CONTENTS, READONLY
  9 .debug_aranges 00000b68  00000000  00000000  0000ce20  2**3
                  CONTENTS, READONLY, DEBUGGING
 10 .debug_info   00019b7b  00000000  00000000  0000d988  2**0
                  CONTENTS, READONLY, DEBUGGING
 11 .debug_abbrev 00006bc1  00000000  00000000  00027503  2**0
                  CONTENTS, READONLY, DEBUGGING
 12 .debug_line   00008657  00000000  00000000  0002e0c4  2**0
                  CONTENTS, READONLY, DEBUGGING
 13 .debug_frame  00001bcc  00000000  00000000  0003671c  2**2
                  CONTENTS, READONLY, DEBUGGING
 14 .debug_str    0000351f  00000000  00000000  000382e8  2**0
                  CONTENTS, READONLY, DEBUGGING
 15 .debug_loc    00004a4c  00000000  00000000  0003b807  2**0
                  CONTENTS, READONLY, DEBUGGING
 16 .debug_alt_sim_info 00000060  00000000  00000000  00040254  2**2
                  CONTENTS, READONLY, DEBUGGING
 17 .debug_ranges 00000698  00000000  00000000  000402b8  2**3
                  CONTENTS, READONLY, DEBUGGING
 18 .thread_model 00000003  00000000  00000000  00045125  2**0
                  CONTENTS, READONLY
 19 .cpu          00000003  00000000  00000000  00045128  2**0
                  CONTENTS, READONLY
 20 .qsys         00000001  00000000  00000000  0004512b  2**0
                  CONTENTS, READONLY
 21 .simulation_enabled 00000001  00000000  00000000  0004512c  2**0
                  CONTENTS, READONLY
 22 .sysid_hash   00000004  00000000  00000000  0004512d  2**0
                  CONTENTS, READONLY
 23 .sysid_base   00000004  00000000  00000000  00045131  2**0
                  CONTENTS, READONLY
 24 .sysid_time   00000004  00000000  00000000  00045135  2**0
                  CONTENTS, READONLY
 25 .stderr_dev   00000009  00000000  00000000  00045139  2**0
                  CONTENTS, READONLY
 26 .stdin_dev    00000009  00000000  00000000  00045142  2**0
                  CONTENTS, READONLY
 27 .stdout_dev   00000009  00000000  00000000  0004514b  2**0
                  CONTENTS, READONLY
 28 .sopc_system_name 0000000c  00000000  00000000  00045154  2**0
                  CONTENTS, READONLY
 29 .quartus_project_dir 0000002e  00000000  00000000  00045160  2**0
                  CONTENTS, READONLY
 30 .sopcinfo     0006ef27  00000000  00000000  0004518e  2**0
                  CONTENTS, READONLY
SYMBOL TABLE:
00800000 l    d  .entry	00000000 .entry
00800020 l    d  .exceptions	00000000 .exceptions
00800244 l    d  .text	00000000 .text
00809e50 l    d  .rodata	00000000 .rodata
0080a1a4 l    d  .rwdata	00000000 .rwdata
0080da54 l    d  .bss	00000000 .bss
0080ddcc l    d  .sdram	00000000 .sdram
01080000 l    d  .onchip_mem	00000000 .onchip_mem
00000000 l    d  .comment	00000000 .comment
00000000 l    d  .debug_aranges	00000000 .debug_aranges
00000000 l    d  .debug_info	00000000 .debug_info
00000000 l    d  .debug_abbrev	00000000 .debug_abbrev
00000000 l    d  .debug_line	00000000 .debug_line
00000000 l    d  .debug_frame	00000000 .debug_frame
00000000 l    d  .debug_str	00000000 .debug_str
00000000 l    d  .debug_loc	00000000 .debug_loc
00000000 l    d  .debug_alt_sim_info	00000000 .debug_alt_sim_info
00000000 l    d  .debug_ranges	00000000 .debug_ranges
00000000 l    df *ABS*	00000000 ../heart_beets_bsp//obj/HAL/src/crt0.o
0080028c l       .text	00000000 alt_after_alt_main
00000000 l    df *ABS*	00000000 alt_irq_handler.c
00000000 l    df *ABS*	00000000 alt_instruction_exception_entry.c
00000000 l    df *ABS*	00000000 hello_world.c
00000000 l    df *ABS*	00000000 pacemaker.c
00000000 l    df *ABS*	00000000 puts.c
00000000 l    df *ABS*	00000000 strlen.c
00000000 l    df *ABS*	00000000 findfp.c
008030d0 l     F .text	00000008 __fp_unlock
008030e4 l     F .text	0000019c __sinit.part.1
00803280 l     F .text	00000008 __fp_lock
00000000 l    df *ABS*	00000000 fvwrite.c
00000000 l    df *ABS*	00000000 fwalk.c
00000000 l    df *ABS*	00000000 impure.c
0080a1a4 l     O .rwdata	00000424 impure_data
00000000 l    df *ABS*	00000000 mallocr.c
00000000 l    df *ABS*	00000000 memchr.c
00000000 l    df *ABS*	00000000 memcpy.c
00000000 l    df *ABS*	00000000 memmove.c
00000000 l    df *ABS*	00000000 memset.c
00000000 l    df *ABS*	00000000 mallocr.c
00000000 l    df *ABS*	00000000 sbrkr.c
00000000 l    df *ABS*	00000000 stdio.c
00000000 l    df *ABS*	00000000 writer.c
00000000 l    df *ABS*	00000000 wsetup.c
00000000 l    df *ABS*	00000000 closer.c
00000000 l    df *ABS*	00000000 fclose.c
00000000 l    df *ABS*	00000000 fflush.c
00000000 l    df *ABS*	00000000 mallocr.c
00000000 l    df *ABS*	00000000 int_errno.c
00000000 l    df *ABS*	00000000 lseekr.c
00000000 l    df *ABS*	00000000 makebuf.c
00000000 l    df *ABS*	00000000 readr.c
00000000 l    df *ABS*	00000000 fstatr.c
00000000 l    df *ABS*	00000000 isattyr.c
00000000 l    df *ABS*	00000000 lib2-divmod.c
00000000 l    df *ABS*	00000000 alt_alarm_start.c
00000000 l    df *ABS*	00000000 alt_close.c
00805e58 l     F .text	0000003c alt_get_errno
00000000 l    df *ABS*	00000000 alt_dev.c
00805f64 l     F .text	0000002c alt_dev_null_write
00000000 l    df *ABS*	00000000 alt_errno.c
00000000 l    df *ABS*	00000000 alt_fstat.c
00805f90 l     F .text	0000003c alt_get_errno
00000000 l    df *ABS*	00000000 alt_isatty.c
0080607c l     F .text	0000003c alt_get_errno
00000000 l    df *ABS*	00000000 alt_load.c
0080615c l     F .text	00000068 alt_load_section
00000000 l    df *ABS*	00000000 alt_lseek.c
00806248 l     F .text	0000003c alt_get_errno
00000000 l    df *ABS*	00000000 alt_main.c
00000000 l    df *ABS*	00000000 alt_malloc_lock.c
00000000 l    df *ABS*	00000000 alt_read.c
0080641c l     F .text	0000003c alt_get_errno
00000000 l    df *ABS*	00000000 alt_release_fd.c
00000000 l    df *ABS*	00000000 alt_sbrk.c
0080bde4 l     O .rwdata	00000004 heap_end
00000000 l    df *ABS*	00000000 alt_tick.c
00000000 l    df *ABS*	00000000 alt_write.c
0080680c l     F .text	0000003c alt_get_errno
00000000 l    df *ABS*	00000000 alt_sys_init.c
00806940 l     F .text	00000034 alt_dev_reg
0080ab78 l     O .rwdata	00001060 jtag_uart
0080bbd8 l     O .rwdata	00000120 lcd
0080bcf8 l     O .rwdata	000000c4 uart
00000000 l    df *ABS*	00000000 altera_avalon_jtag_uart_fd.c
00000000 l    df *ABS*	00000000 altera_avalon_jtag_uart_init.c
00806c6c l     F .text	0000020c altera_avalon_jtag_uart_irq
00806e78 l     F .text	000000a0 altera_avalon_jtag_uart_timeout
00000000 l    df *ABS*	00000000 altera_avalon_jtag_uart_ioctl.c
00000000 l    df *ABS*	00000000 altera_avalon_jtag_uart_read.c
00000000 l    df *ABS*	00000000 altera_avalon_jtag_uart_write.c
00000000 l    df *ABS*	00000000 altera_avalon_lcd_16207.c
0080bdf0 l     O .rwdata	00000004 colstart
008074b0 l     F .text	000000b8 lcd_write_command
00807568 l     F .text	000000d8 lcd_write_data
00807640 l     F .text	000000d0 lcd_clear_screen
00807710 l     F .text	000001ec lcd_repaint_screen
008078fc l     F .text	000000cc lcd_scroll_up
008079c8 l     F .text	000002ac lcd_handle_escape
0080814c l     F .text	000000ac alt_lcd_16207_timeout
00000000 l    df *ABS*	00000000 altera_avalon_lcd_16207_fd.c
00000000 l    df *ABS*	00000000 altera_avalon_timer_sc.c
0080838c l     F .text	00000078 alt_avalon_timer_sc_irq
00000000 l    df *ABS*	00000000 altera_avalon_uart_fd.c
00000000 l    df *ABS*	00000000 altera_avalon_uart_init.c
0080863c l     F .text	0000009c altera_avalon_uart_irq
008086d8 l     F .text	000000e4 altera_avalon_uart_rxirq
008087bc l     F .text	00000148 altera_avalon_uart_txirq
00000000 l    df *ABS*	00000000 altera_avalon_uart_read.c
00808958 l     F .text	0000003c alt_get_errno
00000000 l    df *ABS*	00000000 altera_avalon_uart_write.c
00808b70 l     F .text	0000003c alt_get_errno
00000000 l    df *ABS*	00000000 alt_dcache_flush_all.c
00000000 l    df *ABS*	00000000 alt_dev_llist_insert.c
00808da0 l     F .text	0000003c alt_get_errno
00000000 l    df *ABS*	00000000 alt_do_ctors.c
00000000 l    df *ABS*	00000000 alt_do_dtors.c
00000000 l    df *ABS*	00000000 alt_icache_flush_all.c
00000000 l    df *ABS*	00000000 alt_iic.c
00000000 l    df *ABS*	00000000 alt_iic_isr_register.c
00000000 l    df *ABS*	00000000 alt_io_redirect.c
00809214 l     F .text	000000c4 alt_open_fd
00000000 l    df *ABS*	00000000 alt_irq_vars.c
00000000 l    df *ABS*	00000000 alt_open.c
00809354 l     F .text	0000003c alt_get_errno
00809390 l     F .text	000000c4 alt_file_locked
00000000 l    df *ABS*	00000000 alt_usleep.c
00000000 l    df *ABS*	00000000 altera_nios2_gen2_irq.c
00000000 l    df *ABS*	00000000 alt_busy_sleep.c
00000000 l    df *ABS*	00000000 alt_find_dev.c
00000000 l    df *ABS*	00000000 alt_find_file.c
00000000 l    df *ABS*	00000000 alt_get_fd.c
00000000 l    df *ABS*	00000000 alt_icache_flush.c
00000000 l    df *ABS*	00000000 atexit.c
00000000 l    df *ABS*	00000000 ctype_.c
0080a023 l     O .rodata	00000180 _ctype_b
00000000 l    df *ABS*	00000000 exit.c
00000000 l    df *ABS*	00000000 memcmp.c
00000000 l    df *ABS*	00000000 __atexit.c
00000000 l    df *ABS*	00000000 __call_atexit.c
00000000 l    df *ABS*	00000000 alt_exit.c
0080da8c g     O .bss	00000001 _cg81
0080da8d g     O .bss	00000001 _cg42
0080dbe0 g     O .bss	00000004 alt_instruction_exception_handler
0080da8e g     O .bss	00000001 g83
0080da8f g     O .bss	00000001 g81b
0080da90 g     O .bss	00000001 g40
0080da91 g     O .bss	00000001 _cg99
00805b24 g     F .text	00000054 _isatty_r
0080da92 g     O .bss	00000001 g91
0080da80 g     O .bss	00000004 maskedButton1
00806358 g     F .text	0000007c alt_main
0080da93 g     O .bss	00000001 g38b
00802f64 g     F .text	000000c0 _puts_r
0080da94 g     O .bss	00000001 APace
0080dccc g     O .bss	00000100 alt_irq
0080584c g     F .text	00000060 _lseek_r
0080da95 g     O .bss	00000001 PRE_g95
0080da96 g     O .bss	00000001 g4
0080bdfc g       *ABS*	00000000 __flash_rwdata_start
0080da97 g     O .bss	00000001 g108
0080da98 g     O .bss	00000001 g19
0080da99 g     O .bss	00000001 g111
0080ddcc g       *ABS*	00000000 __alt_heap_start
008003a0 g     F .text	00000040 AEI_timer_ISR
00804e00 g     F .text	0000005c __sseek
00803420 g     F .text	00000010 __sinit
0080da9a g     O .bss	00000001 g55
0080da9b g     O .bss	00000001 _cg96
0080da9c g     O .bss	00000001 _cg59
0080da9d g     O .bss	00000001 g27
00803288 g     F .text	00000068 __sfmoreglue
008063f8 g     F .text	00000024 __malloc_unlock
0080da9e g     O .bss	00000001 g124_fix0
0080da9f g     O .bss	00000001 g112
0080daa0 g     O .bss	00000001 g87b
0080daa1 g     O .bss	00000001 g78b
0080daa2 g     O .bss	00000001 g33b
0080daa3 g     O .bss	00000001 g3
0080dc0c g     O .bss	00000018 Ventricular_timer
008044ec g     F .text	0000015c memmove
0080daa4 g     O .bss	00000001 g103
0080daa5 g     O .bss	00000001 g47
0080daa6 g     O .bss	00000001 g85
0080daa7 g     O .bss	00000001 g42
00803408 g     F .text	00000018 _cleanup
0080daa8 g     O .bss	00000001 g9
0080daa9 g     O .bss	00000001 g127
0080daaa g     O .bss	00000001 LRITO
0080daab g     O .bss	00000001 g114b
0080daac g     O .bss	00000004 _PRE_GO
0080dab0 g     O .bss	00000001 PRE_g3
0080dab1 g     O .bss	00000001 g102
008095d8 g     F .text	00000024 altera_nios2_gen2_irq_init
0080dab2 g     O .bss	00000001 PRE_g29
0080dab3 g     O .bss	00000001 g96b
0080dab4 g     O .bss	00000001 g115
0080dab5 g     O .bss	00000001 AVI_start
00800000 g     F .entry	0000001c __reset
0080dab6 g     O .bss	00000001 PRE_g121
0080dab7 g     O .bss	00000001 _cg15
0080dab8 g     O .bss	00000001 PRE_g56
00800020 g       *ABS*	00000000 __flash_exceptions_start
00805ac8 g     F .text	0000005c _fstat_r
008002b8 g     F .text	00000028 Ventricular_timer_ISR
0080dbc4 g     O .bss	00000004 errno
0080dab9 g     O .bss	00000001 PRE_g32
0080daba g     O .bss	00000001 g87
0080dabb g     O .bss	00000001 g44
00804d7c g     F .text	00000008 __seofread
0080dabc g     O .bss	00000001 g123
0080dabd g     O .bss	00000001 _cg12
0080dbcc g     O .bss	00000004 alt_argv
00813dbc g       *ABS*	00000000 _gp
008095a8 g     F .text	00000030 usleep
0080dabe g     O .bss	00000001 _cg8
0080dabf g     O .bss	00000001 _Pacemaker1_local__reg_FilteredVSense16
0080092c g     F .text	000000a8 reset
0080dac0 g     O .bss	00000001 PRE_g20
0080dac1 g     O .bss	00000001 AVI_stop
0080dac2 g     O .bss	00000001 g104b
0080dac3 g     O .bss	00000001 g92
0080dac4 g     O .bss	00000001 g1
0080dac5 g     O .bss	00000001 g61
0080a9f8 g     O .rwdata	00000180 alt_fd_list
0080dac6 g     O .bss	00000001 g71
00809754 g     F .text	00000090 alt_find_dev
008043a4 g     F .text	00000148 memcpy
0080dac7 g     O .bss	00000001 g126
008030d8 g     F .text	0000000c _cleanup_r
0080dac8 g     O .bss	00000001 g75_e7
0080dac9 g     O .bss	00000001 g82
008092d8 g     F .text	0000007c alt_io_redirect
0080daca g     O .bss	00000001 _cg33
0080dacb g     O .bss	00000001 PRE_g69
00809e50 g       *ABS*	00000000 __DTOR_END__
0080dacc g     O .bss	00000001 _cg98
0080dacd g     O .bss	00000001 g12
00803024 g     F .text	00000014 puts
00809a20 g     F .text	0000009c alt_exception_cause_generated_bad_addr
0080dace g     O .bss	00000001 g97
0080dacf g     O .bss	00000001 g52
0080dad0 g     O .bss	00000001 _cg46
00807070 g     F .text	0000021c altera_avalon_jtag_uart_read
0080dad1 g     O .bss	00000001 _cg35
0080dad2 g     O .bss	00000001 _cg74
00805c70 g     F .text	00000064 .hidden __udivsi3
008060b8 g     F .text	000000a4 isatty
0080dad3 g     O .bss	00000001 g17
0080dad4 g     O .bss	00000001 PRE_g77
0080dad5 g     O .bss	00000001 PRE_g34
0080dad6 g     O .bss	00000001 g61b
0080dad7 g     O .bss	00000001 g76
0080dad8 g     O .bss	00000001 g31
00809990 g     F .text	00000090 alt_icache_flush
0080dad9 g     O .bss	00000001 g37
00800508 g     F .text	00000150 heartLEDs
0080dbc0 g     O .bss	00000004 __malloc_top_pad
0080dada g     O .bss	00000001 g128_e2
0080dadb g     O .bss	00000001 _cg104
0080dadc g     O .bss	00000001 g62
00803470 g     F .text	000004bc __sfvwrite_r
0080dc24 g     O .bss	00000018 PVARP_timer
00804cd4 g     F .text	00000054 _sbrk_r
0080dadd g     O .bss	00000001 g84
0080dade g     O .bss	00000001 g41
0080dadf g     O .bss	00000001 _cg61
0080dae0 g     O .bss	00000001 _cg26
0080dae1 g     O .bss	00000001 g118
00805a68 g     F .text	00000060 _read_r
0080bddc g     O .rwdata	00000004 alt_max_fd
00800420 g     F .text	00000040 URI_timer_ISR
0080506c g     F .text	000000f0 _fclose_r
008053e8 g     F .text	00000030 fflush
008002e0 g     F .text	00000040 AVI_timer_ISR
0080dbbc g     O .bss	00000004 __malloc_max_sbrked_mem
0080dae2 g     O .bss	00000001 g18
0080dae3 g     O .bss	00000001 ASense
0080dc3c g     O .bss	00000018 VRP_timer
0080dae4 g     O .bss	00000001 g15b
0080dae5 g     O .bss	00000001 PRE_g53
0080dae6 g     O .bss	00000001 g132
00806284 g     F .text	000000d4 lseek
0080bdbc g     O .rwdata	00000004 _global_impure_ptr
0080dae7 g     O .bss	00000001 g48
00804770 g     F .text	00000564 _realloc_r
0080ddcc g       *ABS*	00000000 __bss_end
0080da74 g     O .bss	00000004 LED1
00809124 g     F .text	000000f0 alt_iic_isr_register
0080dae8 g     O .bss	00000001 _Pacemaker1_local_VRP_ex
00806704 g     F .text	00000108 alt_tick
0080da88 g     O .bss	00000004 button1_pressed
0080dae9 g     O .bss	00000001 g124_fix3
0080daea g     O .bss	00000001 g38
0080daeb g     O .bss	00000001 g105
00808590 g     F .text	000000ac altera_avalon_uart_init
0080daec g     O .bss	00000001 _Pacemaker1_local__pre_AVI_ex16
00803440 g     F .text	00000018 __fp_lock_all
008090d8 g     F .text	0000004c alt_ic_irq_enabled
0080daed g     O .bss	00000001 _cg21
0080dc54 g     O .bss	00000018 Atrial_timer
0080daee g     O .bss	00000001 g30b
00806668 g     F .text	0000009c alt_alarm_stop
0080dbdc g     O .bss	00000004 alt_irq_active
0080daef g     O .bss	00000001 g117
01080000 g       *ABS*	00000000 __alt_mem_onchip_mem
008000fc g     F .exceptions	000000d4 alt_irq_handler
0080a9d0 g     O .rwdata	00000028 alt_dev_null
0080daf0 g     O .bss	00000001 _cg82
00808d58 g     F .text	00000048 alt_dcache_flush_all
0080daf1 g     O .bss	00000001 _cg63
0080daf2 g     O .bss	00000001 PRE_g111
0080daf3 g     O .bss	00000001 g64
0080daf4 g     O .bss	00000001 g21
0080da84 g     O .bss	00000004 button0_pressed
0080daf5 g     O .bss	00000001 g79
0080daf6 g     O .bss	00000001 g34
0080bdfc g       *ABS*	00000000 __ram_rwdata_end
0080daf7 g     O .bss	00000001 g5
0080bdd4 g     O .rwdata	00000008 alt_dev_list
0080daf8 g     O .bss	00000001 g94
0080daf9 g     O .bss	00000001 g110
0080dafa g     O .bss	00000001 g49
00806848 g     F .text	000000f8 write
0080dafb g     O .bss	00000001 _Pacemaker1_local_PVARP_ex
0080dafc g     O .bss	00000001 g2
0080dafd g     O .bss	00000001 g7
0080dafe g     O .bss	00000001 _cg90
0080daff g     O .bss	00000001 _cg16
0080a1a4 g       *ABS*	00000000 __ram_rodata_end
00805fcc g     F .text	000000b0 fstat
0080db00 g     O .bss	00000001 g80
0080da78 g     O .bss	00000004 uiButton
00805cd4 g     F .text	00000058 .hidden __umodsi3
0080db01 g     O .bss	00000001 PRE_g80
0080db02 g     O .bss	00000001 g128
0080ddcc g       *ABS*	00000000 end
0080db03 g     O .bss	00000001 g100
00807c74 g     F .text	000004d8 altera_avalon_lcd_16207_write
0080db04 g     O .bss	00000001 g59
0080db05 g     O .bss	00000001 g99
0080db06 g     O .bss	00000001 g54
00808bac g     F .text	000001ac altera_avalon_uart_write
0080db07 g     O .bss	00000001 g66
0080db08 g     O .bss	00000001 g23
00806bac g     F .text	000000c0 altera_avalon_jtag_uart_init
008001d0 g     F .exceptions	00000074 alt_instruction_exception_entry
00809e50 g       *ABS*	00000000 __CTOR_LIST__
01000000 g       *ABS*	00000000 __alt_stack_pointer
0080db09 g     O .bss	00000001 _cg87
0080db0a g     O .bss	00000001 _cg48
0080da64 g     O .bss	00000004 LRI_timeout
0080db0b g     O .bss	00000001 g124_fix1
00808404 g     F .text	0000007c alt_avalon_timer_sc_init
008084e0 g     F .text	00000060 altera_avalon_uart_write_fd
00808540 g     F .text	00000050 altera_avalon_uart_close_fd
0080728c g     F .text	00000224 altera_avalon_jtag_uart_write
0080db0c g     O .bss	00000001 PRE_g71
00803430 g     F .text	00000004 __sfp_lock_acquire
008042c0 g     F .text	000000e4 memchr
0080db0d g     O .bss	00000001 g14
0080553c g     F .text	00000310 _free_r
0080db0e g     O .bss	00000001 _cg6
00809c9c g     F .text	00000180 __call_exitprocs
0080db0f g     O .bss	00000001 g9_e1
0080db10 g     O .bss	00000001 g101
0080db11 g     O .bss	00000001 _Pacemaker1_local_AEI_ex
0080db12 g     O .bss	00000001 g124_e1_fix_fix
0080db13 g     O .bss	00000001 _Pacemaker1_local_FilteredVSense
0080bdc4 g     O .rwdata	00000004 __malloc_sbrk_base
00800244 g     F .text	0000004c _start
0080db14 g     O .bss	00000001 g114
0080dbd4 g     O .bss	00000004 _alt_tick_rate
0080db15 g     O .bss	00000001 g56
0080db16 g     O .bss	00000001 g129
0080db17 g     O .bss	00000001 g131
0080db18 g     O .bss	00000001 VSense
0080dbd8 g     O .bss	00000004 _alt_nticks
0080db19 g     O .bss	00000001 _cg114
00806458 g     F .text	000000fc read
008069ac g     F .text	0000009c alt_sys_init
0080db1a g     O .bss	00000001 g78
0080db1b g     O .bss	00000001 g33
00809b84 g     F .text	00000118 __register_exitproc
0080da7c g     O .bss	00000004 maskedButton0
0080db1c g     O .bss	00000001 VRP_start
0080db1d g     O .bss	00000001 g123_e14
0080db1e g     O .bss	00000001 _Pacemaker1_local_LRI_stop
0080db1f g     O .bss	00000001 g122
00800360 g     F .text	00000040 VRP_timer_ISR
0080db20 g     O .bss	00000001 URI_ex
0080db21 g     O .bss	00000001 g35b
00806f18 g     F .text	00000068 altera_avalon_jtag_uart_close
0080db22 g     O .bss	00000001 _Pacemaker1_local_LRI_ex
0080db23 g     O .bss	00000001 PRE_g22
0080a1a4 g       *ABS*	00000000 __ram_rwdata_start
00809e50 g       *ABS*	00000000 __ram_rodata_start
0080dbe4 g     O .bss	00000028 __malloc_current_mallinfo
0080db24 g     O .bss	00000001 _Pacemaker1_local_FilteredASense
0080db25 g     O .bss	00000001 PRE_g126
0080db26 g     O .bss	00000001 _cg64
0080dc6c g     O .bss	00000018 AVI_timer
0080da68 g     O .bss	00000004 URI_timeout
0080dc84 g     O .bss	00000018 LRI_timer
0080db27 g     O .bss	00000001 _reg_VPace9
00806a48 g     F .text	00000060 altera_avalon_jtag_uart_read_fd
0080db28 g     O .bss	00000001 g35
008098ec g     F .text	000000a4 alt_get_fd
008095fc g     F .text	00000158 alt_busy_sleep
0080db29 g     O .bss	00000001 g15
00805018 g     F .text	00000054 _close_r
0080db2a g     O .bss	00000001 g90
0080db2b g     O .bss	00000001 g84_e8
0080db2c g     O .bss	00000001 _GO
0080db2d g     O .bss	00000001 g89b
0080db2e g     O .bss	00000001 g46b
0080db2f g     O .bss	00000001 LRI_start
00809b08 g     F .text	0000007c memcmp
0080db30 g     O .bss	00000001 URITO
00806b08 g     F .text	00000050 altera_avalon_jtag_uart_close_fd
0080db31 g     O .bss	00000001 VRPTO
0080db32 g     O .bss	00000001 PRE_g11
0080ddcc g       *ABS*	00000000 __alt_stack_base
00806b58 g     F .text	00000054 altera_avalon_jtag_uart_ioctl_fd
00804ec4 g     F .text	00000154 __swsetup_r
0080db33 g     O .bss	00000001 g43_e4
0080db34 g     O .bss	00000001 g121b
008009d4 g     F .text	00002590 tick
008032f0 g     F .text	00000118 __sfp
0080db35 g     O .bss	00000001 g27_e3
0080db36 g     O .bss	00000001 g63
0080db37 g     O .bss	00000001 g20
0080db38 g     O .bss	00000001 AVITO
0080db39 g     O .bss	00000001 g60
0080a5c8 g     O .rwdata	00000408 __malloc_av_
0080343c g     F .text	00000004 __sinit_lock_release
0080db3a g     O .bss	00000001 g115_e12
00804d28 g     F .text	00000054 __sread
0080db3b g     O .bss	00000001 g124_fix2
0080dc9c g     O .bss	00000018 AEI_timer
0080db3c g     O .bss	00000001 g23b
008097e4 g     F .text	00000108 alt_find_file
0080db3d g     O .bss	00000001 g93
00808ddc g     F .text	000000a4 alt_dev_llist_insert
008063d4 g     F .text	00000024 __malloc_lock
008065b8 g     F .text	000000b0 sbrk
0080db3e g     O .bss	00000001 g119
0080538c g     F .text	0000005c _fflush_r
0080db3f g     O .bss	00000001 PRE_g47
0080db40 g     O .bss	00000001 g21b
0080db41 g     O .bss	00000001 PRE_g97
0080da54 g       *ABS*	00000000 __bss_start
0080db42 g     O .bss	00000001 g86
0080db43 g     O .bss	00000001 g43
00804648 g     F .text	00000128 memset
0080db44 g     O .bss	00000001 _Pacemaker1_local__pre_FilteredVSense16
008008fc g     F .text	00000030 main
0080db45 g     O .bss	00000001 PRE_g113
0080dbd0 g     O .bss	00000004 alt_envp
0080dbb8 g     O .bss	00000004 __malloc_max_total_mem
0080db46 g     O .bss	00000001 PRE_g88
0080db47 g     O .bss	00000001 _Pacemaker1_local_AVI_ex
00806aa8 g     F .text	00000060 altera_avalon_jtag_uart_write_fd
0080db48 g     O .bss	00000001 g98b
0080db49 g     O .bss	00000001 PVARPTO
0080db4a g     O .bss	00000001 PRE_g14
0080db4b g     O .bss	00000001 g36
008081f8 g     F .text	00000134 altera_avalon_lcd_16207_init
0080db4c g     O .bss	00000001 g124_e1
0080dcb4 g     O .bss	00000018 URI_timer
0080db4d g     O .bss	00000001 g89
0080db4e g     O .bss	00000001 g46
00804e5c g     F .text	00000008 __sclose
01000000 g       *ABS*	00000000 __alt_heap_limit
0080515c g     F .text	00000014 fclose
0080db4f g     O .bss	00000001 VRP_stop
0080db50 g     O .bss	00000001 PVARP_start
0080db51 g     O .bss	00000001 _Pacemaker1_local__reg_AVI_ex16
0080db52 g     O .bss	00000001 _cg106
00803ab4 g     F .text	0000080c _malloc_r
0080db53 g     O .bss	00000001 g57b
0080bde0 g     O .rwdata	00000004 alt_errno
0080db54 g     O .bss	00000001 PVARP_stop
0080392c g     F .text	000000c4 _fwalk
0080db55 g     O .bss	00000001 g132_e3
0080db56 g     O .bss	00000001 g95
0080db57 g     O .bss	00000001 g50
008003e0 g     F .text	00000040 LRI_timer_ISR
0080db58 g     O .bss	00000001 g96
0080db59 g     O .bss	00000001 g51
00805b78 g     F .text	00000084 .hidden __divsi3
0080da58 g     O .bss	00000004 PVARP_timeout
00805418 g     F .text	00000124 _malloc_trim_r
0080db5a g     O .bss	00000001 PRE_g103
00809e50 g       *ABS*	00000000 __CTOR_END__
0080db5b g     O .bss	00000001 PRE_g60
0080db5c g     O .bss	00000001 _cg70
0080db5d g     O .bss	00000001 g107
00809e50 g       *ABS*	00000000 __flash_rodata_start
0080db5e g     O .bss	00000001 g113
00809e50 g       *ABS*	00000000 __DTOR_LIST__
00800320 g     F .text	00000040 PVARP_timer_ISR
0080db5f g     O .bss	00000001 _cg78
0080db60 g     O .bss	00000001 g18_e2
00806974 g     F .text	00000038 alt_irq_init
0080db61 g     O .bss	00000001 g51_e5
0080db62 g     O .bss	00000001 _cg112
00806554 g     F .text	00000064 alt_release_fd
0080db63 g     O .bss	00000001 g104
0080db64 g     O .bss	00000001 PRE_g130
0080db65 g     O .bss	00000001 g13
0080db66 g     O .bss	00000001 PRE_g86
0080db67 g     O .bss	00000001 g98
0080db68 g     O .bss	00000001 g53
0080db69 g     O .bss	00000001 g8
0080db6a g     O .bss	00000001 g57
00809abc g     F .text	00000014 atexit
0080db6b g     O .bss	00000001 AEI_start
00804e64 g     F .text	00000060 _write_r
0080da5c g     O .bss	00000004 VRP_timeout
0080db6c g     O .bss	00000001 g70
0080db6d g     O .bss	00000001 _cg66
0080da60 g     O .bss	00000004 AEI_timeout
0080db6e g     O .bss	00000001 g116
0080bdc0 g     O .rwdata	00000004 _impure_ptr
0080dbc8 g     O .bss	00000004 alt_argc
0080db6f g     O .bss	00000001 g6
00805170 g     F .text	0000021c __sflush_r
00808ee0 g     F .text	00000060 _do_dtors
0080db70 g     O .bss	00000001 g72
0080db71 g     O .bss	00000001 g81
00800020 g       .exceptions	00000000 alt_irq_entry
00803458 g     F .text	00000018 __fp_unlock_all
0080db72 g     O .bss	00000001 g124
0080db73 g     O .bss	00000001 _cg108
0080832c g     F .text	00000060 altera_avalon_lcd_16207_write_fd
0080bdcc g     O .rwdata	00000008 alt_fs_list
0080db74 g     O .bss	00000001 g119_e13
0080db75 g     O .bss	00000001 g0
0080db76 g     O .bss	00000001 _cg89
00800460 g     F .text	000000a8 pollButtons
0080db77 g     O .bss	00000001 _cg54
0080da6c g     O .bss	00000004 LEDbits
0080db78 g     O .bss	00000001 g75
0080db79 g     O .bss	00000001 g30
00800020 g       *ABS*	00000000 __ram_exceptions_start
0080db7a g     O .bss	00000001 _cg40
0080db7b g     O .bss	00000001 g67_e6
0080db7c g     O .bss	00000001 _cg30
0080db7d g     O .bss	00000001 g16
0080db7e g     O .bss	00000001 g70b
0080db7f g     O .bss	00000001 _cg24
00808f74 g     F .text	00000050 alt_ic_isr_register
0080db80 g     O .bss	00000001 g58
0080db81 g     O .bss	00000001 _cg57
0080db82 g     O .bss	00000001 g68
0080db83 g     O .bss	00000001 g25
0080db84 g     O .bss	00000001 g124_fix4
0080bdfc g       *ABS*	00000000 _edata
00808480 g     F .text	00000060 altera_avalon_uart_read_fd
0080ddcc g       *ABS*	00000000 _end
0080db85 g     O .bss	00000001 g11
00800244 g       *ABS*	00000000 __ram_exceptions_end
00806f80 g     F .text	000000f0 altera_avalon_jtag_uart_ioctl
0080db86 g     O .bss	00000001 g65
0080db87 g     O .bss	00000001 g22
0080db88 g     O .bss	00000001 g28
0080db89 g     O .bss	00000001 g73
0080db8a g     O .bss	00000001 g54b
0080904c g     F .text	0000008c alt_ic_irq_disable
0080db8b g     O .bss	00000001 g93_e9
00804d84 g     F .text	0000007c __swrite
0080bdc8 g     O .rwdata	00000004 __malloc_trim_threshold
00809ad0 g     F .text	00000038 exit
0080db8c g     O .bss	00000001 g125
0080db8d g     O .bss	00000001 g124_e1_fix
008039f0 g     F .text	000000c4 _fwalk_reent
0080db8e g     O .bss	00000001 g77
0080db8f g     O .bss	00000001 g32
00805bfc g     F .text	00000074 .hidden __modsi3
0080bdf8 g     O .rwdata	00000004 __ctype_ptr__
0080db90 g     O .bss	00000001 g88
0080db91 g     O .bss	00000001 g45
01000000 g       *ABS*	00000000 __alt_data_end
00800020 g     F .exceptions	00000000 alt_exception
00803434 g     F .text	00000004 __sfp_lock_release
0080db92 g     O .bss	00000001 _cg23
00800000 g       *ABS*	00000000 __alt_mem_sdram
0080db93 g     O .bss	00000001 g101_e10
0080db94 g     O .bss	00000001 _cg92
0080db95 g     O .bss	00000001 PRE_g45
0080db96 g     O .bss	00000001 g130
00809f22 g     O .rodata	00000101 _ctype_
0080db97 g     O .bss	00000001 PRE_g5
0080da54 g     O .bss	00000004 AVI_timeout
00808904 g     F .text	00000054 altera_avalon_uart_close
00809e1c g     F .text	00000034 _exit
00805d2c g     F .text	0000012c alt_alarm_start
0080db98 g     O .bss	00000001 g121
00800658 g     F .text	000002a4 startTimers
008058ac g     F .text	000001bc __smakebuf_r
0080db99 g     O .bss	00000001 VPace
0080db9a g     O .bss	00000001 g12b
00803038 g     F .text	00000098 strlen
0080db9b g     O .bss	00000001 g39
00809454 g     F .text	00000154 open
0080db9c g     O .bss	00000001 _cg49
0080db9d g     O .bss	00000001 g120
0080db9e g     O .bss	00000001 PRE_g105
00808f40 g     F .text	00000034 alt_icache_flush_all
0080db9f g     O .bss	00000001 g29
0080dba0 g     O .bss	00000001 _cg4
0080dba1 g     O .bss	00000001 g67
0080dba2 g     O .bss	00000001 g24
0080dba3 g     O .bss	00000001 g133
0080dba4 g     O .bss	00000001 g112b
0080dba5 g     O .bss	00000001 AEI_stop
0080bdf4 g     O .rwdata	00000004 alt_priority_mask
0080dba6 g     O .bss	00000001 g109
00800290 g     F .text	00000028 Atrial_timer_ISR
00808fc4 g     F .text	00000088 alt_ic_irq_enable
0080da70 g     O .bss	00000004 LED0
00808994 g     F .text	000001dc altera_avalon_uart_read
0080dba7 g     O .bss	00000001 _pre_VPace9
0080dba8 g     O .bss	00000001 URI_start
0080dba9 g     O .bss	00000001 g4b
0080dbaa g     O .bss	00000001 g106
0080dbab g     O .bss	00000001 g10
0080bde8 g     O .rwdata	00000008 alt_alarm_list
0080dbac g     O .bss	00000001 g48b
00808e80 g     F .text	00000060 _do_ctors
0080dbad g     O .bss	00000001 PRE_g117
0080dbae g     O .bss	00000001 AEITO
0080dbaf g     O .bss	00000001 g69
0080dbb0 g     O .bss	00000001 g26
00805e94 g     F .text	000000d0 close
008061c4 g     F .text	00000084 alt_load
0080dbb1 g     O .bss	00000001 _cg72
0080dbb2 g     O .bss	00000001 _cg39
0080dbb3 g     O .bss	00000001 PRE_g37
0080dbb4 g     O .bss	00000001 g109_e11
00803438 g     F .text	00000004 __sinit_lock_acquire
0080dbb5 g     O .bss	00000001 g74



Disassembly of section .entry:

00800000 <__reset>:
#if NIOS2_ICACHE_SIZE > 0 && defined(ALT_ALLOW_CODE_AT_RESET) && (!defined(ALT_SIM_OPTIMIZE) || defined(NIOS2_ECC_PRESENT))
    /* Assume the instruction cache size is always a power of two. */
#if NIOS2_ICACHE_SIZE > 0x8000
    movhi r2, %hi(NIOS2_ICACHE_SIZE)
#else
    movui r2, NIOS2_ICACHE_SIZE
  800000:	00840014 	movui	r2,4096
#endif

0:
    initi r2
  800004:	1001483a 	initi	r2
    addi r2, r2, -NIOS2_ICACHE_LINE_SIZE
  800008:	10bff804 	addi	r2,r2,-32
    bgt r2, zero, 0b
  80000c:	00bffd16 	blt	zero,r2,800004 <__alt_mem_onchip_mem+0xff780004>
 * Jump to the _start entry point in the .text section if reset code
 * is allowed or if optimizing for RTL simulation.
 */
#if defined(ALT_ALLOW_CODE_AT_RESET) || defined(ALT_SIM_OPTIMIZE)
    /* Jump to the _start entry point in the .text section. */
    movhi r1, %hi(_start)
  800010:	00402034 	movhi	at,128
    ori r1, r1, %lo(_start)
  800014:	08409114 	ori	at,at,580
    jmp r1
  800018:	0800683a 	jmp	at
  80001c:	00000000 	call	0 <__reset-0x800000>

Disassembly of section .exceptions:

00800020 <alt_exception>:

#else /* ALT_EXCEPTION_STACK disabled */
        /* 
         * Reserve space on normal stack for registers about to be pushed.
         */
        addi  sp, sp, -76
  800020:	deffed04 	addi	sp,sp,-76
         * documentation for details).
         *
         * Leave a gap in the stack frame at 4(sp) for the muldiv handler to
         * store zero into.
         */
        stw   ra,  0(sp)
  800024:	dfc00015 	stw	ra,0(sp)
        stw   r1,   8(sp)
  800028:	d8400215 	stw	at,8(sp)
        stw   r2,  12(sp)
  80002c:	d8800315 	stw	r2,12(sp)
        stw   r3,  16(sp)
  800030:	d8c00415 	stw	r3,16(sp)
        stw   r4,  20(sp)
  800034:	d9000515 	stw	r4,20(sp)
        stw   r5,  24(sp)
  800038:	d9400615 	stw	r5,24(sp)
        stw   r6,  28(sp)
  80003c:	d9800715 	stw	r6,28(sp)
        stw   r7,  32(sp)
  800040:	d9c00815 	stw	r7,32(sp)
        rdctl r5, estatus   /* Read early to avoid usage stall */
  800044:	000b307a 	rdctl	r5,estatus
        stw   r8,  36(sp)
  800048:	da000915 	stw	r8,36(sp)
        stw   r9,  40(sp)
  80004c:	da400a15 	stw	r9,40(sp)
        stw   r10, 44(sp)
  800050:	da800b15 	stw	r10,44(sp)
        stw   r11, 48(sp)
  800054:	dac00c15 	stw	r11,48(sp)
        stw   r12, 52(sp)
  800058:	db000d15 	stw	r12,52(sp)
        stw   r13, 56(sp)
  80005c:	db400e15 	stw	r13,56(sp)
        stw   r14, 60(sp)
  800060:	db800f15 	stw	r14,60(sp)
        stw   r15, 64(sp)
  800064:	dbc01015 	stw	r15,64(sp)
        /*
         * ea-4 contains the address of the instruction being executed
         * when the exception occured. For interrupt exceptions, we will
         * will be re-issue the isntruction. Store it in 72(sp)
         */
        stw   r5,  68(sp)  /* estatus */
  800068:	d9401115 	stw	r5,68(sp)
        addi  r15, ea, -4  /* instruction that caused exception */
  80006c:	ebffff04 	addi	r15,ea,-4
        stw   r15,  72(sp)
  800070:	dbc01215 	stw	r15,72(sp)
#else
        /*
         * Test to see if the exception was a software exception or caused 
         * by an external interrupt, and vector accordingly.
         */
        rdctl r4, ipending
  800074:	0009313a 	rdctl	r4,ipending
        andi  r2, r5, 1
  800078:	2880004c 	andi	r2,r5,1
        beq   r2, zero, .Lnot_irq
  80007c:	10000326 	beq	r2,zero,80008c <alt_exception+0x6c>
        beq   r4, zero, .Lnot_irq
  800080:	20000226 	beq	r4,zero,80008c <alt_exception+0x6c>
        /*
         * Now that all necessary registers have been preserved, call 
         * alt_irq_handler() to process the interrupts.
         */

        call alt_irq_handler
  800084:	08000fc0 	call	8000fc <alt_irq_handler>

        .section .exceptions.irqreturn, "xa"

        br    .Lexception_exit
  800088:	00000706 	br	8000a8 <alt_exception+0x88>
         * upon completion, so we write ea (address of instruction *after*
         * the one where the exception occured) into 72(sp). The actual
         * instruction that caused the exception is written in r2, which these
         * handlers will utilize.
         */
        stw ea, 72(sp) /* EA is PC+4 so will skip over instruction causing exception */
  80008c:	df401215 	stw	ea,72(sp)
.Lunknown_16bit:
        addi.n r4, r4, 2 /* Need PC+2 to skip over instruction causing exception */
        stw r4, 72(sp)

#else /* CDX is not Enabled and all instructions are 32bits */
        ldw r2, -4(ea) /* Instruction value that caused exception */
  800090:	e8bfff17 	ldw	r2,-4(ea)
         * debugger is present) or go into an infinite loop since the
         * handling behavior is undefined; in that case we will not return here.
         */

        /* Load exception-causing address as first argument (r4) */
        addi   r4, ea, -4
  800094:	e93fff04 	addi	r4,ea,-4

        /* Call the instruction-exception entry */
        call   alt_instruction_exception_entry
  800098:	08001d00 	call	8001d0 <alt_instruction_exception_entry>
         * instruction
         *
         * Return code was 0: Skip. The instruction after the exception is
         * already stored in 72(sp).
         */
        bne   r2, r0, .Lexception_exit
  80009c:	1000021e 	bne	r2,zero,8000a8 <alt_exception+0x88>

        /*
         * Otherwise, modify 72(sp) to re-issue the instruction that caused the
         * exception.
         */
        addi  r15, ea, -4  /* instruction that caused exception */
  8000a0:	ebffff04 	addi	r15,ea,-4
        stw   r15,  72(sp)
  8000a4:	dbc01215 	stw	r15,72(sp)
        /* 
         * Restore the saved registers, so that all general purpose registers 
         * have been restored to their state at the time the interrupt occured.
         */

        ldw   r5,  68(sp)
  8000a8:	d9401117 	ldw	r5,68(sp)
        ldw   ea,  72(sp)  /* This becomes the PC once eret is executed */
  8000ac:	df401217 	ldw	ea,72(sp)
        ldw   ra,   0(sp)
  8000b0:	dfc00017 	ldw	ra,0(sp)

        wrctl estatus, r5
  8000b4:	2801707a 	wrctl	estatus,r5

        ldw   r1,   8(sp)
  8000b8:	d8400217 	ldw	at,8(sp)
        ldw   r2,  12(sp)
  8000bc:	d8800317 	ldw	r2,12(sp)
        ldw   r3,  16(sp)
  8000c0:	d8c00417 	ldw	r3,16(sp)
        ldw   r4,  20(sp)
  8000c4:	d9000517 	ldw	r4,20(sp)
        ldw   r5,  24(sp)
  8000c8:	d9400617 	ldw	r5,24(sp)
        ldw   r6,  28(sp)
  8000cc:	d9800717 	ldw	r6,28(sp)
        ldw   r7,  32(sp)
  8000d0:	d9c00817 	ldw	r7,32(sp)

#if defined(ALT_EXCEPTION_STACK) && defined(ALT_STACK_CHECK)
        ldw   et, %gprel(alt_exception_old_stack_limit)(gp)
#endif

        ldw   r8,  36(sp)
  8000d4:	da000917 	ldw	r8,36(sp)
        ldw   r9,  40(sp)
  8000d8:	da400a17 	ldw	r9,40(sp)
        ldw   r10, 44(sp)
  8000dc:	da800b17 	ldw	r10,44(sp)
        ldw   r11, 48(sp)
  8000e0:	dac00c17 	ldw	r11,48(sp)
        ldw   r12, 52(sp)
  8000e4:	db000d17 	ldw	r12,52(sp)
        ldw   r13, 56(sp)
  8000e8:	db400e17 	ldw	r13,56(sp)
        ldw   r14, 60(sp)
  8000ec:	db800f17 	ldw	r14,60(sp)
        ldw   r15, 64(sp)
  8000f0:	dbc01017 	ldw	r15,64(sp)
        stw   et, %gprel(alt_stack_limit_value)(gp)
        stw   zero, %gprel(alt_exception_old_stack_limit)(gp)
#endif /* ALT_STACK_CHECK */
        ldw   sp,  76(sp)
#else /* ALT_EXCEPTION_STACK disabled */
        addi  sp, sp, 76
  8000f4:	dec01304 	addi	sp,sp,76

        /*
         * Return to the interrupted instruction.
         */

        eret
  8000f8:	ef80083a 	eret

008000fc <alt_irq_handler>:
 * instruction is present if the macro ALT_CI_INTERRUPT_VECTOR defined.
 */

void alt_irq_handler (void) __attribute__ ((section (".exceptions")));
void alt_irq_handler (void)
{
  8000fc:	defff904 	addi	sp,sp,-28
  800100:	dfc00615 	stw	ra,24(sp)
  800104:	df000515 	stw	fp,20(sp)
  800108:	df000504 	addi	fp,sp,20
  
  /*
   * Notify the operating system that we are at interrupt level.
   */ 
  
  ALT_OS_INT_ENTER();
  80010c:	0001883a 	nop
#ifndef NIOS2_EIC_PRESENT
static ALT_INLINE alt_u32 ALT_ALWAYS_INLINE alt_irq_pending (void)
{
  alt_u32 active;

  NIOS2_READ_IPENDING (active);
  800110:	0005313a 	rdctl	r2,ipending
  800114:	e0bffe15 	stw	r2,-8(fp)

  return active;
  800118:	e0bffe17 	ldw	r2,-8(fp)
   * Consider the case where the high priority interupt is asserted during
   * the interrupt entry sequence for a lower priority interrupt to see why
   * this is the case.
   */

  active = alt_irq_pending ();
  80011c:	e0bffb15 	stw	r2,-20(fp)

  do
  {
    i = 0;
  800120:	e03ffd15 	stw	zero,-12(fp)
    mask = 1;
  800124:	00800044 	movi	r2,1
  800128:	e0bffc15 	stw	r2,-16(fp)
     * called to clear the interrupt condition.
     */

    do
    {
      if (active & mask)
  80012c:	e0fffb17 	ldw	r3,-20(fp)
  800130:	e0bffc17 	ldw	r2,-16(fp)
  800134:	1884703a 	and	r2,r3,r2
  800138:	10001426 	beq	r2,zero,80018c <alt_irq_handler+0x90>
      { 
#ifdef ALT_ENHANCED_INTERRUPT_API_PRESENT
        alt_irq[i].handler(alt_irq[i].context); 
  80013c:	00802074 	movhi	r2,129
  800140:	10b73304 	addi	r2,r2,-9012
  800144:	e0fffd17 	ldw	r3,-12(fp)
  800148:	180690fa 	slli	r3,r3,3
  80014c:	10c5883a 	add	r2,r2,r3
  800150:	10c00017 	ldw	r3,0(r2)
  800154:	00802074 	movhi	r2,129
  800158:	10b73304 	addi	r2,r2,-9012
  80015c:	e13ffd17 	ldw	r4,-12(fp)
  800160:	200890fa 	slli	r4,r4,3
  800164:	1105883a 	add	r2,r2,r4
  800168:	10800104 	addi	r2,r2,4
  80016c:	10800017 	ldw	r2,0(r2)
  800170:	1009883a 	mov	r4,r2
  800174:	183ee83a 	callr	r3
#else
        alt_irq[i].handler(alt_irq[i].context, i); 
#endif
        break;
  800178:	0001883a 	nop
#ifndef NIOS2_EIC_PRESENT
static ALT_INLINE alt_u32 ALT_ALWAYS_INLINE alt_irq_pending (void)
{
  alt_u32 active;

  NIOS2_READ_IPENDING (active);
  80017c:	0005313a 	rdctl	r2,ipending
  800180:	e0bfff15 	stw	r2,-4(fp)

  return active;
  800184:	e0bfff17 	ldw	r2,-4(fp)
  800188:	00000706 	br	8001a8 <alt_irq_handler+0xac>
      }
      mask <<= 1;
  80018c:	e0bffc17 	ldw	r2,-16(fp)
  800190:	1085883a 	add	r2,r2,r2
  800194:	e0bffc15 	stw	r2,-16(fp)
      i++;
  800198:	e0bffd17 	ldw	r2,-12(fp)
  80019c:	10800044 	addi	r2,r2,1
  8001a0:	e0bffd15 	stw	r2,-12(fp)

    } while (1);
  8001a4:	003fe106 	br	80012c <__alt_mem_onchip_mem+0xff78012c>

    active = alt_irq_pending ();
  8001a8:	e0bffb15 	stw	r2,-20(fp)
    
  } while (active);
  8001ac:	e0bffb17 	ldw	r2,-20(fp)
  8001b0:	103fdb1e 	bne	r2,zero,800120 <__alt_mem_onchip_mem+0xff780120>

  /*
   * Notify the operating system that interrupt processing is complete.
   */ 

  ALT_OS_INT_EXIT();
  8001b4:	0001883a 	nop
}
  8001b8:	0001883a 	nop
  8001bc:	e037883a 	mov	sp,fp
  8001c0:	dfc00117 	ldw	ra,4(sp)
  8001c4:	df000017 	ldw	fp,0(sp)
  8001c8:	dec00204 	addi	sp,sp,8
  8001cc:	f800283a 	ret

008001d0 <alt_instruction_exception_entry>:
 * that handler if it has been registered. Absent a handler, it will
 * break break or hang as discussed below.
 */
int 
alt_instruction_exception_entry (alt_u32 exception_pc)
{
  8001d0:	defffb04 	addi	sp,sp,-20
  8001d4:	dfc00415 	stw	ra,16(sp)
  8001d8:	df000315 	stw	fp,12(sp)
  8001dc:	df000304 	addi	fp,sp,12
  8001e0:	e13fff15 	stw	r4,-4(fp)
 * NIOS2_EXCEPTION_CAUSE_NOT_PRESENT. Your handling routine should
 * check the validity of the cause argument before proceeding.
 */
#ifdef NIOS2_HAS_EXTRA_EXCEPTION_INFO
  /* Get exception cause & "badaddr" */
  NIOS2_READ_EXCEPTION(cause);
  8001e4:	000531fa 	rdctl	r2,exception
  8001e8:	e0bffd15 	stw	r2,-12(fp)
  cause = ( (cause & NIOS2_EXCEPTION_REG_CAUSE_MASK) >>
  8001ec:	e0bffd17 	ldw	r2,-12(fp)
  8001f0:	10801f0c 	andi	r2,r2,124
  8001f4:	1004d0ba 	srli	r2,r2,2
  8001f8:	e0bffd15 	stw	r2,-12(fp)
              NIOS2_EXCEPTION_REG_CAUSE_OFST );

  NIOS2_READ_BADADDR(badaddr);
  8001fc:	0005333a 	rdctl	r2,badaddr
  800200:	e0bffe15 	stw	r2,-8(fp)
#else
  cause = NIOS2_EXCEPTION_CAUSE_NOT_PRESENT;
  badaddr = 0;
#endif /* NIOS2_HAS_EXTRA_EXCEPTION_INFO */

  if(alt_instruction_exception_handler) {
  800204:	d0a78917 	ldw	r2,-25052(gp)
  800208:	10000726 	beq	r2,zero,800228 <alt_instruction_exception_entry+0x58>
     * Call handler. Its return value indicates whether the exception-causing
     * instruction should be re-issued. The code that called us,
     * alt_eceptions_entry.S, will look at this value and adjust the ea
     * register as necessary
     */
    return alt_instruction_exception_handler(cause, exception_pc, badaddr);
  80020c:	d0a78917 	ldw	r2,-25052(gp)
  800210:	e0fffd17 	ldw	r3,-12(fp)
  800214:	e1bffe17 	ldw	r6,-8(fp)
  800218:	e17fff17 	ldw	r5,-4(fp)
  80021c:	1809883a 	mov	r4,r3
  800220:	103ee83a 	callr	r2
  800224:	00000206 	br	800230 <alt_instruction_exception_entry+0x60>
   *    (a peripheral which negates its interrupt output before its
   *    interrupt handler has been executed will cause spurious interrupts)
   */
  else {
#ifdef NIOS2_HAS_DEBUG_STUB
    NIOS2_BREAK();
  800228:	003da03a 	break	0
      ;
#endif /* NIOS2_HAS_DEBUG_STUB */
  }

  /* We should not get here. Remove compiler warning. */
  return NIOS2_EXCEPTION_RETURN_REISSUE_INST;
  80022c:	0005883a 	mov	r2,zero
}
  800230:	e037883a 	mov	sp,fp
  800234:	dfc00117 	ldw	ra,4(sp)
  800238:	df000017 	ldw	fp,0(sp)
  80023c:	dec00204 	addi	sp,sp,8
  800240:	f800283a 	ret

Disassembly of section .text:

00800244 <_start>:

    /* Assume the data cache size is always a power of two. */
#if NIOS2_DCACHE_SIZE > 0x8000
    movhi r2, %hi(NIOS2_DCACHE_SIZE)
#else
    movui r2, NIOS2_DCACHE_SIZE
  800244:	00820014 	movui	r2,2048
#endif

0:
    initd 0(r2)
  800248:	10000033 	initd	0(r2)
#ifdef NIOS2_ECC_PRESENT
    addi r2, r2, -4
#else
    addi r2, r2, -NIOS2_DCACHE_LINE_SIZE
  80024c:	10bff804 	addi	r2,r2,-32
#endif
    bgt r2, zero, 0b
  800250:	00bffd16 	blt	zero,r2,800248 <__alt_mem_onchip_mem+0xff780248>

    /*
     * Now that the caches are initialized, set up the stack pointer and global pointer.
     * The values provided by the linker are assumed to be correctly aligned.
     */
    movhi sp, %hi(__alt_stack_pointer)
  800254:	06c04034 	movhi	sp,256
    ori sp, sp, %lo(__alt_stack_pointer)
  800258:	dec00014 	ori	sp,sp,0
    movhi gp, %hi(_gp)
  80025c:	06802074 	movhi	gp,129
    ori gp, gp, %lo(_gp)
  800260:	d68f6f14 	ori	gp,gp,15804
 */
#ifndef ALT_SIM_OPTIMIZE
    /* Log that the BSS is about to be cleared. */
    ALT_LOG_PUTS(alt_log_msg_bss)

    movhi r2, %hi(__bss_start)
  800264:	00802034 	movhi	r2,128
    ori r2, r2, %lo(__bss_start)
  800268:	10b69514 	ori	r2,r2,55892

    movhi r3, %hi(__bss_end)
  80026c:	00c02034 	movhi	r3,128
    ori r3, r3, %lo(__bss_end)
  800270:	18f77314 	ori	r3,r3,56780

    beq r2, r3, 1f
  800274:	10c00326 	beq	r2,r3,800284 <_start+0x40>

0:
    stw zero, (r2)
  800278:	10000015 	stw	zero,0(r2)
    addi r2, r2, 4
  80027c:	10800104 	addi	r2,r2,4
    bltu r2, r3, 0b
  800280:	10fffd36 	bltu	r2,r3,800278 <__alt_mem_onchip_mem+0xff780278>
     * section aren't defined until alt_load() has been called).
     */
    mov   et, zero
#endif

    call alt_load
  800284:	08061c40 	call	8061c4 <alt_load>

    /* Log that alt_main is about to be called. */
    ALT_LOG_PUTS(alt_log_msg_alt_main)

    /* Call the C entry point. It should never return. */
    call alt_main
  800288:	08063580 	call	806358 <alt_main>

0080028c <alt_after_alt_main>:

    /* Wait in infinite loop in case alt_main does return. */
alt_after_alt_main:
    br alt_after_alt_main
  80028c:	003fff06 	br	80028c <__alt_mem_onchip_mem+0xff78028c>

00800290 <Atrial_timer_ISR>:
unsigned int maskedButton1 = 0;
unsigned int button0_pressed = 0;
unsigned int button1_pressed = 0;

alt_u32 Atrial_timer_ISR(void* context)
{
  800290:	defffe04 	addi	sp,sp,-8
  800294:	df000115 	stw	fp,4(sp)
  800298:	df000104 	addi	fp,sp,4
  80029c:	e13fff15 	stw	r4,-4(fp)
	LED0 = 0;
  8002a0:	d0272d15 	stw	zero,-25420(gp)
	return 0;
  8002a4:	0005883a 	mov	r2,zero
}
  8002a8:	e037883a 	mov	sp,fp
  8002ac:	df000017 	ldw	fp,0(sp)
  8002b0:	dec00104 	addi	sp,sp,4
  8002b4:	f800283a 	ret

008002b8 <Ventricular_timer_ISR>:

alt_u32 Ventricular_timer_ISR(void* context)
{
  8002b8:	defffe04 	addi	sp,sp,-8
  8002bc:	df000115 	stw	fp,4(sp)
  8002c0:	df000104 	addi	fp,sp,4
  8002c4:	e13fff15 	stw	r4,-4(fp)
	LED1 = 0;
  8002c8:	d0272e15 	stw	zero,-25416(gp)
	return 1;
  8002cc:	00800044 	movi	r2,1
}
  8002d0:	e037883a 	mov	sp,fp
  8002d4:	df000017 	ldw	fp,0(sp)
  8002d8:	dec00104 	addi	sp,sp,4
  8002dc:	f800283a 	ret

008002e0 <AVI_timer_ISR>:

alt_u32 AVI_timer_ISR(void* context)
{
  8002e0:	defffd04 	addi	sp,sp,-12
  8002e4:	dfc00215 	stw	ra,8(sp)
  8002e8:	df000115 	stw	fp,4(sp)
  8002ec:	df000104 	addi	fp,sp,4
  8002f0:	e13fff15 	stw	r4,-4(fp)
	AVITO = 1;
  8002f4:	00800044 	movi	r2,1
  8002f8:	d0a75f05 	stb	r2,-25220(gp)
	printf("----AVI timed out----\n");
  8002fc:	01002074 	movhi	r4,129
  800300:	21279404 	addi	r4,r4,-25008
  800304:	08030240 	call	803024 <puts>

//	alt_alarm_stop(&AVI_timer);
	return 0;
  800308:	0005883a 	mov	r2,zero
}
  80030c:	e037883a 	mov	sp,fp
  800310:	dfc00117 	ldw	ra,4(sp)
  800314:	df000017 	ldw	fp,0(sp)
  800318:	dec00204 	addi	sp,sp,8
  80031c:	f800283a 	ret

00800320 <PVARP_timer_ISR>:

alt_u32 PVARP_timer_ISR(void* context)
{
  800320:	defffd04 	addi	sp,sp,-12
  800324:	dfc00215 	stw	ra,8(sp)
  800328:	df000115 	stw	fp,4(sp)
  80032c:	df000104 	addi	fp,sp,4
  800330:	e13fff15 	stw	r4,-4(fp)
	PVARPTO = 1;
  800334:	00800044 	movi	r2,1
  800338:	d0a76345 	stb	r2,-25203(gp)
	printf("PVARP timed out\n");
  80033c:	01002074 	movhi	r4,129
  800340:	21279a04 	addi	r4,r4,-24984
  800344:	08030240 	call	803024 <puts>
//	alt_alarm_stop(&PVARP_timer);
	return 0;
  800348:	0005883a 	mov	r2,zero
}
  80034c:	e037883a 	mov	sp,fp
  800350:	dfc00117 	ldw	ra,4(sp)
  800354:	df000017 	ldw	fp,0(sp)
  800358:	dec00204 	addi	sp,sp,8
  80035c:	f800283a 	ret

00800360 <VRP_timer_ISR>:

alt_u32 VRP_timer_ISR(void* context)
{
  800360:	defffd04 	addi	sp,sp,-12
  800364:	dfc00215 	stw	ra,8(sp)
  800368:	df000115 	stw	fp,4(sp)
  80036c:	df000104 	addi	fp,sp,4
  800370:	e13fff15 	stw	r4,-4(fp)
	VRPTO = 1;
  800374:	00800044 	movi	r2,1
  800378:	d0a75d45 	stb	r2,-25227(gp)
	printf("VRP timed out\n");
  80037c:	01002074 	movhi	r4,129
  800380:	21279e04 	addi	r4,r4,-24968
  800384:	08030240 	call	803024 <puts>
//	alt_alarm_stop(&VRP_timer);
	return 0;
  800388:	0005883a 	mov	r2,zero
}
  80038c:	e037883a 	mov	sp,fp
  800390:	dfc00117 	ldw	ra,4(sp)
  800394:	df000017 	ldw	fp,0(sp)
  800398:	dec00204 	addi	sp,sp,8
  80039c:	f800283a 	ret

008003a0 <AEI_timer_ISR>:

alt_u32 AEI_timer_ISR(void* context)
{
  8003a0:	defffd04 	addi	sp,sp,-12
  8003a4:	dfc00215 	stw	ra,8(sp)
  8003a8:	df000115 	stw	fp,4(sp)
  8003ac:	df000104 	addi	fp,sp,4
  8003b0:	e13fff15 	stw	r4,-4(fp)
	AEITO = 1;
  8003b4:	00800044 	movi	r2,1
  8003b8:	d0a77c85 	stb	r2,-25102(gp)
	printf("AEI timed out\n");
  8003bc:	01002074 	movhi	r4,129
  8003c0:	2127a204 	addi	r4,r4,-24952
  8003c4:	08030240 	call	803024 <puts>

//	alt_alarm_stop(&AEI_timer);
	return 0;
  8003c8:	0005883a 	mov	r2,zero
}
  8003cc:	e037883a 	mov	sp,fp
  8003d0:	dfc00117 	ldw	ra,4(sp)
  8003d4:	df000017 	ldw	fp,0(sp)
  8003d8:	dec00204 	addi	sp,sp,8
  8003dc:	f800283a 	ret

008003e0 <LRI_timer_ISR>:

alt_u32 LRI_timer_ISR(void* context)
{
  8003e0:	defffd04 	addi	sp,sp,-12
  8003e4:	dfc00215 	stw	ra,8(sp)
  8003e8:	df000115 	stw	fp,4(sp)
  8003ec:	df000104 	addi	fp,sp,4
  8003f0:	e13fff15 	stw	r4,-4(fp)
	LRITO = 1;
  8003f4:	00800044 	movi	r2,1
  8003f8:	d0a73b85 	stb	r2,-25362(gp)
	printf("LRI timed out\n");
  8003fc:	01002074 	movhi	r4,129
  800400:	2127a604 	addi	r4,r4,-24936
  800404:	08030240 	call	803024 <puts>

//	alt_alarm_stop(&LRI_timer);
	return 0;
  800408:	0005883a 	mov	r2,zero
}
  80040c:	e037883a 	mov	sp,fp
  800410:	dfc00117 	ldw	ra,4(sp)
  800414:	df000017 	ldw	fp,0(sp)
  800418:	dec00204 	addi	sp,sp,8
  80041c:	f800283a 	ret

00800420 <URI_timer_ISR>:

alt_u32 URI_timer_ISR(void* context)
{
  800420:	defffd04 	addi	sp,sp,-12
  800424:	dfc00215 	stw	ra,8(sp)
  800428:	df000115 	stw	fp,4(sp)
  80042c:	df000104 	addi	fp,sp,4
  800430:	e13fff15 	stw	r4,-4(fp)
	URITO = 1;
  800434:	00800044 	movi	r2,1
  800438:	d0a75d05 	stb	r2,-25228(gp)
	printf("URI timed out\n");
  80043c:	01002074 	movhi	r4,129
  800440:	2127aa04 	addi	r4,r4,-24920
  800444:	08030240 	call	803024 <puts>
//	alt_alarm_stop(&URI_timer);
	return 0;
  800448:	0005883a 	mov	r2,zero
}
  80044c:	e037883a 	mov	sp,fp
  800450:	dfc00117 	ldw	ra,4(sp)
  800454:	df000017 	ldw	fp,0(sp)
  800458:	dec00204 	addi	sp,sp,8
  80045c:	f800283a 	ret

00800460 <pollButtons>:

void pollButtons()
{
  800460:	defffc04 	addi	sp,sp,-16
  800464:	dfc00315 	stw	ra,12(sp)
  800468:	df000215 	stw	fp,8(sp)
  80046c:	df000204 	addi	fp,sp,8
	// Poll buttons
	uiButton = IORD_ALTERA_AVALON_PIO_DATA(BUTTONS_BASE);
  800470:	00804434 	movhi	r2,272
  800474:	10842804 	addi	r2,r2,4256
  800478:	10800037 	ldwio	r2,0(r2)
  80047c:	d0a72f15 	stw	r2,-25412(gp)
	IOWR_ALTERA_AVALON_PIO_EDGE_CAP(BUTTONS_BASE, 0);// clear the edge capture register
  800480:	0007883a 	mov	r3,zero
  800484:	00804434 	movhi	r2,272
  800488:	10842b04 	addi	r2,r2,4268
  80048c:	10c00035 	stwio	r3,0(r2)
	int maskedButton0 = uiButton & (1 << 0);
  800490:	d0a72f17 	ldw	r2,-25412(gp)
  800494:	1080004c 	andi	r2,r2,1
  800498:	e0bffe15 	stw	r2,-8(fp)
	int maskedButton1 = uiButton & (1 << 1);
  80049c:	d0a72f17 	ldw	r2,-25412(gp)
  8004a0:	1080008c 	andi	r2,r2,2
  8004a4:	e0bfff15 	stw	r2,-4(fp)

	if (maskedButton0 > 0){
  8004a8:	e0bffe17 	ldw	r2,-8(fp)
  8004ac:	0080020e 	bge	zero,r2,8004b8 <pollButtons+0x58>
		ASense = 0;
  8004b0:	d02749c5 	stb	zero,-25305(gp)
  8004b4:	00000506 	br	8004cc <pollButtons+0x6c>
	} else {
		ASense = 1;
  8004b8:	00800044 	movi	r2,1
  8004bc:	d0a749c5 	stb	r2,-25305(gp)
		printf("--- ASense! ---\n");
  8004c0:	01002074 	movhi	r4,129
  8004c4:	2127ae04 	addi	r4,r4,-24904
  8004c8:	08030240 	call	803024 <puts>
	}
	if (maskedButton1 > 0){
  8004cc:	e0bfff17 	ldw	r2,-4(fp)
  8004d0:	0080020e 	bge	zero,r2,8004dc <pollButtons+0x7c>
		VSense = 0;
  8004d4:	d0275705 	stb	zero,-25252(gp)

//	printf("button0 is: %d \n", maskedButton0);
//	printf("button1 is: %d \n", maskedButton1);
//	printf("ASense is: %d \n", ASense);
//	printf("VSense is: %d \n", VSense);
}
  8004d8:	00000506 	br	8004f0 <pollButtons+0x90>
		printf("--- ASense! ---\n");
	}
	if (maskedButton1 > 0){
		VSense = 0;
	} else {
		VSense = 1;
  8004dc:	00800044 	movi	r2,1
  8004e0:	d0a75705 	stb	r2,-25252(gp)
		printf("--- VSense! ---\n");
  8004e4:	01002074 	movhi	r4,129
  8004e8:	2127b204 	addi	r4,r4,-24888
  8004ec:	08030240 	call	803024 <puts>

//	printf("button0 is: %d \n", maskedButton0);
//	printf("button1 is: %d \n", maskedButton1);
//	printf("ASense is: %d \n", ASense);
//	printf("VSense is: %d \n", VSense);
}
  8004f0:	0001883a 	nop
  8004f4:	e037883a 	mov	sp,fp
  8004f8:	dfc00117 	ldw	ra,4(sp)
  8004fc:	df000017 	ldw	fp,0(sp)
  800500:	dec00204 	addi	sp,sp,8
  800504:	f800283a 	ret

00800508 <heartLEDs>:

void heartLEDs()
{
  800508:	defffc04 	addi	sp,sp,-16
  80050c:	dfc00315 	stw	ra,12(sp)
  800510:	df000215 	stw	fp,8(sp)
  800514:	df000204 	addi	fp,sp,8

	unsigned int A_LED = ASense || APace;
  800518:	d0a749c3 	ldbu	r2,-25305(gp)
  80051c:	10803fcc 	andi	r2,r2,255
  800520:	1080201c 	xori	r2,r2,128
  800524:	10bfe004 	addi	r2,r2,-128
  800528:	1000051e 	bne	r2,zero,800540 <heartLEDs+0x38>
  80052c:	d0a73603 	ldbu	r2,-25384(gp)
  800530:	10803fcc 	andi	r2,r2,255
  800534:	1080201c 	xori	r2,r2,128
  800538:	10bfe004 	addi	r2,r2,-128
  80053c:	10000226 	beq	r2,zero,800548 <heartLEDs+0x40>
  800540:	00800044 	movi	r2,1
  800544:	00000106 	br	80054c <heartLEDs+0x44>
  800548:	0005883a 	mov	r2,zero
  80054c:	e0bffe15 	stw	r2,-8(fp)
	unsigned int V_LED = VSense || VPace;
  800550:	d0a75703 	ldbu	r2,-25252(gp)
  800554:	10803fcc 	andi	r2,r2,255
  800558:	1080201c 	xori	r2,r2,128
  80055c:	10bfe004 	addi	r2,r2,-128
  800560:	1000051e 	bne	r2,zero,800578 <heartLEDs+0x70>
  800564:	d0a77743 	ldbu	r2,-25123(gp)
  800568:	10803fcc 	andi	r2,r2,255
  80056c:	1080201c 	xori	r2,r2,128
  800570:	10bfe004 	addi	r2,r2,-128
  800574:	10000226 	beq	r2,zero,800580 <heartLEDs+0x78>
  800578:	00800044 	movi	r2,1
  80057c:	00000106 	br	800584 <heartLEDs+0x7c>
  800580:	0005883a 	mov	r2,zero
  800584:	e0bfff15 	stw	r2,-4(fp)

//	printf("A_LED is: %d \n", A_LED);
//	printf("V_LED is: %d \n", V_LED);

	if (A_LED == 1)
  800588:	e0bffe17 	ldw	r2,-8(fp)
  80058c:	10800058 	cmpnei	r2,r2,1
  800590:	10000c1e 	bne	r2,zero,8005c4 <heartLEDs+0xbc>
	{
		LED0 = 1;
  800594:	00800044 	movi	r2,1
  800598:	d0a72d15 	stw	r2,-25420(gp)
		// Start timer
		alt_alarm_stop(&Atrial_timer);
  80059c:	01002074 	movhi	r4,129
  8005a0:	21371504 	addi	r4,r4,-9132
  8005a4:	08066680 	call	806668 <alt_alarm_stop>
		alt_alarm_start(&Atrial_timer, 100, Atrial_timer_ISR, NULL);
  8005a8:	000f883a 	mov	r7,zero
  8005ac:	01802034 	movhi	r6,128
  8005b0:	3180a404 	addi	r6,r6,656
  8005b4:	01401904 	movi	r5,100
  8005b8:	01002074 	movhi	r4,129
  8005bc:	21371504 	addi	r4,r4,-9132
  8005c0:	0805d2c0 	call	805d2c <alt_alarm_start>
	}

	if (V_LED == 1)
  8005c4:	e0bfff17 	ldw	r2,-4(fp)
  8005c8:	10800058 	cmpnei	r2,r2,1
  8005cc:	10000c1e 	bne	r2,zero,800600 <heartLEDs+0xf8>
	{
		LED1 = 1;
  8005d0:	00800044 	movi	r2,1
  8005d4:	d0a72e15 	stw	r2,-25416(gp)
		// Start timer
		alt_alarm_stop(&Ventricular_timer);
  8005d8:	01002074 	movhi	r4,129
  8005dc:	21370304 	addi	r4,r4,-9204
  8005e0:	08066680 	call	806668 <alt_alarm_stop>
		alt_alarm_start(&Ventricular_timer, 100, Ventricular_timer_ISR, NULL);
  8005e4:	000f883a 	mov	r7,zero
  8005e8:	01802034 	movhi	r6,128
  8005ec:	3180ae04 	addi	r6,r6,696
  8005f0:	01401904 	movi	r5,100
  8005f4:	01002074 	movhi	r4,129
  8005f8:	21370304 	addi	r4,r4,-9204
  8005fc:	0805d2c0 	call	805d2c <alt_alarm_start>
	}

	LEDbits = 0;
  800600:	d0272c15 	stw	zero,-25424(gp)
	LEDbits = LEDbits | (A_LED << 0);
  800604:	d0e72c17 	ldw	r3,-25424(gp)
  800608:	e0bffe17 	ldw	r2,-8(fp)
  80060c:	1884b03a 	or	r2,r3,r2
  800610:	d0a72c15 	stw	r2,-25424(gp)
	LEDbits = LEDbits | (V_LED << 1);
  800614:	e0bfff17 	ldw	r2,-4(fp)
  800618:	1085883a 	add	r2,r2,r2
  80061c:	1007883a 	mov	r3,r2
  800620:	d0a72c17 	ldw	r2,-25424(gp)
  800624:	1884b03a 	or	r2,r3,r2
  800628:	d0a72c15 	stw	r2,-25424(gp)

//	unsigned int allON = 0b00001111;

	IOWR_ALTERA_AVALON_PIO_DATA(LEDS_GREEN_BASE, LEDbits);
  80062c:	d0a72c17 	ldw	r2,-25424(gp)
  800630:	1007883a 	mov	r3,r2
  800634:	00804434 	movhi	r2,272
  800638:	10841c04 	addi	r2,r2,4208
  80063c:	10c00035 	stwio	r3,0(r2)
}
  800640:	0001883a 	nop
  800644:	e037883a 	mov	sp,fp
  800648:	dfc00117 	ldw	ra,4(sp)
  80064c:	df000017 	ldw	fp,0(sp)
  800650:	dec00204 	addi	sp,sp,8
  800654:	f800283a 	ret

00800658 <startTimers>:

void startTimers()
{
  800658:	defffe04 	addi	sp,sp,-8
  80065c:	dfc00115 	stw	ra,4(sp)
  800660:	df000015 	stw	fp,0(sp)
  800664:	d839883a 	mov	fp,sp
	if (AVI_stop == 1)
  800668:	d0a74143 	ldbu	r2,-25339(gp)
  80066c:	10803fcc 	andi	r2,r2,255
  800670:	1080201c 	xori	r2,r2,128
  800674:	10bfe004 	addi	r2,r2,-128
  800678:	10800058 	cmpnei	r2,r2,1
  80067c:	1000331e 	bne	r2,zero,80074c <startTimers+0xf4>
	{

		alt_alarm_stop(&PVARP_timer);
  800680:	01002074 	movhi	r4,129
  800684:	21370904 	addi	r4,r4,-9180
  800688:	08066680 	call	806668 <alt_alarm_stop>
		alt_alarm_stop(&VRP_timer);
  80068c:	01002074 	movhi	r4,129
  800690:	21370f04 	addi	r4,r4,-9156
  800694:	08066680 	call	806668 <alt_alarm_stop>
		alt_alarm_stop(&AEI_timer);
  800698:	01002074 	movhi	r4,129
  80069c:	21372704 	addi	r4,r4,-9060
  8006a0:	08066680 	call	806668 <alt_alarm_stop>
		alt_alarm_stop(&LRI_timer);
  8006a4:	01002074 	movhi	r4,129
  8006a8:	21372104 	addi	r4,r4,-9084
  8006ac:	08066680 	call	806668 <alt_alarm_stop>
		alt_alarm_stop(&URI_timer);
  8006b0:	01002074 	movhi	r4,129
  8006b4:	21372d04 	addi	r4,r4,-9036
  8006b8:	08066680 	call	806668 <alt_alarm_stop>

		alt_alarm_start(&PVARP_timer, PVARP_Value, PVARP_timer_ISR, NULL);
  8006bc:	000f883a 	mov	r7,zero
  8006c0:	01802034 	movhi	r6,128
  8006c4:	3180c804 	addi	r6,r6,800
  8006c8:	01400c84 	movi	r5,50
  8006cc:	01002074 	movhi	r4,129
  8006d0:	21370904 	addi	r4,r4,-9180
  8006d4:	0805d2c0 	call	805d2c <alt_alarm_start>
		alt_alarm_start(&VRP_timer, VRP_Value, VRP_timer_ISR, NULL);
  8006d8:	000f883a 	mov	r7,zero
  8006dc:	01802034 	movhi	r6,128
  8006e0:	3180d804 	addi	r6,r6,864
  8006e4:	01402584 	movi	r5,150
  8006e8:	01002074 	movhi	r4,129
  8006ec:	21370f04 	addi	r4,r4,-9156
  8006f0:	0805d2c0 	call	805d2c <alt_alarm_start>
		alt_alarm_start(&AEI_timer, AEI_Value, AEI_timer_ISR, NULL);
  8006f4:	000f883a 	mov	r7,zero
  8006f8:	01802034 	movhi	r6,128
  8006fc:	3180e804 	addi	r6,r6,928
  800700:	0140c804 	movi	r5,800
  800704:	01002074 	movhi	r4,129
  800708:	21372704 	addi	r4,r4,-9060
  80070c:	0805d2c0 	call	805d2c <alt_alarm_start>
		alt_alarm_start(&LRI_timer, LRI_Value, LRI_timer_ISR, NULL);
  800710:	000f883a 	mov	r7,zero
  800714:	01802034 	movhi	r6,128
  800718:	3180f804 	addi	r6,r6,992
  80071c:	0140ed84 	movi	r5,950
  800720:	01002074 	movhi	r4,129
  800724:	21372104 	addi	r4,r4,-9084
  800728:	0805d2c0 	call	805d2c <alt_alarm_start>
		alt_alarm_start(&URI_timer, URI_Value, URI_timer_ISR, NULL);
  80072c:	000f883a 	mov	r7,zero
  800730:	01802034 	movhi	r6,128
  800734:	31810804 	addi	r6,r6,1056
  800738:	0140e104 	movi	r5,900
  80073c:	01002074 	movhi	r4,129
  800740:	21372d04 	addi	r4,r4,-9036
  800744:	0805d2c0 	call	805d2c <alt_alarm_start>
  800748:	00001006 	br	80078c <startTimers+0x134>
	}
	else if (AVI_start == 1)
  80074c:	d0a73e43 	ldbu	r2,-25351(gp)
  800750:	10803fcc 	andi	r2,r2,255
  800754:	1080201c 	xori	r2,r2,128
  800758:	10bfe004 	addi	r2,r2,-128
  80075c:	10800058 	cmpnei	r2,r2,1
  800760:	10000a1e 	bne	r2,zero,80078c <startTimers+0x134>
	{
		alt_alarm_stop(&AVI_timer);
  800764:	01002074 	movhi	r4,129
  800768:	21371b04 	addi	r4,r4,-9108
  80076c:	08066680 	call	806668 <alt_alarm_stop>
		alt_alarm_start(&AVI_timer, AVI_Value, AVI_timer_ISR, NULL);
  800770:	000f883a 	mov	r7,zero
  800774:	01802034 	movhi	r6,128
  800778:	3180b804 	addi	r6,r6,736
  80077c:	01404b04 	movi	r5,300
  800780:	01002074 	movhi	r4,129
  800784:	21371b04 	addi	r4,r4,-9108
  800788:	0805d2c0 	call	805d2c <alt_alarm_start>
	}

	if (PVARP_start == 1)
  80078c:	d0a76503 	ldbu	r2,-25196(gp)
  800790:	10803fcc 	andi	r2,r2,255
  800794:	1080201c 	xori	r2,r2,128
  800798:	10bfe004 	addi	r2,r2,-128
  80079c:	10800058 	cmpnei	r2,r2,1
  8007a0:	10000a1e 	bne	r2,zero,8007cc <startTimers+0x174>
	{
		alt_alarm_stop(&PVARP_timer);
  8007a4:	01002074 	movhi	r4,129
  8007a8:	21370904 	addi	r4,r4,-9180
  8007ac:	08066680 	call	806668 <alt_alarm_stop>
		alt_alarm_start(&PVARP_timer, PVARP_Value, PVARP_timer_ISR, NULL);
  8007b0:	000f883a 	mov	r7,zero
  8007b4:	01802034 	movhi	r6,128
  8007b8:	3180c804 	addi	r6,r6,800
  8007bc:	01400c84 	movi	r5,50
  8007c0:	01002074 	movhi	r4,129
  8007c4:	21370904 	addi	r4,r4,-9180
  8007c8:	0805d2c0 	call	805d2c <alt_alarm_start>
	}
	if(VRP_start==1)
  8007cc:	d0a75803 	ldbu	r2,-25248(gp)
  8007d0:	10803fcc 	andi	r2,r2,255
  8007d4:	1080201c 	xori	r2,r2,128
  8007d8:	10bfe004 	addi	r2,r2,-128
  8007dc:	10800058 	cmpnei	r2,r2,1
  8007e0:	10000a1e 	bne	r2,zero,80080c <startTimers+0x1b4>
	{
		alt_alarm_stop(&VRP_timer);
  8007e4:	01002074 	movhi	r4,129
  8007e8:	21370f04 	addi	r4,r4,-9156
  8007ec:	08066680 	call	806668 <alt_alarm_stop>
		alt_alarm_start(&VRP_timer, VRP_Value, VRP_timer_ISR, NULL);
  8007f0:	000f883a 	mov	r7,zero
  8007f4:	01802034 	movhi	r6,128
  8007f8:	3180d804 	addi	r6,r6,864
  8007fc:	01402584 	movi	r5,150
  800800:	01002074 	movhi	r4,129
  800804:	21370f04 	addi	r4,r4,-9156
  800808:	0805d2c0 	call	805d2c <alt_alarm_start>
	}
	if(AEI_start==1)
  80080c:	d0a76bc3 	ldbu	r2,-25169(gp)
  800810:	10803fcc 	andi	r2,r2,255
  800814:	1080201c 	xori	r2,r2,128
  800818:	10bfe004 	addi	r2,r2,-128
  80081c:	10800058 	cmpnei	r2,r2,1
  800820:	10000a1e 	bne	r2,zero,80084c <startTimers+0x1f4>
	{
		alt_alarm_stop(&AEI_timer);
  800824:	01002074 	movhi	r4,129
  800828:	21372704 	addi	r4,r4,-9060
  80082c:	08066680 	call	806668 <alt_alarm_stop>
		alt_alarm_start(&AEI_timer, AEI_Value, AEI_timer_ISR, NULL);
  800830:	000f883a 	mov	r7,zero
  800834:	01802034 	movhi	r6,128
  800838:	3180e804 	addi	r6,r6,928
  80083c:	0140c804 	movi	r5,800
  800840:	01002074 	movhi	r4,129
  800844:	21372704 	addi	r4,r4,-9060
  800848:	0805d2c0 	call	805d2c <alt_alarm_start>
	}
	if (URI_start == 1)
  80084c:	d0a77b03 	ldbu	r2,-25108(gp)
  800850:	10803fcc 	andi	r2,r2,255
  800854:	1080201c 	xori	r2,r2,128
  800858:	10bfe004 	addi	r2,r2,-128
  80085c:	10800058 	cmpnei	r2,r2,1
  800860:	10000a1e 	bne	r2,zero,80088c <startTimers+0x234>
	{
		alt_alarm_stop(&URI_timer);
  800864:	01002074 	movhi	r4,129
  800868:	21372d04 	addi	r4,r4,-9036
  80086c:	08066680 	call	806668 <alt_alarm_stop>
		alt_alarm_start(&URI_timer, URI_Value, URI_timer_ISR, NULL);
  800870:	000f883a 	mov	r7,zero
  800874:	01802034 	movhi	r6,128
  800878:	31810804 	addi	r6,r6,1056
  80087c:	0140e104 	movi	r5,900
  800880:	01002074 	movhi	r4,129
  800884:	21372d04 	addi	r4,r4,-9036
  800888:	0805d2c0 	call	805d2c <alt_alarm_start>
	}
	if (LRI_start == 1)
  80088c:	d0a75cc3 	ldbu	r2,-25229(gp)
  800890:	10803fcc 	andi	r2,r2,255
  800894:	1080201c 	xori	r2,r2,128
  800898:	10bfe004 	addi	r2,r2,-128
  80089c:	10800058 	cmpnei	r2,r2,1
  8008a0:	10000a1e 	bne	r2,zero,8008cc <startTimers+0x274>
	{
		alt_alarm_stop(&LRI_timer);
  8008a4:	01002074 	movhi	r4,129
  8008a8:	21372104 	addi	r4,r4,-9084
  8008ac:	08066680 	call	806668 <alt_alarm_stop>
		alt_alarm_start(&LRI_timer, LRI_Value, LRI_timer_ISR, NULL);
  8008b0:	000f883a 	mov	r7,zero
  8008b4:	01802034 	movhi	r6,128
  8008b8:	3180f804 	addi	r6,r6,992
  8008bc:	0140ed84 	movi	r5,950
  8008c0:	01002074 	movhi	r4,129
  8008c4:	21372104 	addi	r4,r4,-9084
  8008c8:	0805d2c0 	call	805d2c <alt_alarm_start>
	}


	AVITO = 0;
  8008cc:	d0275f05 	stb	zero,-25220(gp)
	PVARPTO = 0;
  8008d0:	d0276345 	stb	zero,-25203(gp)
	VRPTO = 0;
  8008d4:	d0275d45 	stb	zero,-25227(gp)
	AEITO = 0;
  8008d8:	d0277c85 	stb	zero,-25102(gp)
	LRITO = 0;
  8008dc:	d0273b85 	stb	zero,-25362(gp)
	URITO = 0;
  8008e0:	d0275d05 	stb	zero,-25228(gp)
}
  8008e4:	0001883a 	nop
  8008e8:	e037883a 	mov	sp,fp
  8008ec:	dfc00117 	ldw	ra,4(sp)
  8008f0:	df000017 	ldw	fp,0(sp)
  8008f4:	dec00204 	addi	sp,sp,8
  8008f8:	f800283a 	ret

008008fc <main>:

int main()
{
  8008fc:	defffe04 	addi	sp,sp,-8
  800900:	dfc00115 	stw	ra,4(sp)
  800904:	df000015 	stw	fp,0(sp)
  800908:	d839883a 	mov	fp,sp
	// Reset the scc
	reset();
  80090c:	080092c0 	call	80092c <reset>
//	alt_alarm_start(&VRP_timer, VRP_Value, VRP_timer_ISR, NULL);
//	alt_alarm_start(&AEI_timer, AEI_Value, AEI_timer_ISR, NULL);
//	alt_alarm_start(&LRI_timer, LRI_Value, LRI_timer_ISR, NULL);
//	alt_alarm_start(&URI_timer, URI_Value, URI_timer_ISR, NULL);

	AVI_stop = 1;
  800910:	00800044 	movi	r2,1
  800914:	d0a74145 	stb	r2,-25339(gp)

	while(1) // Main loop
	{

		startTimers();
  800918:	08006580 	call	800658 <startTimers>
		tick();
  80091c:	08009d40 	call	8009d4 <tick>
		pollButtons();
  800920:	08004600 	call	800460 <pollButtons>
		heartLEDs();
  800924:	08005080 	call	800508 <heartLEDs>
	}
  800928:	003ffb06 	br	800918 <__alt_mem_onchip_mem+0xff780918>

0080092c <reset>:
char g124_e1_fix;
char g124_e1;
char g128_e2;
char g132_e3;
int _PRE_GO;
void reset(){
  80092c:	deffff04 	addi	sp,sp,-4
  800930:	df000015 	stw	fp,0(sp)
  800934:	d839883a 	mov	fp,sp
   _GO = 1;
  800938:	00800044 	movi	r2,1
  80093c:	d0a75c05 	stb	r2,-25232(gp)
   _PRE_GO = 0;
  800940:	d0273c15 	stw	zero,-25360(gp)
   PRE_g3 = 0;
  800944:	d0273d05 	stb	zero,-25356(gp)
   PRE_g5 = 0;
  800948:	d02776c5 	stb	zero,-25125(gp)
   PRE_g11 = 0;
  80094c:	d0275d85 	stb	zero,-25226(gp)
   PRE_g14 = 0;
  800950:	d0276385 	stb	zero,-25202(gp)
   PRE_g20 = 0;
  800954:	d0274105 	stb	zero,-25340(gp)
   PRE_g22 = 0;
  800958:	d02759c5 	stb	zero,-25241(gp)
   PRE_g29 = 0;
  80095c:	d0273d85 	stb	zero,-25354(gp)
   PRE_g32 = 0;
  800960:	d0273f45 	stb	zero,-25347(gp)
   PRE_g34 = 0;
  800964:	d0274645 	stb	zero,-25319(gp)
   PRE_g37 = 0;
  800968:	d0277dc5 	stb	zero,-25097(gp)
   PRE_g45 = 0;
  80096c:	d0277645 	stb	zero,-25127(gp)
   PRE_g47 = 0;
  800970:	d02760c5 	stb	zero,-25213(gp)
   PRE_g53 = 0;
  800974:	d0274a45 	stb	zero,-25303(gp)
   PRE_g56 = 0;
  800978:	d0273f05 	stb	zero,-25348(gp)
   PRE_g60 = 0;
  80097c:	d02767c5 	stb	zero,-25185(gp)
   PRE_g69 = 0;
  800980:	d02743c5 	stb	zero,-25329(gp)
   PRE_g71 = 0;
  800984:	d0275405 	stb	zero,-25264(gp)
   PRE_g77 = 0;
  800988:	d0274605 	stb	zero,-25320(gp)
   PRE_g80 = 0;
  80098c:	d0275145 	stb	zero,-25275(gp)
   PRE_g86 = 0;
  800990:	d0276a85 	stb	zero,-25174(gp)
   PRE_g88 = 0;
  800994:	d0276285 	stb	zero,-25206(gp)
   PRE_g95 = 0;
  800998:	d0273645 	stb	zero,-25383(gp)
   PRE_g97 = 0;
  80099c:	d0276145 	stb	zero,-25211(gp)
   PRE_g103 = 0;
  8009a0:	d0276785 	stb	zero,-25186(gp)
   PRE_g105 = 0;
  8009a4:	d0277885 	stb	zero,-25118(gp)
   PRE_g111 = 0;
  8009a8:	d0274d85 	stb	zero,-25290(gp)
   PRE_g113 = 0;
  8009ac:	d0276245 	stb	zero,-25207(gp)
   PRE_g117 = 0;
  8009b0:	d0277c45 	stb	zero,-25103(gp)
   PRE_g121 = 0;
  8009b4:	d0273e85 	stb	zero,-25350(gp)
   PRE_g126 = 0;
  8009b8:	d0275a45 	stb	zero,-25239(gp)
   PRE_g130 = 0;
  8009bc:	d0276a05 	stb	zero,-25176(gp)
   return;
  8009c0:	0001883a 	nop
}
  8009c4:	e037883a 	mov	sp,fp
  8009c8:	df000017 	ldw	fp,0(sp)
  8009cc:	dec00104 	addi	sp,sp,4
  8009d0:	f800283a 	ret

008009d4 <tick>:
void tick(){
  8009d4:	deffff04 	addi	sp,sp,-4
  8009d8:	df000015 	stw	fp,0(sp)
  8009dc:	d839883a 	mov	fp,sp
   if(_PRE_GO == 1){
  8009e0:	d0a73c17 	ldw	r2,-25360(gp)
  8009e4:	10800058 	cmpnei	r2,r2,1
  8009e8:	1000011e 	bne	r2,zero,8009f0 <tick+0x1c>
      _GO = 0;
  8009ec:	d0275c05 	stb	zero,-25232(gp)
   }
   {
      g0 = _GO;
  8009f0:	d0a75c03 	ldbu	r2,-25232(gp)
  8009f4:	d0a76e45 	stb	r2,-25159(gp)
      g1 = g0;
  8009f8:	d0a76e43 	ldbu	r2,-25159(gp)
  8009fc:	d0a74205 	stb	r2,-25336(gp)
      g2 = g1;
  800a00:	d0a74203 	ldbu	r2,-25336(gp)
  800a04:	d0a75005 	stb	r2,-25280(gp)
      g125 = g0;
  800a08:	d0a76e43 	ldbu	r2,-25159(gp)
  800a0c:	d0a77405 	stb	r2,-25136(gp)
      g127 =(PRE_g126);
  800a10:	d0a75a43 	ldbu	r2,-25239(gp)
  800a14:	d0a73b45 	stb	r2,-25363(gp)
      g126 =(g125||g127);
  800a18:	d0a77403 	ldbu	r2,-25136(gp)
  800a1c:	10803fcc 	andi	r2,r2,255
  800a20:	1080201c 	xori	r2,r2,128
  800a24:	10bfe004 	addi	r2,r2,-128
  800a28:	1000051e 	bne	r2,zero,800a40 <tick+0x6c>
  800a2c:	d0a73b43 	ldbu	r2,-25363(gp)
  800a30:	10803fcc 	andi	r2,r2,255
  800a34:	1080201c 	xori	r2,r2,128
  800a38:	10bfe004 	addi	r2,r2,-128
  800a3c:	10000226 	beq	r2,zero,800a48 <tick+0x74>
  800a40:	00800044 	movi	r2,1
  800a44:	00000106 	br	800a4c <tick+0x78>
  800a48:	0005883a 	mov	r2,zero
  800a4c:	d0a742c5 	stb	r2,-25333(gp)
      if(g126){
  800a50:	d0a742c3 	ldbu	r2,-25333(gp)
  800a54:	10803fcc 	andi	r2,r2,255
  800a58:	1080201c 	xori	r2,r2,128
  800a5c:	10bfe004 	addi	r2,r2,-128
  800a60:	10000e26 	beq	r2,zero,800a9c <tick+0xc8>
         VPace = 0;
  800a64:	d0277745 	stb	zero,-25123(gp)
         APace = 0;
  800a68:	d0273605 	stb	zero,-25384(gp)
         AVI_stop = 0;
  800a6c:	d0274145 	stb	zero,-25339(gp)
         AVI_start = 0;
  800a70:	d0273e45 	stb	zero,-25351(gp)
         LRI_start = 0;
  800a74:	d0275cc5 	stb	zero,-25229(gp)
         VRP_start = 0;
  800a78:	d0275805 	stb	zero,-25248(gp)
         VRP_stop = 0;
  800a7c:	d02764c5 	stb	zero,-25197(gp)
         AEI_start = 0;
  800a80:	d0276bc5 	stb	zero,-25169(gp)
         AEI_stop = 0;
  800a84:	d0277a45 	stb	zero,-25111(gp)
         AVI_start = 0;
  800a88:	d0273e45 	stb	zero,-25351(gp)
         PVARP_start = 0;
  800a8c:	d0276505 	stb	zero,-25196(gp)
         PVARP_stop = 0;
  800a90:	d0276605 	stb	zero,-25192(gp)
         URI_ex = 0;
  800a94:	d0275905 	stb	zero,-25244(gp)
         URI_start = 0;
  800a98:	d0277b05 	stb	zero,-25108(gp)
      }
      g122 =(PRE_g121);
  800a9c:	d0a73e83 	ldbu	r2,-25350(gp)
  800aa0:	d0a758c5 	stb	r2,-25245(gp)
      if(g122){
  800aa4:	d0a758c3 	ldbu	r2,-25245(gp)
  800aa8:	10803fcc 	andi	r2,r2,255
  800aac:	1080201c 	xori	r2,r2,128
  800ab0:	10bfe004 	addi	r2,r2,-128
  800ab4:	10000426 	beq	r2,zero,800ac8 <tick+0xf4>
         _Pacemaker1_local__pre_AVI_ex16 = _Pacemaker1_local__reg_AVI_ex16;
  800ab8:	d0a76543 	ldbu	r2,-25195(gp)
  800abc:	d0a74c05 	stb	r2,-25296(gp)
         _Pacemaker1_local__pre_FilteredVSense16 = _Pacemaker1_local__reg_FilteredVSense16;
  800ac0:	d0a740c3 	ldbu	r2,-25341(gp)
  800ac4:	d0a76205 	stb	r2,-25208(gp)
      }
      g118 =(PRE_g117);
  800ac8:	d0a77c43 	ldbu	r2,-25103(gp)
  800acc:	d0a74945 	stb	r2,-25307(gp)
      g116 = g1;
  800ad0:	d0a74203 	ldbu	r2,-25336(gp)
  800ad4:	d0a76c85 	stb	r2,-25166(gp)
      g117 =(g118||g116);
  800ad8:	d0a74943 	ldbu	r2,-25307(gp)
  800adc:	10803fcc 	andi	r2,r2,255
  800ae0:	1080201c 	xori	r2,r2,128
  800ae4:	10bfe004 	addi	r2,r2,-128
  800ae8:	1000051e 	bne	r2,zero,800b00 <tick+0x12c>
  800aec:	d0a76c83 	ldbu	r2,-25166(gp)
  800af0:	10803fcc 	andi	r2,r2,255
  800af4:	1080201c 	xori	r2,r2,128
  800af8:	10bfe004 	addi	r2,r2,-128
  800afc:	10000226 	beq	r2,zero,800b08 <tick+0x134>
  800b00:	00800044 	movi	r2,1
  800b04:	00000106 	br	800b0c <tick+0x138>
  800b08:	0005883a 	mov	r2,zero
  800b0c:	d0a74cc5 	stb	r2,-25293(gp)
      if(g117){
  800b10:	d0a74cc3 	ldbu	r2,-25293(gp)
  800b14:	10803fcc 	andi	r2,r2,255
  800b18:	1080201c 	xori	r2,r2,128
  800b1c:	10bfe004 	addi	r2,r2,-128
  800b20:	10000826 	beq	r2,zero,800b44 <tick+0x170>
         _Pacemaker1_local_LRI_ex = 0;
  800b24:	d0275985 	stb	zero,-25242(gp)
         _Pacemaker1_local_LRI_stop = 0;
  800b28:	d0275885 	stb	zero,-25246(gp)
         _Pacemaker1_local_VRP_ex = 0;
  800b2c:	d0274b05 	stb	zero,-25300(gp)
         _Pacemaker1_local_AVI_ex = 0;
  800b30:	d02762c5 	stb	zero,-25205(gp)
         _Pacemaker1_local_PVARP_ex = 0;
  800b34:	d0274fc5 	stb	zero,-25281(gp)
         _Pacemaker1_local_AEI_ex = 0;
  800b38:	d0275545 	stb	zero,-25259(gp)
         _Pacemaker1_local_FilteredASense = 0;
  800b3c:	d0275a05 	stb	zero,-25240(gp)
         _Pacemaker1_local_FilteredVSense = 0;
  800b40:	d02755c5 	stb	zero,-25257(gp)
      }
      g35 =(PRE_g34);
  800b44:	d0a74643 	ldbu	r2,-25319(gp)
  800b48:	d0a75b05 	stb	r2,-25236(gp)
      g35b = g35;
  800b4c:	d0a75b03 	ldbu	r2,-25236(gp)
  800b50:	d0a75945 	stb	r2,-25243(gp)
      _cg35 = _Pacemaker1_local__pre_FilteredVSense16;
  800b54:	d0a76203 	ldbu	r2,-25208(gp)
  800b58:	d0a74545 	stb	r2,-25323(gp)
      g131 =(PRE_g130);
  800b5c:	d0a76a03 	ldbu	r2,-25176(gp)
  800b60:	d0a756c5 	stb	r2,-25253(gp)
      if(g131){
  800b64:	d0a756c3 	ldbu	r2,-25253(gp)
  800b68:	10803fcc 	andi	r2,r2,255
  800b6c:	1080201c 	xori	r2,r2,128
  800b70:	10bfe004 	addi	r2,r2,-128
  800b74:	10000226 	beq	r2,zero,800b80 <tick+0x1ac>
         _pre_VPace9 = _reg_VPace9;
  800b78:	d0a75ac3 	ldbu	r2,-25237(gp)
  800b7c:	d0a77ac5 	stb	r2,-25109(gp)
      }
      g39 =(g35b&&(!(_cg35)));
  800b80:	d0a75943 	ldbu	r2,-25243(gp)
  800b84:	10803fcc 	andi	r2,r2,255
  800b88:	1080201c 	xori	r2,r2,128
  800b8c:	10bfe004 	addi	r2,r2,-128
  800b90:	10000726 	beq	r2,zero,800bb0 <tick+0x1dc>
  800b94:	d0a74543 	ldbu	r2,-25323(gp)
  800b98:	10803fcc 	andi	r2,r2,255
  800b9c:	1080201c 	xori	r2,r2,128
  800ba0:	10bfe004 	addi	r2,r2,-128
  800ba4:	1000021e 	bne	r2,zero,800bb0 <tick+0x1dc>
  800ba8:	00800044 	movi	r2,1
  800bac:	00000106 	br	800bb4 <tick+0x1e0>
  800bb0:	0005883a 	mov	r2,zero
  800bb4:	d0a777c5 	stb	r2,-25121(gp)
      _cg39 = _pre_VPace9;
  800bb8:	d0a77ac3 	ldbu	r2,-25109(gp)
  800bbc:	d0a77d85 	stb	r2,-25098(gp)
      g36 =((g35b&&_cg35)||(g39&&_cg39));
  800bc0:	d0a75943 	ldbu	r2,-25243(gp)
  800bc4:	10803fcc 	andi	r2,r2,255
  800bc8:	1080201c 	xori	r2,r2,128
  800bcc:	10bfe004 	addi	r2,r2,-128
  800bd0:	10000526 	beq	r2,zero,800be8 <tick+0x214>
  800bd4:	d0a74543 	ldbu	r2,-25323(gp)
  800bd8:	10803fcc 	andi	r2,r2,255
  800bdc:	1080201c 	xori	r2,r2,128
  800be0:	10bfe004 	addi	r2,r2,-128
  800be4:	10000a1e 	bne	r2,zero,800c10 <tick+0x23c>
  800be8:	d0a777c3 	ldbu	r2,-25121(gp)
  800bec:	10803fcc 	andi	r2,r2,255
  800bf0:	1080201c 	xori	r2,r2,128
  800bf4:	10bfe004 	addi	r2,r2,-128
  800bf8:	10000726 	beq	r2,zero,800c18 <tick+0x244>
  800bfc:	d0a77d83 	ldbu	r2,-25098(gp)
  800c00:	10803fcc 	andi	r2,r2,255
  800c04:	1080201c 	xori	r2,r2,128
  800c08:	10bfe004 	addi	r2,r2,-128
  800c0c:	10000226 	beq	r2,zero,800c18 <tick+0x244>
  800c10:	00800044 	movi	r2,1
  800c14:	00000106 	br	800c1c <tick+0x248>
  800c18:	0005883a 	mov	r2,zero
  800c1c:	d0a763c5 	stb	r2,-25201(gp)
      if(g36){
  800c20:	d0a763c3 	ldbu	r2,-25201(gp)
  800c24:	10803fcc 	andi	r2,r2,255
  800c28:	1080201c 	xori	r2,r2,128
  800c2c:	10bfe004 	addi	r2,r2,-128
  800c30:	10000226 	beq	r2,zero,800c3c <tick+0x268>
         _Pacemaker1_local_LRI_stop =(_Pacemaker1_local_LRI_stop||1);
  800c34:	00800044 	movi	r2,1
  800c38:	d0a75885 	stb	r2,-25246(gp)
      }
      g23 =(PRE_g22);
  800c3c:	d0a759c3 	ldbu	r2,-25241(gp)
  800c40:	d0a75305 	stb	r2,-25268(gp)
      g23b = g23;
  800c44:	d0a75303 	ldbu	r2,-25268(gp)
  800c48:	d0a76005 	stb	r2,-25216(gp)
      _cg23 = _Pacemaker1_local_LRI_stop;
  800c4c:	d0a75883 	ldbu	r2,-25246(gp)
  800c50:	d0a77585 	stb	r2,-25130(gp)
      g24 =(g23b&&(!(_cg23)));
  800c54:	d0a76003 	ldbu	r2,-25216(gp)
  800c58:	10803fcc 	andi	r2,r2,255
  800c5c:	1080201c 	xori	r2,r2,128
  800c60:	10bfe004 	addi	r2,r2,-128
  800c64:	10000726 	beq	r2,zero,800c84 <tick+0x2b0>
  800c68:	d0a77583 	ldbu	r2,-25130(gp)
  800c6c:	10803fcc 	andi	r2,r2,255
  800c70:	1080201c 	xori	r2,r2,128
  800c74:	10bfe004 	addi	r2,r2,-128
  800c78:	1000021e 	bne	r2,zero,800c84 <tick+0x2b0>
  800c7c:	00800044 	movi	r2,1
  800c80:	00000106 	br	800c88 <tick+0x2b4>
  800c84:	0005883a 	mov	r2,zero
  800c88:	d0a77985 	stb	r2,-25114(gp)
      _cg24 = LRITO;
  800c8c:	d0a73b83 	ldbu	r2,-25362(gp)
  800c90:	d0a770c5 	stb	r2,-25149(gp)
      g25 =(g24&&_cg24);
  800c94:	d0a77983 	ldbu	r2,-25114(gp)
  800c98:	10803fcc 	andi	r2,r2,255
  800c9c:	1080201c 	xori	r2,r2,128
  800ca0:	10bfe004 	addi	r2,r2,-128
  800ca4:	10000726 	beq	r2,zero,800cc4 <tick+0x2f0>
  800ca8:	d0a770c3 	ldbu	r2,-25149(gp)
  800cac:	10803fcc 	andi	r2,r2,255
  800cb0:	1080201c 	xori	r2,r2,128
  800cb4:	10bfe004 	addi	r2,r2,-128
  800cb8:	10000226 	beq	r2,zero,800cc4 <tick+0x2f0>
  800cbc:	00800044 	movi	r2,1
  800cc0:	00000106 	br	800cc8 <tick+0x2f4>
  800cc4:	0005883a 	mov	r2,zero
  800cc8:	d0a771c5 	stb	r2,-25145(gp)
      if(g25){
  800ccc:	d0a771c3 	ldbu	r2,-25145(gp)
  800cd0:	10803fcc 	andi	r2,r2,255
  800cd4:	1080201c 	xori	r2,r2,128
  800cd8:	10bfe004 	addi	r2,r2,-128
  800cdc:	10000226 	beq	r2,zero,800ce8 <tick+0x314>
         _Pacemaker1_local_LRI_ex =(_Pacemaker1_local_LRI_ex||1);
  800ce0:	00800044 	movi	r2,1
  800ce4:	d0a75985 	stb	r2,-25242(gp)
      }
      g40 =(g39&&(!(_cg39)));
  800ce8:	d0a777c3 	ldbu	r2,-25121(gp)
  800cec:	10803fcc 	andi	r2,r2,255
  800cf0:	1080201c 	xori	r2,r2,128
  800cf4:	10bfe004 	addi	r2,r2,-128
  800cf8:	10000726 	beq	r2,zero,800d18 <tick+0x344>
  800cfc:	d0a77d83 	ldbu	r2,-25098(gp)
  800d00:	10803fcc 	andi	r2,r2,255
  800d04:	1080201c 	xori	r2,r2,128
  800d08:	10bfe004 	addi	r2,r2,-128
  800d0c:	1000021e 	bne	r2,zero,800d18 <tick+0x344>
  800d10:	00800044 	movi	r2,1
  800d14:	00000106 	br	800d1c <tick+0x348>
  800d18:	0005883a 	mov	r2,zero
  800d1c:	d0a73505 	stb	r2,-25388(gp)
      _cg40 = _Pacemaker1_local_LRI_ex;
  800d20:	d0a75983 	ldbu	r2,-25242(gp)
  800d24:	d0a76f85 	stb	r2,-25154(gp)
      g41 =(g40&&_cg40);
  800d28:	d0a73503 	ldbu	r2,-25388(gp)
  800d2c:	10803fcc 	andi	r2,r2,255
  800d30:	1080201c 	xori	r2,r2,128
  800d34:	10bfe004 	addi	r2,r2,-128
  800d38:	10000726 	beq	r2,zero,800d58 <tick+0x384>
  800d3c:	d0a76f83 	ldbu	r2,-25154(gp)
  800d40:	10803fcc 	andi	r2,r2,255
  800d44:	1080201c 	xori	r2,r2,128
  800d48:	10bfe004 	addi	r2,r2,-128
  800d4c:	10000226 	beq	r2,zero,800d58 <tick+0x384>
  800d50:	00800044 	movi	r2,1
  800d54:	00000106 	br	800d5c <tick+0x388>
  800d58:	0005883a 	mov	r2,zero
  800d5c:	d0a74885 	stb	r2,-25310(gp)
      if(g41){
  800d60:	d0a74883 	ldbu	r2,-25310(gp)
  800d64:	10803fcc 	andi	r2,r2,255
  800d68:	1080201c 	xori	r2,r2,128
  800d6c:	10bfe004 	addi	r2,r2,-128
  800d70:	10000226 	beq	r2,zero,800d7c <tick+0x3a8>
         VPace =(VPace||1);
  800d74:	00800044 	movi	r2,1
  800d78:	d0a77745 	stb	r2,-25123(gp)
      }
      g61 =(PRE_g60);
  800d7c:	d0a767c3 	ldbu	r2,-25185(gp)
  800d80:	d0a74245 	stb	r2,-25335(gp)
      g61b = g61;
  800d84:	d0a74243 	ldbu	r2,-25335(gp)
  800d88:	d0a74685 	stb	r2,-25318(gp)
      _cg61 = _Pacemaker1_local__pre_FilteredVSense16;
  800d8c:	d0a76203 	ldbu	r2,-25208(gp)
  800d90:	d0a748c5 	stb	r2,-25309(gp)
      g63 =(g61b&&(!(_cg61)));
  800d94:	d0a74683 	ldbu	r2,-25318(gp)
  800d98:	10803fcc 	andi	r2,r2,255
  800d9c:	1080201c 	xori	r2,r2,128
  800da0:	10bfe004 	addi	r2,r2,-128
  800da4:	10000726 	beq	r2,zero,800dc4 <tick+0x3f0>
  800da8:	d0a748c3 	ldbu	r2,-25309(gp)
  800dac:	10803fcc 	andi	r2,r2,255
  800db0:	1080201c 	xori	r2,r2,128
  800db4:	10bfe004 	addi	r2,r2,-128
  800db8:	1000021e 	bne	r2,zero,800dc4 <tick+0x3f0>
  800dbc:	00800044 	movi	r2,1
  800dc0:	00000106 	br	800dc8 <tick+0x3f4>
  800dc4:	0005883a 	mov	r2,zero
  800dc8:	d0a75e85 	stb	r2,-25222(gp)
      _cg63 = VPace;
  800dcc:	d0a77743 	ldbu	r2,-25123(gp)
  800dd0:	d0a74d45 	stb	r2,-25291(gp)
      g64 =(g63&&(!(_cg63)));
  800dd4:	d0a75e83 	ldbu	r2,-25222(gp)
  800dd8:	10803fcc 	andi	r2,r2,255
  800ddc:	1080201c 	xori	r2,r2,128
  800de0:	10bfe004 	addi	r2,r2,-128
  800de4:	10000726 	beq	r2,zero,800e04 <tick+0x430>
  800de8:	d0a74d43 	ldbu	r2,-25291(gp)
  800dec:	10803fcc 	andi	r2,r2,255
  800df0:	1080201c 	xori	r2,r2,128
  800df4:	10bfe004 	addi	r2,r2,-128
  800df8:	1000021e 	bne	r2,zero,800e04 <tick+0x430>
  800dfc:	00800044 	movi	r2,1
  800e00:	00000106 	br	800e08 <tick+0x434>
  800e04:	0005883a 	mov	r2,zero
  800e08:	d0a74dc5 	stb	r2,-25289(gp)
      _cg64 = _Pacemaker1_local__pre_AVI_ex16;
  800e0c:	d0a74c03 	ldbu	r2,-25296(gp)
  800e10:	d0a75a85 	stb	r2,-25238(gp)
      g65 =(g64&&_cg64);
  800e14:	d0a74dc3 	ldbu	r2,-25289(gp)
  800e18:	10803fcc 	andi	r2,r2,255
  800e1c:	1080201c 	xori	r2,r2,128
  800e20:	10bfe004 	addi	r2,r2,-128
  800e24:	10000726 	beq	r2,zero,800e44 <tick+0x470>
  800e28:	d0a75a83 	ldbu	r2,-25238(gp)
  800e2c:	10803fcc 	andi	r2,r2,255
  800e30:	1080201c 	xori	r2,r2,128
  800e34:	10bfe004 	addi	r2,r2,-128
  800e38:	10000226 	beq	r2,zero,800e44 <tick+0x470>
  800e3c:	00800044 	movi	r2,1
  800e40:	00000106 	br	800e48 <tick+0x474>
  800e44:	0005883a 	mov	r2,zero
  800e48:	d0a77285 	stb	r2,-25142(gp)
      if(g65){
  800e4c:	d0a77283 	ldbu	r2,-25142(gp)
  800e50:	10803fcc 	andi	r2,r2,255
  800e54:	1080201c 	xori	r2,r2,128
  800e58:	10bfe004 	addi	r2,r2,-128
  800e5c:	10000226 	beq	r2,zero,800e68 <tick+0x494>
         VPace =(VPace||1);
  800e60:	00800044 	movi	r2,1
  800e64:	d0a77745 	stb	r2,-25123(gp)
      }
      g62 =(g65||(g61b&&_cg61)||(g63&&_cg63));
  800e68:	d0a77283 	ldbu	r2,-25142(gp)
  800e6c:	10803fcc 	andi	r2,r2,255
  800e70:	1080201c 	xori	r2,r2,128
  800e74:	10bfe004 	addi	r2,r2,-128
  800e78:	1000141e 	bne	r2,zero,800ecc <tick+0x4f8>
  800e7c:	d0a74683 	ldbu	r2,-25318(gp)
  800e80:	10803fcc 	andi	r2,r2,255
  800e84:	1080201c 	xori	r2,r2,128
  800e88:	10bfe004 	addi	r2,r2,-128
  800e8c:	10000526 	beq	r2,zero,800ea4 <tick+0x4d0>
  800e90:	d0a748c3 	ldbu	r2,-25309(gp)
  800e94:	10803fcc 	andi	r2,r2,255
  800e98:	1080201c 	xori	r2,r2,128
  800e9c:	10bfe004 	addi	r2,r2,-128
  800ea0:	10000a1e 	bne	r2,zero,800ecc <tick+0x4f8>
  800ea4:	d0a75e83 	ldbu	r2,-25222(gp)
  800ea8:	10803fcc 	andi	r2,r2,255
  800eac:	1080201c 	xori	r2,r2,128
  800eb0:	10bfe004 	addi	r2,r2,-128
  800eb4:	10000726 	beq	r2,zero,800ed4 <tick+0x500>
  800eb8:	d0a74d43 	ldbu	r2,-25291(gp)
  800ebc:	10803fcc 	andi	r2,r2,255
  800ec0:	1080201c 	xori	r2,r2,128
  800ec4:	10bfe004 	addi	r2,r2,-128
  800ec8:	10000226 	beq	r2,zero,800ed4 <tick+0x500>
  800ecc:	00800044 	movi	r2,1
  800ed0:	00000106 	br	800ed8 <tick+0x504>
  800ed4:	0005883a 	mov	r2,zero
  800ed8:	d0a74805 	stb	r2,-25312(gp)
      if(g62){
  800edc:	d0a74803 	ldbu	r2,-25312(gp)
  800ee0:	10803fcc 	andi	r2,r2,255
  800ee4:	1080201c 	xori	r2,r2,128
  800ee8:	10bfe004 	addi	r2,r2,-128
  800eec:	10000226 	beq	r2,zero,800ef8 <tick+0x524>
         AVI_stop =(AVI_stop||1);
  800ef0:	00800044 	movi	r2,1
  800ef4:	d0a74145 	stb	r2,-25339(gp)
      }
      g57 =(PRE_g56);
  800ef8:	d0a73f03 	ldbu	r2,-25348(gp)
  800efc:	d0a76b85 	stb	r2,-25170(gp)
      g57b = g57;
  800f00:	d0a76b83 	ldbu	r2,-25170(gp)
  800f04:	d0a765c5 	stb	r2,-25193(gp)
      _cg57 = _Pacemaker1_local__pre_FilteredVSense16;
  800f08:	d0a76203 	ldbu	r2,-25208(gp)
  800f0c:	d0a77145 	stb	r2,-25147(gp)
      g58 =(g57b&&_cg57);
  800f10:	d0a765c3 	ldbu	r2,-25193(gp)
  800f14:	10803fcc 	andi	r2,r2,255
  800f18:	1080201c 	xori	r2,r2,128
  800f1c:	10bfe004 	addi	r2,r2,-128
  800f20:	10000726 	beq	r2,zero,800f40 <tick+0x56c>
  800f24:	d0a77143 	ldbu	r2,-25147(gp)
  800f28:	10803fcc 	andi	r2,r2,255
  800f2c:	1080201c 	xori	r2,r2,128
  800f30:	10bfe004 	addi	r2,r2,-128
  800f34:	10000226 	beq	r2,zero,800f40 <tick+0x56c>
  800f38:	00800044 	movi	r2,1
  800f3c:	00000106 	br	800f44 <tick+0x570>
  800f40:	0005883a 	mov	r2,zero
  800f44:	d0a77105 	stb	r2,-25148(gp)
      if(g58){
  800f48:	d0a77103 	ldbu	r2,-25148(gp)
  800f4c:	10803fcc 	andi	r2,r2,255
  800f50:	1080201c 	xori	r2,r2,128
  800f54:	10bfe004 	addi	r2,r2,-128
  800f58:	10000226 	beq	r2,zero,800f64 <tick+0x590>
         AVI_stop =(AVI_stop||1);
  800f5c:	00800044 	movi	r2,1
  800f60:	d0a74145 	stb	r2,-25339(gp)
      }
      g12 =(PRE_g11);
  800f64:	d0a75d83 	ldbu	r2,-25226(gp)
  800f68:	d0a74445 	stb	r2,-25327(gp)
      g12b = g12;
  800f6c:	d0a74443 	ldbu	r2,-25327(gp)
  800f70:	d0a77785 	stb	r2,-25122(gp)
      _cg12 = AVI_stop;
  800f74:	d0a74143 	ldbu	r2,-25339(gp)
  800f78:	d0a74045 	stb	r2,-25343(gp)
      g13 =(g12b&&_cg12);
  800f7c:	d0a77783 	ldbu	r2,-25122(gp)
  800f80:	10803fcc 	andi	r2,r2,255
  800f84:	1080201c 	xori	r2,r2,128
  800f88:	10bfe004 	addi	r2,r2,-128
  800f8c:	10000726 	beq	r2,zero,800fac <tick+0x5d8>
  800f90:	d0a74043 	ldbu	r2,-25343(gp)
  800f94:	10803fcc 	andi	r2,r2,255
  800f98:	1080201c 	xori	r2,r2,128
  800f9c:	10bfe004 	addi	r2,r2,-128
  800fa0:	10000226 	beq	r2,zero,800fac <tick+0x5d8>
  800fa4:	00800044 	movi	r2,1
  800fa8:	00000106 	br	800fb0 <tick+0x5dc>
  800fac:	0005883a 	mov	r2,zero
  800fb0:	d0a76a45 	stb	r2,-25175(gp)
      if(g13){
  800fb4:	d0a76a43 	ldbu	r2,-25175(gp)
  800fb8:	10803fcc 	andi	r2,r2,255
  800fbc:	1080201c 	xori	r2,r2,128
  800fc0:	10bfe004 	addi	r2,r2,-128
  800fc4:	10000226 	beq	r2,zero,800fd0 <tick+0x5fc>
         VRP_start =(VRP_start||1);
  800fc8:	00800044 	movi	r2,1
  800fcc:	d0a75805 	stb	r2,-25248(gp)
      }
      g4 =(PRE_g3);
  800fd0:	d0a73d03 	ldbu	r2,-25356(gp)
  800fd4:	d0a73685 	stb	r2,-25382(gp)
      g4b = g4;
  800fd8:	d0a73683 	ldbu	r2,-25382(gp)
  800fdc:	d0a77b45 	stb	r2,-25107(gp)
      _cg4 = AVI_stop;
  800fe0:	d0a74143 	ldbu	r2,-25339(gp)
  800fe4:	d0a77905 	stb	r2,-25116(gp)
      g8 =(g4b&&(!(_cg4)));
  800fe8:	d0a77b43 	ldbu	r2,-25107(gp)
  800fec:	10803fcc 	andi	r2,r2,255
  800ff0:	1080201c 	xori	r2,r2,128
  800ff4:	10bfe004 	addi	r2,r2,-128
  800ff8:	10000726 	beq	r2,zero,801018 <tick+0x644>
  800ffc:	d0a77903 	ldbu	r2,-25116(gp)
  801000:	10803fcc 	andi	r2,r2,255
  801004:	1080201c 	xori	r2,r2,128
  801008:	10bfe004 	addi	r2,r2,-128
  80100c:	1000021e 	bne	r2,zero,801018 <tick+0x644>
  801010:	00800044 	movi	r2,1
  801014:	00000106 	br	80101c <tick+0x648>
  801018:	0005883a 	mov	r2,zero
  80101c:	d0a76b45 	stb	r2,-25171(gp)
      _cg8 = VRP_start;
  801020:	d0a75803 	ldbu	r2,-25248(gp)
  801024:	d0a74085 	stb	r2,-25342(gp)
      g6 =(PRE_g5);
  801028:	d0a776c3 	ldbu	r2,-25125(gp)
  80102c:	d0a76cc5 	stb	r2,-25165(gp)
      _cg6 = VRPTO;
  801030:	d0a75d43 	ldbu	r2,-25227(gp)
  801034:	d0a75485 	stb	r2,-25262(gp)
      g7 =(g6&&_cg6);
  801038:	d0a76cc3 	ldbu	r2,-25165(gp)
  80103c:	10803fcc 	andi	r2,r2,255
  801040:	1080201c 	xori	r2,r2,128
  801044:	10bfe004 	addi	r2,r2,-128
  801048:	10000726 	beq	r2,zero,801068 <tick+0x694>
  80104c:	d0a75483 	ldbu	r2,-25262(gp)
  801050:	10803fcc 	andi	r2,r2,255
  801054:	1080201c 	xori	r2,r2,128
  801058:	10bfe004 	addi	r2,r2,-128
  80105c:	10000226 	beq	r2,zero,801068 <tick+0x694>
  801060:	00800044 	movi	r2,1
  801064:	00000106 	br	80106c <tick+0x698>
  801068:	0005883a 	mov	r2,zero
  80106c:	d0a75045 	stb	r2,-25279(gp)
      if(g7){
  801070:	d0a75043 	ldbu	r2,-25279(gp)
  801074:	10803fcc 	andi	r2,r2,255
  801078:	1080201c 	xori	r2,r2,128
  80107c:	10bfe004 	addi	r2,r2,-128
  801080:	10000226 	beq	r2,zero,80108c <tick+0x6b8>
         _Pacemaker1_local_VRP_ex =(_Pacemaker1_local_VRP_ex||1);
  801084:	00800044 	movi	r2,1
  801088:	d0a74b05 	stb	r2,-25300(gp)
      }
      g3 =((g8&&(!(_cg8)))||g7||g2);
  80108c:	d0a76b43 	ldbu	r2,-25171(gp)
  801090:	10803fcc 	andi	r2,r2,255
  801094:	1080201c 	xori	r2,r2,128
  801098:	10bfe004 	addi	r2,r2,-128
  80109c:	10000526 	beq	r2,zero,8010b4 <tick+0x6e0>
  8010a0:	d0a74083 	ldbu	r2,-25342(gp)
  8010a4:	10803fcc 	andi	r2,r2,255
  8010a8:	1080201c 	xori	r2,r2,128
  8010ac:	10bfe004 	addi	r2,r2,-128
  8010b0:	10000a26 	beq	r2,zero,8010dc <tick+0x708>
  8010b4:	d0a75043 	ldbu	r2,-25279(gp)
  8010b8:	10803fcc 	andi	r2,r2,255
  8010bc:	1080201c 	xori	r2,r2,128
  8010c0:	10bfe004 	addi	r2,r2,-128
  8010c4:	1000051e 	bne	r2,zero,8010dc <tick+0x708>
  8010c8:	d0a75003 	ldbu	r2,-25280(gp)
  8010cc:	10803fcc 	andi	r2,r2,255
  8010d0:	1080201c 	xori	r2,r2,128
  8010d4:	10bfe004 	addi	r2,r2,-128
  8010d8:	10000226 	beq	r2,zero,8010e4 <tick+0x710>
  8010dc:	00800044 	movi	r2,1
  8010e0:	00000106 	br	8010e8 <tick+0x714>
  8010e4:	0005883a 	mov	r2,zero
  8010e8:	d0a739c5 	stb	r2,-25369(gp)
      g5 =((g4b&&_cg4)||(g8&&_cg8)||(g6&&(!(_cg6))));
  8010ec:	d0a77b43 	ldbu	r2,-25107(gp)
  8010f0:	10803fcc 	andi	r2,r2,255
  8010f4:	1080201c 	xori	r2,r2,128
  8010f8:	10bfe004 	addi	r2,r2,-128
  8010fc:	10000526 	beq	r2,zero,801114 <tick+0x740>
  801100:	d0a77903 	ldbu	r2,-25116(gp)
  801104:	10803fcc 	andi	r2,r2,255
  801108:	1080201c 	xori	r2,r2,128
  80110c:	10bfe004 	addi	r2,r2,-128
  801110:	1000141e 	bne	r2,zero,801164 <tick+0x790>
  801114:	d0a76b43 	ldbu	r2,-25171(gp)
  801118:	10803fcc 	andi	r2,r2,255
  80111c:	1080201c 	xori	r2,r2,128
  801120:	10bfe004 	addi	r2,r2,-128
  801124:	10000526 	beq	r2,zero,80113c <tick+0x768>
  801128:	d0a74083 	ldbu	r2,-25342(gp)
  80112c:	10803fcc 	andi	r2,r2,255
  801130:	1080201c 	xori	r2,r2,128
  801134:	10bfe004 	addi	r2,r2,-128
  801138:	10000a1e 	bne	r2,zero,801164 <tick+0x790>
  80113c:	d0a76cc3 	ldbu	r2,-25165(gp)
  801140:	10803fcc 	andi	r2,r2,255
  801144:	1080201c 	xori	r2,r2,128
  801148:	10bfe004 	addi	r2,r2,-128
  80114c:	10000726 	beq	r2,zero,80116c <tick+0x798>
  801150:	d0a75483 	ldbu	r2,-25262(gp)
  801154:	10803fcc 	andi	r2,r2,255
  801158:	1080201c 	xori	r2,r2,128
  80115c:	10bfe004 	addi	r2,r2,-128
  801160:	1000021e 	bne	r2,zero,80116c <tick+0x798>
  801164:	00800044 	movi	r2,1
  801168:	00000106 	br	801170 <tick+0x79c>
  80116c:	0005883a 	mov	r2,zero
  801170:	d0a74ec5 	stb	r2,-25285(gp)
      g10 = g1;
  801174:	d0a74203 	ldbu	r2,-25336(gp)
  801178:	d0a77bc5 	stb	r2,-25105(gp)
      g16 =(g12b&&(!(_cg12)));
  80117c:	d0a77783 	ldbu	r2,-25122(gp)
  801180:	10803fcc 	andi	r2,r2,255
  801184:	1080201c 	xori	r2,r2,128
  801188:	10bfe004 	addi	r2,r2,-128
  80118c:	10000726 	beq	r2,zero,8011ac <tick+0x7d8>
  801190:	d0a74043 	ldbu	r2,-25343(gp)
  801194:	10803fcc 	andi	r2,r2,255
  801198:	1080201c 	xori	r2,r2,128
  80119c:	10bfe004 	addi	r2,r2,-128
  8011a0:	1000021e 	bne	r2,zero,8011ac <tick+0x7d8>
  8011a4:	00800044 	movi	r2,1
  8011a8:	00000106 	br	8011b0 <tick+0x7dc>
  8011ac:	0005883a 	mov	r2,zero
  8011b0:	d0a77045 	stb	r2,-25151(gp)
      _cg16 = VSense;
  8011b4:	d0a75703 	ldbu	r2,-25252(gp)
  8011b8:	d0a750c5 	stb	r2,-25277(gp)
      g17 =(g16&&_cg16);
  8011bc:	d0a77043 	ldbu	r2,-25151(gp)
  8011c0:	10803fcc 	andi	r2,r2,255
  8011c4:	1080201c 	xori	r2,r2,128
  8011c8:	10bfe004 	addi	r2,r2,-128
  8011cc:	10000726 	beq	r2,zero,8011ec <tick+0x818>
  8011d0:	d0a750c3 	ldbu	r2,-25277(gp)
  8011d4:	10803fcc 	andi	r2,r2,255
  8011d8:	1080201c 	xori	r2,r2,128
  8011dc:	10bfe004 	addi	r2,r2,-128
  8011e0:	10000226 	beq	r2,zero,8011ec <tick+0x818>
  8011e4:	00800044 	movi	r2,1
  8011e8:	00000106 	br	8011f0 <tick+0x81c>
  8011ec:	0005883a 	mov	r2,zero
  8011f0:	d0a745c5 	stb	r2,-25321(gp)
      if(g17){
  8011f4:	d0a745c3 	ldbu	r2,-25321(gp)
  8011f8:	10803fcc 	andi	r2,r2,255
  8011fc:	1080201c 	xori	r2,r2,128
  801200:	10bfe004 	addi	r2,r2,-128
  801204:	10000226 	beq	r2,zero,801210 <tick+0x83c>
         _Pacemaker1_local_FilteredVSense =(_Pacemaker1_local_FilteredVSense||1);
  801208:	00800044 	movi	r2,1
  80120c:	d0a755c5 	stb	r2,-25257(gp)
      }
      g15 =(PRE_g14);
  801210:	d0a76383 	ldbu	r2,-25202(gp)
  801214:	d0a75b45 	stb	r2,-25235(gp)
      g15b = g15;
  801218:	d0a75b43 	ldbu	r2,-25235(gp)
  80121c:	d0a74a05 	stb	r2,-25304(gp)
      _cg15 = _Pacemaker1_local_VRP_ex;
  801220:	d0a74b03 	ldbu	r2,-25300(gp)
  801224:	d0a73ec5 	stb	r2,-25349(gp)
      g11 =(g17||g10||(g15b&&_cg15)||(g16&&(!(_cg16))));
  801228:	d0a745c3 	ldbu	r2,-25321(gp)
  80122c:	10803fcc 	andi	r2,r2,255
  801230:	1080201c 	xori	r2,r2,128
  801234:	10bfe004 	addi	r2,r2,-128
  801238:	1000191e 	bne	r2,zero,8012a0 <tick+0x8cc>
  80123c:	d0a77bc3 	ldbu	r2,-25105(gp)
  801240:	10803fcc 	andi	r2,r2,255
  801244:	1080201c 	xori	r2,r2,128
  801248:	10bfe004 	addi	r2,r2,-128
  80124c:	1000141e 	bne	r2,zero,8012a0 <tick+0x8cc>
  801250:	d0a74a03 	ldbu	r2,-25304(gp)
  801254:	10803fcc 	andi	r2,r2,255
  801258:	1080201c 	xori	r2,r2,128
  80125c:	10bfe004 	addi	r2,r2,-128
  801260:	10000526 	beq	r2,zero,801278 <tick+0x8a4>
  801264:	d0a73ec3 	ldbu	r2,-25349(gp)
  801268:	10803fcc 	andi	r2,r2,255
  80126c:	1080201c 	xori	r2,r2,128
  801270:	10bfe004 	addi	r2,r2,-128
  801274:	10000a1e 	bne	r2,zero,8012a0 <tick+0x8cc>
  801278:	d0a77043 	ldbu	r2,-25151(gp)
  80127c:	10803fcc 	andi	r2,r2,255
  801280:	1080201c 	xori	r2,r2,128
  801284:	10bfe004 	addi	r2,r2,-128
  801288:	10000726 	beq	r2,zero,8012a8 <tick+0x8d4>
  80128c:	d0a750c3 	ldbu	r2,-25277(gp)
  801290:	10803fcc 	andi	r2,r2,255
  801294:	1080201c 	xori	r2,r2,128
  801298:	10bfe004 	addi	r2,r2,-128
  80129c:	1000021e 	bne	r2,zero,8012a8 <tick+0x8d4>
  8012a0:	00800044 	movi	r2,1
  8012a4:	00000106 	br	8012ac <tick+0x8d8>
  8012a8:	0005883a 	mov	r2,zero
  8012ac:	d0a77245 	stb	r2,-25143(gp)
      g14 =((g15b&&(!(_cg15)))||g13);
  8012b0:	d0a74a03 	ldbu	r2,-25304(gp)
  8012b4:	10803fcc 	andi	r2,r2,255
  8012b8:	1080201c 	xori	r2,r2,128
  8012bc:	10bfe004 	addi	r2,r2,-128
  8012c0:	10000526 	beq	r2,zero,8012d8 <tick+0x904>
  8012c4:	d0a73ec3 	ldbu	r2,-25349(gp)
  8012c8:	10803fcc 	andi	r2,r2,255
  8012cc:	1080201c 	xori	r2,r2,128
  8012d0:	10bfe004 	addi	r2,r2,-128
  8012d4:	10000526 	beq	r2,zero,8012ec <tick+0x918>
  8012d8:	d0a76a43 	ldbu	r2,-25175(gp)
  8012dc:	10803fcc 	andi	r2,r2,255
  8012e0:	1080201c 	xori	r2,r2,128
  8012e4:	10bfe004 	addi	r2,r2,-128
  8012e8:	10000226 	beq	r2,zero,8012f4 <tick+0x920>
  8012ec:	00800044 	movi	r2,1
  8012f0:	00000106 	br	8012f8 <tick+0x924>
  8012f4:	0005883a 	mov	r2,zero
  8012f8:	d0a75445 	stb	r2,-25263(gp)
      g19 = g1;
  8012fc:	d0a74203 	ldbu	r2,-25336(gp)
  801300:	d0a73705 	stb	r2,-25380(gp)
      g30 =(PRE_g29);
  801304:	d0a73d83 	ldbu	r2,-25354(gp)
  801308:	d0a76f45 	stb	r2,-25155(gp)
      g30b = g30;
  80130c:	d0a76f43 	ldbu	r2,-25155(gp)
  801310:	d0a74c85 	stb	r2,-25294(gp)
      _cg30 = _Pacemaker1_local_FilteredVSense;
  801314:	d0a755c3 	ldbu	r2,-25257(gp)
  801318:	d0a77005 	stb	r2,-25152(gp)
      g42 =(g30b&&(!(_cg30)));
  80131c:	d0a74c83 	ldbu	r2,-25294(gp)
  801320:	10803fcc 	andi	r2,r2,255
  801324:	1080201c 	xori	r2,r2,128
  801328:	10bfe004 	addi	r2,r2,-128
  80132c:	10000726 	beq	r2,zero,80134c <tick+0x978>
  801330:	d0a77003 	ldbu	r2,-25152(gp)
  801334:	10803fcc 	andi	r2,r2,255
  801338:	1080201c 	xori	r2,r2,128
  80133c:	10bfe004 	addi	r2,r2,-128
  801340:	1000021e 	bne	r2,zero,80134c <tick+0x978>
  801344:	00800044 	movi	r2,1
  801348:	00000106 	br	801350 <tick+0x97c>
  80134c:	0005883a 	mov	r2,zero
  801350:	d0a73ac5 	stb	r2,-25365(gp)
      _cg42 = VPace;
  801354:	d0a77743 	ldbu	r2,-25123(gp)
  801358:	d0a73445 	stb	r2,-25391(gp)
      g31 =((g30b&&_cg30)||(g42&&_cg42));
  80135c:	d0a74c83 	ldbu	r2,-25294(gp)
  801360:	10803fcc 	andi	r2,r2,255
  801364:	1080201c 	xori	r2,r2,128
  801368:	10bfe004 	addi	r2,r2,-128
  80136c:	10000526 	beq	r2,zero,801384 <tick+0x9b0>
  801370:	d0a77003 	ldbu	r2,-25152(gp)
  801374:	10803fcc 	andi	r2,r2,255
  801378:	1080201c 	xori	r2,r2,128
  80137c:	10bfe004 	addi	r2,r2,-128
  801380:	10000a1e 	bne	r2,zero,8013ac <tick+0x9d8>
  801384:	d0a73ac3 	ldbu	r2,-25365(gp)
  801388:	10803fcc 	andi	r2,r2,255
  80138c:	1080201c 	xori	r2,r2,128
  801390:	10bfe004 	addi	r2,r2,-128
  801394:	10000726 	beq	r2,zero,8013b4 <tick+0x9e0>
  801398:	d0a73443 	ldbu	r2,-25391(gp)
  80139c:	10803fcc 	andi	r2,r2,255
  8013a0:	1080201c 	xori	r2,r2,128
  8013a4:	10bfe004 	addi	r2,r2,-128
  8013a8:	10000226 	beq	r2,zero,8013b4 <tick+0x9e0>
  8013ac:	00800044 	movi	r2,1
  8013b0:	00000106 	br	8013b8 <tick+0x9e4>
  8013b4:	0005883a 	mov	r2,zero
  8013b8:	d0a74705 	stb	r2,-25316(gp)
      if(g31){
  8013bc:	d0a74703 	ldbu	r2,-25316(gp)
  8013c0:	10803fcc 	andi	r2,r2,255
  8013c4:	1080201c 	xori	r2,r2,128
  8013c8:	10bfe004 	addi	r2,r2,-128
  8013cc:	10000226 	beq	r2,zero,8013d8 <tick+0xa04>
         LRI_start =(LRI_start||1);
  8013d0:	00800044 	movi	r2,1
  8013d4:	d0a75cc5 	stb	r2,-25229(gp)
      }
      g38 =(PRE_g37);
  8013d8:	d0a77dc3 	ldbu	r2,-25097(gp)
  8013dc:	d0a74b85 	stb	r2,-25298(gp)
      g38b = g38;
  8013e0:	d0a74b83 	ldbu	r2,-25298(gp)
  8013e4:	d0a735c5 	stb	r2,-25385(gp)
      if(g38b){
  8013e8:	d0a735c3 	ldbu	r2,-25385(gp)
  8013ec:	10803fcc 	andi	r2,r2,255
  8013f0:	1080201c 	xori	r2,r2,128
  8013f4:	10bfe004 	addi	r2,r2,-128
  8013f8:	10000226 	beq	r2,zero,801404 <tick+0xa30>
         LRI_start =(LRI_start||1);
  8013fc:	00800044 	movi	r2,1
  801400:	d0a75cc5 	stb	r2,-25229(gp)
      }
      g21 =(PRE_g20);
  801404:	d0a74103 	ldbu	r2,-25340(gp)
  801408:	d0a74e05 	stb	r2,-25288(gp)
      g21b = g21;
  80140c:	d0a74e03 	ldbu	r2,-25288(gp)
  801410:	d0a76105 	stb	r2,-25212(gp)
      _cg21 = AVI_stop;
  801414:	d0a74143 	ldbu	r2,-25339(gp)
  801418:	d0a74c45 	stb	r2,-25295(gp)
      g26 =(g21b&&(!(_cg21)));
  80141c:	d0a76103 	ldbu	r2,-25212(gp)
  801420:	10803fcc 	andi	r2,r2,255
  801424:	1080201c 	xori	r2,r2,128
  801428:	10bfe004 	addi	r2,r2,-128
  80142c:	10000726 	beq	r2,zero,80144c <tick+0xa78>
  801430:	d0a74c43 	ldbu	r2,-25295(gp)
  801434:	10803fcc 	andi	r2,r2,255
  801438:	1080201c 	xori	r2,r2,128
  80143c:	10bfe004 	addi	r2,r2,-128
  801440:	1000021e 	bne	r2,zero,80144c <tick+0xa78>
  801444:	00800044 	movi	r2,1
  801448:	00000106 	br	801450 <tick+0xa7c>
  80144c:	0005883a 	mov	r2,zero
  801450:	d0a77d05 	stb	r2,-25100(gp)
      _cg26 = LRI_start;
  801454:	d0a75cc3 	ldbu	r2,-25229(gp)
  801458:	d0a74905 	stb	r2,-25308(gp)
      g20 =(g19||(g26&&(!(_cg26)))||g25||(g23b&&_cg23));
  80145c:	d0a73703 	ldbu	r2,-25380(gp)
  801460:	10803fcc 	andi	r2,r2,255
  801464:	1080201c 	xori	r2,r2,128
  801468:	10bfe004 	addi	r2,r2,-128
  80146c:	1000191e 	bne	r2,zero,8014d4 <tick+0xb00>
  801470:	d0a77d03 	ldbu	r2,-25100(gp)
  801474:	10803fcc 	andi	r2,r2,255
  801478:	1080201c 	xori	r2,r2,128
  80147c:	10bfe004 	addi	r2,r2,-128
  801480:	10000526 	beq	r2,zero,801498 <tick+0xac4>
  801484:	d0a74903 	ldbu	r2,-25308(gp)
  801488:	10803fcc 	andi	r2,r2,255
  80148c:	1080201c 	xori	r2,r2,128
  801490:	10bfe004 	addi	r2,r2,-128
  801494:	10000f26 	beq	r2,zero,8014d4 <tick+0xb00>
  801498:	d0a771c3 	ldbu	r2,-25145(gp)
  80149c:	10803fcc 	andi	r2,r2,255
  8014a0:	1080201c 	xori	r2,r2,128
  8014a4:	10bfe004 	addi	r2,r2,-128
  8014a8:	10000a1e 	bne	r2,zero,8014d4 <tick+0xb00>
  8014ac:	d0a76003 	ldbu	r2,-25216(gp)
  8014b0:	10803fcc 	andi	r2,r2,255
  8014b4:	1080201c 	xori	r2,r2,128
  8014b8:	10bfe004 	addi	r2,r2,-128
  8014bc:	10000726 	beq	r2,zero,8014dc <tick+0xb08>
  8014c0:	d0a77583 	ldbu	r2,-25130(gp)
  8014c4:	10803fcc 	andi	r2,r2,255
  8014c8:	1080201c 	xori	r2,r2,128
  8014cc:	10bfe004 	addi	r2,r2,-128
  8014d0:	10000226 	beq	r2,zero,8014dc <tick+0xb08>
  8014d4:	00800044 	movi	r2,1
  8014d8:	00000106 	br	8014e0 <tick+0xb0c>
  8014dc:	0005883a 	mov	r2,zero
  8014e0:	d0a75ec5 	stb	r2,-25221(gp)
      g22 =((g21b&&_cg21)||(g26&&_cg26)||(g24&&(!(_cg24))));
  8014e4:	d0a76103 	ldbu	r2,-25212(gp)
  8014e8:	10803fcc 	andi	r2,r2,255
  8014ec:	1080201c 	xori	r2,r2,128
  8014f0:	10bfe004 	addi	r2,r2,-128
  8014f4:	10000526 	beq	r2,zero,80150c <tick+0xb38>
  8014f8:	d0a74c43 	ldbu	r2,-25295(gp)
  8014fc:	10803fcc 	andi	r2,r2,255
  801500:	1080201c 	xori	r2,r2,128
  801504:	10bfe004 	addi	r2,r2,-128
  801508:	1000141e 	bne	r2,zero,80155c <tick+0xb88>
  80150c:	d0a77d03 	ldbu	r2,-25100(gp)
  801510:	10803fcc 	andi	r2,r2,255
  801514:	1080201c 	xori	r2,r2,128
  801518:	10bfe004 	addi	r2,r2,-128
  80151c:	10000526 	beq	r2,zero,801534 <tick+0xb60>
  801520:	d0a74903 	ldbu	r2,-25308(gp)
  801524:	10803fcc 	andi	r2,r2,255
  801528:	1080201c 	xori	r2,r2,128
  80152c:	10bfe004 	addi	r2,r2,-128
  801530:	10000a1e 	bne	r2,zero,80155c <tick+0xb88>
  801534:	d0a77983 	ldbu	r2,-25114(gp)
  801538:	10803fcc 	andi	r2,r2,255
  80153c:	1080201c 	xori	r2,r2,128
  801540:	10bfe004 	addi	r2,r2,-128
  801544:	10000726 	beq	r2,zero,801564 <tick+0xb90>
  801548:	d0a770c3 	ldbu	r2,-25149(gp)
  80154c:	10803fcc 	andi	r2,r2,255
  801550:	1080201c 	xori	r2,r2,128
  801554:	10bfe004 	addi	r2,r2,-128
  801558:	1000021e 	bne	r2,zero,801564 <tick+0xb90>
  80155c:	00800044 	movi	r2,1
  801560:	00000106 	br	801568 <tick+0xb94>
  801564:	0005883a 	mov	r2,zero
  801568:	d0a772c5 	stb	r2,-25141(gp)
      g28 = g1;
  80156c:	d0a74203 	ldbu	r2,-25336(gp)
  801570:	d0a77305 	stb	r2,-25140(gp)
      g29 =((g42&&(!(_cg42)))||g28);
  801574:	d0a73ac3 	ldbu	r2,-25365(gp)
  801578:	10803fcc 	andi	r2,r2,255
  80157c:	1080201c 	xori	r2,r2,128
  801580:	10bfe004 	addi	r2,r2,-128
  801584:	10000526 	beq	r2,zero,80159c <tick+0xbc8>
  801588:	d0a73443 	ldbu	r2,-25391(gp)
  80158c:	10803fcc 	andi	r2,r2,255
  801590:	1080201c 	xori	r2,r2,128
  801594:	10bfe004 	addi	r2,r2,-128
  801598:	10000526 	beq	r2,zero,8015b0 <tick+0xbdc>
  80159c:	d0a77303 	ldbu	r2,-25140(gp)
  8015a0:	10803fcc 	andi	r2,r2,255
  8015a4:	1080201c 	xori	r2,r2,128
  8015a8:	10bfe004 	addi	r2,r2,-128
  8015ac:	10000226 	beq	r2,zero,8015b8 <tick+0xbe4>
  8015b0:	00800044 	movi	r2,1
  8015b4:	00000106 	br	8015bc <tick+0xbe8>
  8015b8:	0005883a 	mov	r2,zero
  8015bc:	d0a778c5 	stb	r2,-25117(gp)
      g33 =(PRE_g32);
  8015c0:	d0a73f43 	ldbu	r2,-25347(gp)
  8015c4:	d0a757c5 	stb	r2,-25249(gp)
      g33b = g33;
  8015c8:	d0a757c3 	ldbu	r2,-25249(gp)
  8015cc:	d0a73985 	stb	r2,-25370(gp)
      _cg33 = _Pacemaker1_local_VRP_ex;
  8015d0:	d0a74b03 	ldbu	r2,-25300(gp)
  8015d4:	d0a74385 	stb	r2,-25330(gp)
      g32 =((g33b&&(!(_cg33)))||g38b||g31);
  8015d8:	d0a73983 	ldbu	r2,-25370(gp)
  8015dc:	10803fcc 	andi	r2,r2,255
  8015e0:	1080201c 	xori	r2,r2,128
  8015e4:	10bfe004 	addi	r2,r2,-128
  8015e8:	10000526 	beq	r2,zero,801600 <tick+0xc2c>
  8015ec:	d0a74383 	ldbu	r2,-25330(gp)
  8015f0:	10803fcc 	andi	r2,r2,255
  8015f4:	1080201c 	xori	r2,r2,128
  8015f8:	10bfe004 	addi	r2,r2,-128
  8015fc:	10000a26 	beq	r2,zero,801628 <tick+0xc54>
  801600:	d0a735c3 	ldbu	r2,-25385(gp)
  801604:	10803fcc 	andi	r2,r2,255
  801608:	1080201c 	xori	r2,r2,128
  80160c:	10bfe004 	addi	r2,r2,-128
  801610:	1000051e 	bne	r2,zero,801628 <tick+0xc54>
  801614:	d0a74703 	ldbu	r2,-25316(gp)
  801618:	10803fcc 	andi	r2,r2,255
  80161c:	1080201c 	xori	r2,r2,128
  801620:	10bfe004 	addi	r2,r2,-128
  801624:	10000226 	beq	r2,zero,801630 <tick+0xc5c>
  801628:	00800044 	movi	r2,1
  80162c:	00000106 	br	801634 <tick+0xc60>
  801630:	0005883a 	mov	r2,zero
  801634:	d0a774c5 	stb	r2,-25133(gp)
      g34 =((g33b&&_cg33)||(g40&&(!(_cg40))));
  801638:	d0a73983 	ldbu	r2,-25370(gp)
  80163c:	10803fcc 	andi	r2,r2,255
  801640:	1080201c 	xori	r2,r2,128
  801644:	10bfe004 	addi	r2,r2,-128
  801648:	10000526 	beq	r2,zero,801660 <tick+0xc8c>
  80164c:	d0a74383 	ldbu	r2,-25330(gp)
  801650:	10803fcc 	andi	r2,r2,255
  801654:	1080201c 	xori	r2,r2,128
  801658:	10bfe004 	addi	r2,r2,-128
  80165c:	10000a1e 	bne	r2,zero,801688 <tick+0xcb4>
  801660:	d0a73503 	ldbu	r2,-25388(gp)
  801664:	10803fcc 	andi	r2,r2,255
  801668:	1080201c 	xori	r2,r2,128
  80166c:	10bfe004 	addi	r2,r2,-128
  801670:	10000726 	beq	r2,zero,801690 <tick+0xcbc>
  801674:	d0a76f83 	ldbu	r2,-25154(gp)
  801678:	10803fcc 	andi	r2,r2,255
  80167c:	1080201c 	xori	r2,r2,128
  801680:	10bfe004 	addi	r2,r2,-128
  801684:	1000021e 	bne	r2,zero,801690 <tick+0xcbc>
  801688:	00800044 	movi	r2,1
  80168c:	00000106 	br	801694 <tick+0xcc0>
  801690:	0005883a 	mov	r2,zero
  801694:	d0a74e85 	stb	r2,-25286(gp)
      g37 =(g36||g41);
  801698:	d0a763c3 	ldbu	r2,-25201(gp)
  80169c:	10803fcc 	andi	r2,r2,255
  8016a0:	1080201c 	xori	r2,r2,128
  8016a4:	10bfe004 	addi	r2,r2,-128
  8016a8:	1000051e 	bne	r2,zero,8016c0 <tick+0xcec>
  8016ac:	d0a74883 	ldbu	r2,-25310(gp)
  8016b0:	10803fcc 	andi	r2,r2,255
  8016b4:	1080201c 	xori	r2,r2,128
  8016b8:	10bfe004 	addi	r2,r2,-128
  8016bc:	10000226 	beq	r2,zero,8016c8 <tick+0xcf4>
  8016c0:	00800044 	movi	r2,1
  8016c4:	00000106 	br	8016cc <tick+0xcf8>
  8016c8:	0005883a 	mov	r2,zero
  8016cc:	d0a74745 	stb	r2,-25315(gp)
      g44 = g1;
  8016d0:	d0a74203 	ldbu	r2,-25336(gp)
  8016d4:	d0a73fc5 	stb	r2,-25345(gp)
      g48 =(PRE_g47);
  8016d8:	d0a760c3 	ldbu	r2,-25213(gp)
  8016dc:	d0a74ac5 	stb	r2,-25301(gp)
      g48b = g48;
  8016e0:	d0a74ac3 	ldbu	r2,-25301(gp)
  8016e4:	d0a77c05 	stb	r2,-25104(gp)
      _cg48 = AVI_stop;
  8016e8:	d0a74143 	ldbu	r2,-25339(gp)
  8016ec:	d0a75385 	stb	r2,-25266(gp)
      g49 =(g48b&&(!(_cg48)));
  8016f0:	d0a77c03 	ldbu	r2,-25104(gp)
  8016f4:	10803fcc 	andi	r2,r2,255
  8016f8:	1080201c 	xori	r2,r2,128
  8016fc:	10bfe004 	addi	r2,r2,-128
  801700:	10000726 	beq	r2,zero,801720 <tick+0xd4c>
  801704:	d0a75383 	ldbu	r2,-25266(gp)
  801708:	10803fcc 	andi	r2,r2,255
  80170c:	1080201c 	xori	r2,r2,128
  801710:	10bfe004 	addi	r2,r2,-128
  801714:	1000021e 	bne	r2,zero,801720 <tick+0xd4c>
  801718:	00800044 	movi	r2,1
  80171c:	00000106 	br	801724 <tick+0xd50>
  801720:	0005883a 	mov	r2,zero
  801724:	d0a74f85 	stb	r2,-25282(gp)
      _cg49 = AVITO;
  801728:	d0a75f03 	ldbu	r2,-25220(gp)
  80172c:	d0a77805 	stb	r2,-25120(gp)
      g50 =(g49&&_cg49);
  801730:	d0a74f83 	ldbu	r2,-25282(gp)
  801734:	10803fcc 	andi	r2,r2,255
  801738:	1080201c 	xori	r2,r2,128
  80173c:	10bfe004 	addi	r2,r2,-128
  801740:	10000726 	beq	r2,zero,801760 <tick+0xd8c>
  801744:	d0a77803 	ldbu	r2,-25120(gp)
  801748:	10803fcc 	andi	r2,r2,255
  80174c:	1080201c 	xori	r2,r2,128
  801750:	10bfe004 	addi	r2,r2,-128
  801754:	10000226 	beq	r2,zero,801760 <tick+0xd8c>
  801758:	00800044 	movi	r2,1
  80175c:	00000106 	br	801764 <tick+0xd90>
  801760:	0005883a 	mov	r2,zero
  801764:	d0a766c5 	stb	r2,-25189(gp)
      if(g50){
  801768:	d0a766c3 	ldbu	r2,-25189(gp)
  80176c:	10803fcc 	andi	r2,r2,255
  801770:	1080201c 	xori	r2,r2,128
  801774:	10bfe004 	addi	r2,r2,-128
  801778:	10000226 	beq	r2,zero,801784 <tick+0xdb0>
         _Pacemaker1_local_AVI_ex =(_Pacemaker1_local_AVI_ex||1);
  80177c:	00800044 	movi	r2,1
  801780:	d0a762c5 	stb	r2,-25205(gp)
      }
      g78 =(PRE_g77);
  801784:	d0a74603 	ldbu	r2,-25320(gp)
  801788:	d0a75785 	stb	r2,-25250(gp)
      g78b = g78;
  80178c:	d0a75783 	ldbu	r2,-25250(gp)
  801790:	d0a73945 	stb	r2,-25371(gp)
      _cg78 = AVI_stop;
  801794:	d0a74143 	ldbu	r2,-25339(gp)
  801798:	d0a768c5 	stb	r2,-25181(gp)
      g82 =(g78b&&(!(_cg78)));
  80179c:	d0a73943 	ldbu	r2,-25371(gp)
  8017a0:	10803fcc 	andi	r2,r2,255
  8017a4:	1080201c 	xori	r2,r2,128
  8017a8:	10bfe004 	addi	r2,r2,-128
  8017ac:	10000726 	beq	r2,zero,8017cc <tick+0xdf8>
  8017b0:	d0a768c3 	ldbu	r2,-25181(gp)
  8017b4:	10803fcc 	andi	r2,r2,255
  8017b8:	1080201c 	xori	r2,r2,128
  8017bc:	10bfe004 	addi	r2,r2,-128
  8017c0:	1000021e 	bne	r2,zero,8017cc <tick+0xdf8>
  8017c4:	00800044 	movi	r2,1
  8017c8:	00000106 	br	8017d0 <tick+0xdfc>
  8017cc:	0005883a 	mov	r2,zero
  8017d0:	d0a74345 	stb	r2,-25331(gp)
      _cg82 = ASense;
  8017d4:	d0a749c3 	ldbu	r2,-25305(gp)
  8017d8:	d0a74d05 	stb	r2,-25292(gp)
      g83 =(g82&&_cg82);
  8017dc:	d0a74343 	ldbu	r2,-25331(gp)
  8017e0:	10803fcc 	andi	r2,r2,255
  8017e4:	1080201c 	xori	r2,r2,128
  8017e8:	10bfe004 	addi	r2,r2,-128
  8017ec:	10000726 	beq	r2,zero,80180c <tick+0xe38>
  8017f0:	d0a74d03 	ldbu	r2,-25292(gp)
  8017f4:	10803fcc 	andi	r2,r2,255
  8017f8:	1080201c 	xori	r2,r2,128
  8017fc:	10bfe004 	addi	r2,r2,-128
  801800:	10000226 	beq	r2,zero,80180c <tick+0xe38>
  801804:	00800044 	movi	r2,1
  801808:	00000106 	br	801810 <tick+0xe3c>
  80180c:	0005883a 	mov	r2,zero
  801810:	d0a73485 	stb	r2,-25390(gp)
      if(g83){
  801814:	d0a73483 	ldbu	r2,-25390(gp)
  801818:	10803fcc 	andi	r2,r2,255
  80181c:	1080201c 	xori	r2,r2,128
  801820:	10bfe004 	addi	r2,r2,-128
  801824:	10000226 	beq	r2,zero,801830 <tick+0xe5c>
         _Pacemaker1_local_FilteredASense =(_Pacemaker1_local_FilteredASense||1);
  801828:	00800044 	movi	r2,1
  80182c:	d0a75a05 	stb	r2,-25240(gp)
      }
      g54 =(PRE_g53);
  801830:	d0a74a43 	ldbu	r2,-25303(gp)
  801834:	d0a75285 	stb	r2,-25270(gp)
      g54b = g54;
  801838:	d0a75283 	ldbu	r2,-25270(gp)
  80183c:	d0a77385 	stb	r2,-25138(gp)
      _cg54 = _Pacemaker1_local_FilteredASense;
  801840:	d0a75a03 	ldbu	r2,-25240(gp)
  801844:	d0a76ec5 	stb	r2,-25157(gp)
      g89 =(PRE_g88);
  801848:	d0a76283 	ldbu	r2,-25206(gp)
  80184c:	d0a76445 	stb	r2,-25199(gp)
      g89b = g89;
  801850:	d0a76443 	ldbu	r2,-25199(gp)
  801854:	d0a75c45 	stb	r2,-25231(gp)
      _cg89 = AEI_stop;
  801858:	d0a77a43 	ldbu	r2,-25111(gp)
  80185c:	d0a76e85 	stb	r2,-25158(gp)
      g90 =(g89b&&(!(_cg89)));
  801860:	d0a75c43 	ldbu	r2,-25231(gp)
  801864:	10803fcc 	andi	r2,r2,255
  801868:	1080201c 	xori	r2,r2,128
  80186c:	10bfe004 	addi	r2,r2,-128
  801870:	10000726 	beq	r2,zero,801890 <tick+0xebc>
  801874:	d0a76e83 	ldbu	r2,-25158(gp)
  801878:	10803fcc 	andi	r2,r2,255
  80187c:	1080201c 	xori	r2,r2,128
  801880:	10bfe004 	addi	r2,r2,-128
  801884:	1000021e 	bne	r2,zero,801890 <tick+0xebc>
  801888:	00800044 	movi	r2,1
  80188c:	00000106 	br	801894 <tick+0xec0>
  801890:	0005883a 	mov	r2,zero
  801894:	d0a75b85 	stb	r2,-25234(gp)
      _cg90 = AEITO;
  801898:	d0a77c83 	ldbu	r2,-25102(gp)
  80189c:	d0a75085 	stb	r2,-25278(gp)
      g91 =(g90&&_cg90);
  8018a0:	d0a75b83 	ldbu	r2,-25234(gp)
  8018a4:	10803fcc 	andi	r2,r2,255
  8018a8:	1080201c 	xori	r2,r2,128
  8018ac:	10bfe004 	addi	r2,r2,-128
  8018b0:	10000726 	beq	r2,zero,8018d0 <tick+0xefc>
  8018b4:	d0a75083 	ldbu	r2,-25278(gp)
  8018b8:	10803fcc 	andi	r2,r2,255
  8018bc:	1080201c 	xori	r2,r2,128
  8018c0:	10bfe004 	addi	r2,r2,-128
  8018c4:	10000226 	beq	r2,zero,8018d0 <tick+0xefc>
  8018c8:	00800044 	movi	r2,1
  8018cc:	00000106 	br	8018d4 <tick+0xf00>
  8018d0:	0005883a 	mov	r2,zero
  8018d4:	d0a73585 	stb	r2,-25386(gp)
      if(g91){
  8018d8:	d0a73583 	ldbu	r2,-25386(gp)
  8018dc:	10803fcc 	andi	r2,r2,255
  8018e0:	1080201c 	xori	r2,r2,128
  8018e4:	10bfe004 	addi	r2,r2,-128
  8018e8:	10000226 	beq	r2,zero,8018f4 <tick+0xf20>
         _Pacemaker1_local_AEI_ex =(_Pacemaker1_local_AEI_ex||1);
  8018ec:	00800044 	movi	r2,1
  8018f0:	d0a75545 	stb	r2,-25259(gp)
      }
      g98 =(PRE_g97);
  8018f4:	d0a76143 	ldbu	r2,-25211(gp)
  8018f8:	d0a76ac5 	stb	r2,-25173(gp)
      g98b = g98;
  8018fc:	d0a76ac3 	ldbu	r2,-25173(gp)
  801900:	d0a76305 	stb	r2,-25204(gp)
      _cg98 = _Pacemaker1_local_FilteredASense;
  801904:	d0a75a03 	ldbu	r2,-25240(gp)
  801908:	d0a74405 	stb	r2,-25328(gp)
      g99 =(g98b&&(!(_cg98)));
  80190c:	d0a76303 	ldbu	r2,-25204(gp)
  801910:	10803fcc 	andi	r2,r2,255
  801914:	1080201c 	xori	r2,r2,128
  801918:	10bfe004 	addi	r2,r2,-128
  80191c:	10000726 	beq	r2,zero,80193c <tick+0xf68>
  801920:	d0a74403 	ldbu	r2,-25328(gp)
  801924:	10803fcc 	andi	r2,r2,255
  801928:	1080201c 	xori	r2,r2,128
  80192c:	10bfe004 	addi	r2,r2,-128
  801930:	1000021e 	bne	r2,zero,80193c <tick+0xf68>
  801934:	00800044 	movi	r2,1
  801938:	00000106 	br	801940 <tick+0xf6c>
  80193c:	0005883a 	mov	r2,zero
  801940:	d0a75245 	stb	r2,-25271(gp)
      _cg99 = _Pacemaker1_local_AEI_ex;
  801944:	d0a75543 	ldbu	r2,-25259(gp)
  801948:	d0a73545 	stb	r2,-25387(gp)
      g100 =(g99&&_cg99);
  80194c:	d0a75243 	ldbu	r2,-25271(gp)
  801950:	10803fcc 	andi	r2,r2,255
  801954:	1080201c 	xori	r2,r2,128
  801958:	10bfe004 	addi	r2,r2,-128
  80195c:	10000726 	beq	r2,zero,80197c <tick+0xfa8>
  801960:	d0a73543 	ldbu	r2,-25387(gp)
  801964:	10803fcc 	andi	r2,r2,255
  801968:	1080201c 	xori	r2,r2,128
  80196c:	10bfe004 	addi	r2,r2,-128
  801970:	10000226 	beq	r2,zero,80197c <tick+0xfa8>
  801974:	00800044 	movi	r2,1
  801978:	00000106 	br	801980 <tick+0xfac>
  80197c:	0005883a 	mov	r2,zero
  801980:	d0a751c5 	stb	r2,-25273(gp)
      if(g100){
  801984:	d0a751c3 	ldbu	r2,-25273(gp)
  801988:	10803fcc 	andi	r2,r2,255
  80198c:	1080201c 	xori	r2,r2,128
  801990:	10bfe004 	addi	r2,r2,-128
  801994:	10000226 	beq	r2,zero,8019a0 <tick+0xfcc>
         APace =(APace||1);
  801998:	00800044 	movi	r2,1
  80199c:	d0a73605 	stb	r2,-25384(gp)
      }
      g66 =(g54b&&(!(_cg54)));
  8019a0:	d0a77383 	ldbu	r2,-25138(gp)
  8019a4:	10803fcc 	andi	r2,r2,255
  8019a8:	1080201c 	xori	r2,r2,128
  8019ac:	10bfe004 	addi	r2,r2,-128
  8019b0:	10000726 	beq	r2,zero,8019d0 <tick+0xffc>
  8019b4:	d0a76ec3 	ldbu	r2,-25157(gp)
  8019b8:	10803fcc 	andi	r2,r2,255
  8019bc:	1080201c 	xori	r2,r2,128
  8019c0:	10bfe004 	addi	r2,r2,-128
  8019c4:	1000021e 	bne	r2,zero,8019d0 <tick+0xffc>
  8019c8:	00800044 	movi	r2,1
  8019cc:	00000106 	br	8019d4 <tick+0x1000>
  8019d0:	0005883a 	mov	r2,zero
  8019d4:	d0a752c5 	stb	r2,-25269(gp)
      _cg66 = APace;
  8019d8:	d0a73603 	ldbu	r2,-25384(gp)
  8019dc:	d0a76c45 	stb	r2,-25167(gp)
      g55 =((g54b&&_cg54)||(g66&&_cg66));
  8019e0:	d0a77383 	ldbu	r2,-25138(gp)
  8019e4:	10803fcc 	andi	r2,r2,255
  8019e8:	1080201c 	xori	r2,r2,128
  8019ec:	10bfe004 	addi	r2,r2,-128
  8019f0:	10000526 	beq	r2,zero,801a08 <tick+0x1034>
  8019f4:	d0a76ec3 	ldbu	r2,-25157(gp)
  8019f8:	10803fcc 	andi	r2,r2,255
  8019fc:	1080201c 	xori	r2,r2,128
  801a00:	10bfe004 	addi	r2,r2,-128
  801a04:	10000a1e 	bne	r2,zero,801a30 <tick+0x105c>
  801a08:	d0a752c3 	ldbu	r2,-25269(gp)
  801a0c:	10803fcc 	andi	r2,r2,255
  801a10:	1080201c 	xori	r2,r2,128
  801a14:	10bfe004 	addi	r2,r2,-128
  801a18:	10000726 	beq	r2,zero,801a38 <tick+0x1064>
  801a1c:	d0a76c43 	ldbu	r2,-25167(gp)
  801a20:	10803fcc 	andi	r2,r2,255
  801a24:	1080201c 	xori	r2,r2,128
  801a28:	10bfe004 	addi	r2,r2,-128
  801a2c:	10000226 	beq	r2,zero,801a38 <tick+0x1064>
  801a30:	00800044 	movi	r2,1
  801a34:	00000106 	br	801a3c <tick+0x1068>
  801a38:	0005883a 	mov	r2,zero
  801a3c:	d0a73785 	stb	r2,-25378(gp)
      if(g55){
  801a40:	d0a73783 	ldbu	r2,-25378(gp)
  801a44:	10803fcc 	andi	r2,r2,255
  801a48:	1080201c 	xori	r2,r2,128
  801a4c:	10bfe004 	addi	r2,r2,-128
  801a50:	10000226 	beq	r2,zero,801a5c <tick+0x1088>
         AVI_start =(AVI_start||1);
  801a54:	00800044 	movi	r2,1
  801a58:	d0a73e45 	stb	r2,-25351(gp)
      }
      g46 =(PRE_g45);
  801a5c:	d0a77643 	ldbu	r2,-25127(gp)
  801a60:	d0a76485 	stb	r2,-25198(gp)
      g46b = g46;
  801a64:	d0a76483 	ldbu	r2,-25198(gp)
  801a68:	d0a75c85 	stb	r2,-25230(gp)
      _cg46 = AVI_start;
  801a6c:	d0a73e43 	ldbu	r2,-25351(gp)
  801a70:	d0a74505 	stb	r2,-25324(gp)
      g45 =(g50||g44||(g48b&&_cg48)||(g46b&&(!(_cg46))));
  801a74:	d0a766c3 	ldbu	r2,-25189(gp)
  801a78:	10803fcc 	andi	r2,r2,255
  801a7c:	1080201c 	xori	r2,r2,128
  801a80:	10bfe004 	addi	r2,r2,-128
  801a84:	1000191e 	bne	r2,zero,801aec <tick+0x1118>
  801a88:	d0a73fc3 	ldbu	r2,-25345(gp)
  801a8c:	10803fcc 	andi	r2,r2,255
  801a90:	1080201c 	xori	r2,r2,128
  801a94:	10bfe004 	addi	r2,r2,-128
  801a98:	1000141e 	bne	r2,zero,801aec <tick+0x1118>
  801a9c:	d0a77c03 	ldbu	r2,-25104(gp)
  801aa0:	10803fcc 	andi	r2,r2,255
  801aa4:	1080201c 	xori	r2,r2,128
  801aa8:	10bfe004 	addi	r2,r2,-128
  801aac:	10000526 	beq	r2,zero,801ac4 <tick+0x10f0>
  801ab0:	d0a75383 	ldbu	r2,-25266(gp)
  801ab4:	10803fcc 	andi	r2,r2,255
  801ab8:	1080201c 	xori	r2,r2,128
  801abc:	10bfe004 	addi	r2,r2,-128
  801ac0:	10000a1e 	bne	r2,zero,801aec <tick+0x1118>
  801ac4:	d0a75c83 	ldbu	r2,-25230(gp)
  801ac8:	10803fcc 	andi	r2,r2,255
  801acc:	1080201c 	xori	r2,r2,128
  801ad0:	10bfe004 	addi	r2,r2,-128
  801ad4:	10000726 	beq	r2,zero,801af4 <tick+0x1120>
  801ad8:	d0a74503 	ldbu	r2,-25324(gp)
  801adc:	10803fcc 	andi	r2,r2,255
  801ae0:	1080201c 	xori	r2,r2,128
  801ae4:	10bfe004 	addi	r2,r2,-128
  801ae8:	1000021e 	bne	r2,zero,801af4 <tick+0x1120>
  801aec:	00800044 	movi	r2,1
  801af0:	00000106 	br	801af8 <tick+0x1124>
  801af4:	0005883a 	mov	r2,zero
  801af8:	d0a77545 	stb	r2,-25131(gp)
      g47 =((g49&&(!(_cg49)))||(g46b&&_cg46));
  801afc:	d0a74f83 	ldbu	r2,-25282(gp)
  801b00:	10803fcc 	andi	r2,r2,255
  801b04:	1080201c 	xori	r2,r2,128
  801b08:	10bfe004 	addi	r2,r2,-128
  801b0c:	10000526 	beq	r2,zero,801b24 <tick+0x1150>
  801b10:	d0a77803 	ldbu	r2,-25120(gp)
  801b14:	10803fcc 	andi	r2,r2,255
  801b18:	1080201c 	xori	r2,r2,128
  801b1c:	10bfe004 	addi	r2,r2,-128
  801b20:	10000a26 	beq	r2,zero,801b4c <tick+0x1178>
  801b24:	d0a75c83 	ldbu	r2,-25230(gp)
  801b28:	10803fcc 	andi	r2,r2,255
  801b2c:	1080201c 	xori	r2,r2,128
  801b30:	10bfe004 	addi	r2,r2,-128
  801b34:	10000726 	beq	r2,zero,801b54 <tick+0x1180>
  801b38:	d0a74503 	ldbu	r2,-25324(gp)
  801b3c:	10803fcc 	andi	r2,r2,255
  801b40:	1080201c 	xori	r2,r2,128
  801b44:	10bfe004 	addi	r2,r2,-128
  801b48:	10000226 	beq	r2,zero,801b54 <tick+0x1180>
  801b4c:	00800044 	movi	r2,1
  801b50:	00000106 	br	801b58 <tick+0x1184>
  801b54:	0005883a 	mov	r2,zero
  801b58:	d0a73a45 	stb	r2,-25367(gp)
      g52 = g1;
  801b5c:	d0a74203 	ldbu	r2,-25336(gp)
  801b60:	d0a744c5 	stb	r2,-25325(gp)
      g53 =(g62||(g66&&(!(_cg66)))||g52||g58);
  801b64:	d0a74803 	ldbu	r2,-25312(gp)
  801b68:	10803fcc 	andi	r2,r2,255
  801b6c:	1080201c 	xori	r2,r2,128
  801b70:	10bfe004 	addi	r2,r2,-128
  801b74:	1000141e 	bne	r2,zero,801bc8 <tick+0x11f4>
  801b78:	d0a752c3 	ldbu	r2,-25269(gp)
  801b7c:	10803fcc 	andi	r2,r2,255
  801b80:	1080201c 	xori	r2,r2,128
  801b84:	10bfe004 	addi	r2,r2,-128
  801b88:	10000526 	beq	r2,zero,801ba0 <tick+0x11cc>
  801b8c:	d0a76c43 	ldbu	r2,-25167(gp)
  801b90:	10803fcc 	andi	r2,r2,255
  801b94:	1080201c 	xori	r2,r2,128
  801b98:	10bfe004 	addi	r2,r2,-128
  801b9c:	10000a26 	beq	r2,zero,801bc8 <tick+0x11f4>
  801ba0:	d0a744c3 	ldbu	r2,-25325(gp)
  801ba4:	10803fcc 	andi	r2,r2,255
  801ba8:	1080201c 	xori	r2,r2,128
  801bac:	10bfe004 	addi	r2,r2,-128
  801bb0:	1000051e 	bne	r2,zero,801bc8 <tick+0x11f4>
  801bb4:	d0a77103 	ldbu	r2,-25148(gp)
  801bb8:	10803fcc 	andi	r2,r2,255
  801bbc:	1080201c 	xori	r2,r2,128
  801bc0:	10bfe004 	addi	r2,r2,-128
  801bc4:	10000226 	beq	r2,zero,801bd0 <tick+0x11fc>
  801bc8:	00800044 	movi	r2,1
  801bcc:	00000106 	br	801bd4 <tick+0x1200>
  801bd0:	0005883a 	mov	r2,zero
  801bd4:	d0a76b05 	stb	r2,-25172(gp)
      g106 =(PRE_g105);
  801bd8:	d0a77883 	ldbu	r2,-25118(gp)
  801bdc:	d0a77b85 	stb	r2,-25106(gp)
      _cg106 = URITO;
  801be0:	d0a75d03 	ldbu	r2,-25228(gp)
  801be4:	d0a76585 	stb	r2,-25194(gp)
      g107 =(g106&&_cg106);
  801be8:	d0a77b83 	ldbu	r2,-25106(gp)
  801bec:	10803fcc 	andi	r2,r2,255
  801bf0:	1080201c 	xori	r2,r2,128
  801bf4:	10bfe004 	addi	r2,r2,-128
  801bf8:	10000726 	beq	r2,zero,801c18 <tick+0x1244>
  801bfc:	d0a76583 	ldbu	r2,-25194(gp)
  801c00:	10803fcc 	andi	r2,r2,255
  801c04:	1080201c 	xori	r2,r2,128
  801c08:	10bfe004 	addi	r2,r2,-128
  801c0c:	10000226 	beq	r2,zero,801c18 <tick+0x1244>
  801c10:	00800044 	movi	r2,1
  801c14:	00000106 	br	801c1c <tick+0x1248>
  801c18:	0005883a 	mov	r2,zero
  801c1c:	d0a76845 	stb	r2,-25183(gp)
      if(g107){
  801c20:	d0a76843 	ldbu	r2,-25183(gp)
  801c24:	10803fcc 	andi	r2,r2,255
  801c28:	1080201c 	xori	r2,r2,128
  801c2c:	10bfe004 	addi	r2,r2,-128
  801c30:	10000226 	beq	r2,zero,801c3c <tick+0x1268>
         URI_ex =(URI_ex||1);
  801c34:	00800044 	movi	r2,1
  801c38:	d0a75905 	stb	r2,-25244(gp)
      }
      g59 =(g57b&&(!(_cg57)));
  801c3c:	d0a765c3 	ldbu	r2,-25193(gp)
  801c40:	10803fcc 	andi	r2,r2,255
  801c44:	1080201c 	xori	r2,r2,128
  801c48:	10bfe004 	addi	r2,r2,-128
  801c4c:	10000726 	beq	r2,zero,801c6c <tick+0x1298>
  801c50:	d0a77143 	ldbu	r2,-25147(gp)
  801c54:	10803fcc 	andi	r2,r2,255
  801c58:	1080201c 	xori	r2,r2,128
  801c5c:	10bfe004 	addi	r2,r2,-128
  801c60:	1000021e 	bne	r2,zero,801c6c <tick+0x1298>
  801c64:	00800044 	movi	r2,1
  801c68:	00000106 	br	801c70 <tick+0x129c>
  801c6c:	0005883a 	mov	r2,zero
  801c70:	d0a75205 	stb	r2,-25272(gp)
      _cg59 = URI_ex;
  801c74:	d0a75903 	ldbu	r2,-25244(gp)
  801c78:	d0a73805 	stb	r2,-25376(gp)
      g56 =((g59&&(!(_cg59)))||g55);
  801c7c:	d0a75203 	ldbu	r2,-25272(gp)
  801c80:	10803fcc 	andi	r2,r2,255
  801c84:	1080201c 	xori	r2,r2,128
  801c88:	10bfe004 	addi	r2,r2,-128
  801c8c:	10000526 	beq	r2,zero,801ca4 <tick+0x12d0>
  801c90:	d0a73803 	ldbu	r2,-25376(gp)
  801c94:	10803fcc 	andi	r2,r2,255
  801c98:	1080201c 	xori	r2,r2,128
  801c9c:	10bfe004 	addi	r2,r2,-128
  801ca0:	10000526 	beq	r2,zero,801cb8 <tick+0x12e4>
  801ca4:	d0a73783 	ldbu	r2,-25378(gp)
  801ca8:	10803fcc 	andi	r2,r2,255
  801cac:	1080201c 	xori	r2,r2,128
  801cb0:	10bfe004 	addi	r2,r2,-128
  801cb4:	10000226 	beq	r2,zero,801cc0 <tick+0x12ec>
  801cb8:	00800044 	movi	r2,1
  801cbc:	00000106 	br	801cc4 <tick+0x12f0>
  801cc0:	0005883a 	mov	r2,zero
  801cc4:	d0a75645 	stb	r2,-25255(gp)
      g60 =((g59&&_cg59)||(g64&&(!(_cg64))));
  801cc8:	d0a75203 	ldbu	r2,-25272(gp)
  801ccc:	10803fcc 	andi	r2,r2,255
  801cd0:	1080201c 	xori	r2,r2,128
  801cd4:	10bfe004 	addi	r2,r2,-128
  801cd8:	10000526 	beq	r2,zero,801cf0 <tick+0x131c>
  801cdc:	d0a73803 	ldbu	r2,-25376(gp)
  801ce0:	10803fcc 	andi	r2,r2,255
  801ce4:	1080201c 	xori	r2,r2,128
  801ce8:	10bfe004 	addi	r2,r2,-128
  801cec:	10000a1e 	bne	r2,zero,801d18 <tick+0x1344>
  801cf0:	d0a74dc3 	ldbu	r2,-25289(gp)
  801cf4:	10803fcc 	andi	r2,r2,255
  801cf8:	1080201c 	xori	r2,r2,128
  801cfc:	10bfe004 	addi	r2,r2,-128
  801d00:	10000726 	beq	r2,zero,801d20 <tick+0x134c>
  801d04:	d0a75a83 	ldbu	r2,-25238(gp)
  801d08:	10803fcc 	andi	r2,r2,255
  801d0c:	1080201c 	xori	r2,r2,128
  801d10:	10bfe004 	addi	r2,r2,-128
  801d14:	1000021e 	bne	r2,zero,801d20 <tick+0x134c>
  801d18:	00800044 	movi	r2,1
  801d1c:	00000106 	br	801d24 <tick+0x1350>
  801d20:	0005883a 	mov	r2,zero
  801d24:	d0a75f45 	stb	r2,-25219(gp)
      g68 = g1;
  801d28:	d0a74203 	ldbu	r2,-25336(gp)
  801d2c:	d0a77185 	stb	r2,-25146(gp)
      g79 =(g78b&&_cg78);
  801d30:	d0a73943 	ldbu	r2,-25371(gp)
  801d34:	10803fcc 	andi	r2,r2,255
  801d38:	1080201c 	xori	r2,r2,128
  801d3c:	10bfe004 	addi	r2,r2,-128
  801d40:	10000726 	beq	r2,zero,801d60 <tick+0x138c>
  801d44:	d0a768c3 	ldbu	r2,-25181(gp)
  801d48:	10803fcc 	andi	r2,r2,255
  801d4c:	1080201c 	xori	r2,r2,128
  801d50:	10bfe004 	addi	r2,r2,-128
  801d54:	10000226 	beq	r2,zero,801d60 <tick+0x138c>
  801d58:	00800044 	movi	r2,1
  801d5c:	00000106 	br	801d64 <tick+0x1390>
  801d60:	0005883a 	mov	r2,zero
  801d64:	d0a74e45 	stb	r2,-25287(gp)
      if(g79){
  801d68:	d0a74e43 	ldbu	r2,-25287(gp)
  801d6c:	10803fcc 	andi	r2,r2,255
  801d70:	1080201c 	xori	r2,r2,128
  801d74:	10bfe004 	addi	r2,r2,-128
  801d78:	10000226 	beq	r2,zero,801d84 <tick+0x13b0>
         PVARP_start =(PVARP_start||1);
  801d7c:	00800044 	movi	r2,1
  801d80:	d0a76505 	stb	r2,-25196(gp)
      }
      g70 =(PRE_g69);
  801d84:	d0a743c3 	ldbu	r2,-25329(gp)
  801d88:	d0a76c05 	stb	r2,-25168(gp)
      g70b = g70;
  801d8c:	d0a76c03 	ldbu	r2,-25168(gp)
  801d90:	d0a77085 	stb	r2,-25150(gp)
      _cg70 = AVI_stop;
  801d94:	d0a74143 	ldbu	r2,-25339(gp)
  801d98:	d0a76805 	stb	r2,-25184(gp)
      g74 =(g70b&&(!(_cg70)));
  801d9c:	d0a77083 	ldbu	r2,-25150(gp)
  801da0:	10803fcc 	andi	r2,r2,255
  801da4:	1080201c 	xori	r2,r2,128
  801da8:	10bfe004 	addi	r2,r2,-128
  801dac:	10000726 	beq	r2,zero,801dcc <tick+0x13f8>
  801db0:	d0a76803 	ldbu	r2,-25184(gp)
  801db4:	10803fcc 	andi	r2,r2,255
  801db8:	1080201c 	xori	r2,r2,128
  801dbc:	10bfe004 	addi	r2,r2,-128
  801dc0:	1000021e 	bne	r2,zero,801dcc <tick+0x13f8>
  801dc4:	00800044 	movi	r2,1
  801dc8:	00000106 	br	801dd0 <tick+0x13fc>
  801dcc:	0005883a 	mov	r2,zero
  801dd0:	d0a77e45 	stb	r2,-25095(gp)
      _cg74 = PVARP_start;
  801dd4:	d0a76503 	ldbu	r2,-25196(gp)
  801dd8:	d0a74585 	stb	r2,-25322(gp)
      g72 =(PRE_g71);
  801ddc:	d0a75403 	ldbu	r2,-25264(gp)
  801de0:	d0a76d05 	stb	r2,-25164(gp)
      _cg72 = PVARPTO;
  801de4:	d0a76343 	ldbu	r2,-25203(gp)
  801de8:	d0a77d45 	stb	r2,-25099(gp)
      g73 =(g72&&_cg72);
  801dec:	d0a76d03 	ldbu	r2,-25164(gp)
  801df0:	10803fcc 	andi	r2,r2,255
  801df4:	1080201c 	xori	r2,r2,128
  801df8:	10bfe004 	addi	r2,r2,-128
  801dfc:	10000726 	beq	r2,zero,801e1c <tick+0x1448>
  801e00:	d0a77d43 	ldbu	r2,-25099(gp)
  801e04:	10803fcc 	andi	r2,r2,255
  801e08:	1080201c 	xori	r2,r2,128
  801e0c:	10bfe004 	addi	r2,r2,-128
  801e10:	10000226 	beq	r2,zero,801e1c <tick+0x1448>
  801e14:	00800044 	movi	r2,1
  801e18:	00000106 	br	801e20 <tick+0x144c>
  801e1c:	0005883a 	mov	r2,zero
  801e20:	d0a77345 	stb	r2,-25139(gp)
      if(g73){
  801e24:	d0a77343 	ldbu	r2,-25139(gp)
  801e28:	10803fcc 	andi	r2,r2,255
  801e2c:	1080201c 	xori	r2,r2,128
  801e30:	10bfe004 	addi	r2,r2,-128
  801e34:	10000226 	beq	r2,zero,801e40 <tick+0x146c>
         _Pacemaker1_local_PVARP_ex =(_Pacemaker1_local_PVARP_ex||1);
  801e38:	00800044 	movi	r2,1
  801e3c:	d0a74fc5 	stb	r2,-25281(gp)
      }
      g69 =((g74&&(!(_cg74)))||g68||g73);
  801e40:	d0a77e43 	ldbu	r2,-25095(gp)
  801e44:	10803fcc 	andi	r2,r2,255
  801e48:	1080201c 	xori	r2,r2,128
  801e4c:	10bfe004 	addi	r2,r2,-128
  801e50:	10000526 	beq	r2,zero,801e68 <tick+0x1494>
  801e54:	d0a74583 	ldbu	r2,-25322(gp)
  801e58:	10803fcc 	andi	r2,r2,255
  801e5c:	1080201c 	xori	r2,r2,128
  801e60:	10bfe004 	addi	r2,r2,-128
  801e64:	10000a26 	beq	r2,zero,801e90 <tick+0x14bc>
  801e68:	d0a77183 	ldbu	r2,-25146(gp)
  801e6c:	10803fcc 	andi	r2,r2,255
  801e70:	1080201c 	xori	r2,r2,128
  801e74:	10bfe004 	addi	r2,r2,-128
  801e78:	1000051e 	bne	r2,zero,801e90 <tick+0x14bc>
  801e7c:	d0a77343 	ldbu	r2,-25139(gp)
  801e80:	10803fcc 	andi	r2,r2,255
  801e84:	1080201c 	xori	r2,r2,128
  801e88:	10bfe004 	addi	r2,r2,-128
  801e8c:	10000226 	beq	r2,zero,801e98 <tick+0x14c4>
  801e90:	00800044 	movi	r2,1
  801e94:	00000106 	br	801e9c <tick+0x14c8>
  801e98:	0005883a 	mov	r2,zero
  801e9c:	d0a77cc5 	stb	r2,-25101(gp)
      g71 =((g70b&&_cg70)||(g72&&(!(_cg72)))||(g74&&_cg74));
  801ea0:	d0a77083 	ldbu	r2,-25150(gp)
  801ea4:	10803fcc 	andi	r2,r2,255
  801ea8:	1080201c 	xori	r2,r2,128
  801eac:	10bfe004 	addi	r2,r2,-128
  801eb0:	10000526 	beq	r2,zero,801ec8 <tick+0x14f4>
  801eb4:	d0a76803 	ldbu	r2,-25184(gp)
  801eb8:	10803fcc 	andi	r2,r2,255
  801ebc:	1080201c 	xori	r2,r2,128
  801ec0:	10bfe004 	addi	r2,r2,-128
  801ec4:	1000141e 	bne	r2,zero,801f18 <tick+0x1544>
  801ec8:	d0a76d03 	ldbu	r2,-25164(gp)
  801ecc:	10803fcc 	andi	r2,r2,255
  801ed0:	1080201c 	xori	r2,r2,128
  801ed4:	10bfe004 	addi	r2,r2,-128
  801ed8:	10000526 	beq	r2,zero,801ef0 <tick+0x151c>
  801edc:	d0a77d43 	ldbu	r2,-25099(gp)
  801ee0:	10803fcc 	andi	r2,r2,255
  801ee4:	1080201c 	xori	r2,r2,128
  801ee8:	10bfe004 	addi	r2,r2,-128
  801eec:	10000a26 	beq	r2,zero,801f18 <tick+0x1544>
  801ef0:	d0a77e43 	ldbu	r2,-25095(gp)
  801ef4:	10803fcc 	andi	r2,r2,255
  801ef8:	1080201c 	xori	r2,r2,128
  801efc:	10bfe004 	addi	r2,r2,-128
  801f00:	10000726 	beq	r2,zero,801f20 <tick+0x154c>
  801f04:	d0a74583 	ldbu	r2,-25322(gp)
  801f08:	10803fcc 	andi	r2,r2,255
  801f0c:	1080201c 	xori	r2,r2,128
  801f10:	10bfe004 	addi	r2,r2,-128
  801f14:	10000226 	beq	r2,zero,801f20 <tick+0x154c>
  801f18:	00800044 	movi	r2,1
  801f1c:	00000106 	br	801f24 <tick+0x1550>
  801f20:	0005883a 	mov	r2,zero
  801f24:	d0a74285 	stb	r2,-25334(gp)
      g76 = g1;
  801f28:	d0a74203 	ldbu	r2,-25336(gp)
  801f2c:	d0a746c5 	stb	r2,-25317(gp)
      g81 =(PRE_g80);
  801f30:	d0a75143 	ldbu	r2,-25275(gp)
  801f34:	d0a76d45 	stb	r2,-25163(gp)
      g81b = g81;
  801f38:	d0a76d43 	ldbu	r2,-25163(gp)
  801f3c:	d0a734c5 	stb	r2,-25389(gp)
      _cg81 = _Pacemaker1_local_PVARP_ex;
  801f40:	d0a74fc3 	ldbu	r2,-25281(gp)
  801f44:	d0a73405 	stb	r2,-25392(gp)
      g77 =(g76||(g81b&&_cg81)||(g82&&(!(_cg82)))||g83);
  801f48:	d0a746c3 	ldbu	r2,-25317(gp)
  801f4c:	10803fcc 	andi	r2,r2,255
  801f50:	1080201c 	xori	r2,r2,128
  801f54:	10bfe004 	addi	r2,r2,-128
  801f58:	1000191e 	bne	r2,zero,801fc0 <tick+0x15ec>
  801f5c:	d0a734c3 	ldbu	r2,-25389(gp)
  801f60:	10803fcc 	andi	r2,r2,255
  801f64:	1080201c 	xori	r2,r2,128
  801f68:	10bfe004 	addi	r2,r2,-128
  801f6c:	10000526 	beq	r2,zero,801f84 <tick+0x15b0>
  801f70:	d0a73403 	ldbu	r2,-25392(gp)
  801f74:	10803fcc 	andi	r2,r2,255
  801f78:	1080201c 	xori	r2,r2,128
  801f7c:	10bfe004 	addi	r2,r2,-128
  801f80:	10000f1e 	bne	r2,zero,801fc0 <tick+0x15ec>
  801f84:	d0a74343 	ldbu	r2,-25331(gp)
  801f88:	10803fcc 	andi	r2,r2,255
  801f8c:	1080201c 	xori	r2,r2,128
  801f90:	10bfe004 	addi	r2,r2,-128
  801f94:	10000526 	beq	r2,zero,801fac <tick+0x15d8>
  801f98:	d0a74d03 	ldbu	r2,-25292(gp)
  801f9c:	10803fcc 	andi	r2,r2,255
  801fa0:	1080201c 	xori	r2,r2,128
  801fa4:	10bfe004 	addi	r2,r2,-128
  801fa8:	10000526 	beq	r2,zero,801fc0 <tick+0x15ec>
  801fac:	d0a73483 	ldbu	r2,-25390(gp)
  801fb0:	10803fcc 	andi	r2,r2,255
  801fb4:	1080201c 	xori	r2,r2,128
  801fb8:	10bfe004 	addi	r2,r2,-128
  801fbc:	10000226 	beq	r2,zero,801fc8 <tick+0x15f4>
  801fc0:	00800044 	movi	r2,1
  801fc4:	00000106 	br	801fcc <tick+0x15f8>
  801fc8:	0005883a 	mov	r2,zero
  801fcc:	d0a77485 	stb	r2,-25134(gp)
      g80 =((g81b&&(!(_cg81)))||g79);
  801fd0:	d0a734c3 	ldbu	r2,-25389(gp)
  801fd4:	10803fcc 	andi	r2,r2,255
  801fd8:	1080201c 	xori	r2,r2,128
  801fdc:	10bfe004 	addi	r2,r2,-128
  801fe0:	10000526 	beq	r2,zero,801ff8 <tick+0x1624>
  801fe4:	d0a73403 	ldbu	r2,-25392(gp)
  801fe8:	10803fcc 	andi	r2,r2,255
  801fec:	1080201c 	xori	r2,r2,128
  801ff0:	10bfe004 	addi	r2,r2,-128
  801ff4:	10000526 	beq	r2,zero,80200c <tick+0x1638>
  801ff8:	d0a74e43 	ldbu	r2,-25287(gp)
  801ffc:	10803fcc 	andi	r2,r2,255
  802000:	1080201c 	xori	r2,r2,128
  802004:	10bfe004 	addi	r2,r2,-128
  802008:	10000226 	beq	r2,zero,802014 <tick+0x1640>
  80200c:	00800044 	movi	r2,1
  802010:	00000106 	br	802018 <tick+0x1644>
  802014:	0005883a 	mov	r2,zero
  802018:	d0a75105 	stb	r2,-25276(gp)
      g85 = g1;
  80201c:	d0a74203 	ldbu	r2,-25336(gp)
  802020:	d0a73a85 	stb	r2,-25366(gp)
      g87 =(PRE_g86);
  802024:	d0a76a83 	ldbu	r2,-25174(gp)
  802028:	d0a73f85 	stb	r2,-25346(gp)
      g87b = g87;
  80202c:	d0a73f83 	ldbu	r2,-25346(gp)
  802030:	d0a73905 	stb	r2,-25372(gp)
      _cg87 = AVI_stop;
  802034:	d0a74143 	ldbu	r2,-25339(gp)
  802038:	d0a75345 	stb	r2,-25267(gp)
      g92 =(g87b&&(!(_cg87)));
  80203c:	d0a73903 	ldbu	r2,-25372(gp)
  802040:	10803fcc 	andi	r2,r2,255
  802044:	1080201c 	xori	r2,r2,128
  802048:	10bfe004 	addi	r2,r2,-128
  80204c:	10000726 	beq	r2,zero,80206c <tick+0x1698>
  802050:	d0a75343 	ldbu	r2,-25267(gp)
  802054:	10803fcc 	andi	r2,r2,255
  802058:	1080201c 	xori	r2,r2,128
  80205c:	10bfe004 	addi	r2,r2,-128
  802060:	1000021e 	bne	r2,zero,80206c <tick+0x1698>
  802064:	00800044 	movi	r2,1
  802068:	00000106 	br	802070 <tick+0x169c>
  80206c:	0005883a 	mov	r2,zero
  802070:	d0a741c5 	stb	r2,-25337(gp)
      _cg92 = AEI_start;
  802074:	d0a76bc3 	ldbu	r2,-25169(gp)
  802078:	d0a77605 	stb	r2,-25128(gp)
      g86 =(g91||(g92&&(!(_cg92)))||g85||(g89b&&_cg89));
  80207c:	d0a73583 	ldbu	r2,-25386(gp)
  802080:	10803fcc 	andi	r2,r2,255
  802084:	1080201c 	xori	r2,r2,128
  802088:	10bfe004 	addi	r2,r2,-128
  80208c:	1000191e 	bne	r2,zero,8020f4 <tick+0x1720>
  802090:	d0a741c3 	ldbu	r2,-25337(gp)
  802094:	10803fcc 	andi	r2,r2,255
  802098:	1080201c 	xori	r2,r2,128
  80209c:	10bfe004 	addi	r2,r2,-128
  8020a0:	10000526 	beq	r2,zero,8020b8 <tick+0x16e4>
  8020a4:	d0a77603 	ldbu	r2,-25128(gp)
  8020a8:	10803fcc 	andi	r2,r2,255
  8020ac:	1080201c 	xori	r2,r2,128
  8020b0:	10bfe004 	addi	r2,r2,-128
  8020b4:	10000f26 	beq	r2,zero,8020f4 <tick+0x1720>
  8020b8:	d0a73a83 	ldbu	r2,-25366(gp)
  8020bc:	10803fcc 	andi	r2,r2,255
  8020c0:	1080201c 	xori	r2,r2,128
  8020c4:	10bfe004 	addi	r2,r2,-128
  8020c8:	10000a1e 	bne	r2,zero,8020f4 <tick+0x1720>
  8020cc:	d0a75c43 	ldbu	r2,-25231(gp)
  8020d0:	10803fcc 	andi	r2,r2,255
  8020d4:	1080201c 	xori	r2,r2,128
  8020d8:	10bfe004 	addi	r2,r2,-128
  8020dc:	10000726 	beq	r2,zero,8020fc <tick+0x1728>
  8020e0:	d0a76e83 	ldbu	r2,-25158(gp)
  8020e4:	10803fcc 	andi	r2,r2,255
  8020e8:	1080201c 	xori	r2,r2,128
  8020ec:	10bfe004 	addi	r2,r2,-128
  8020f0:	10000226 	beq	r2,zero,8020fc <tick+0x1728>
  8020f4:	00800044 	movi	r2,1
  8020f8:	00000106 	br	802100 <tick+0x172c>
  8020fc:	0005883a 	mov	r2,zero
  802100:	d0a76185 	stb	r2,-25210(gp)
      g88 =((g90&&(!(_cg90)))||(g92&&_cg92)||(g87b&&_cg87));
  802104:	d0a75b83 	ldbu	r2,-25234(gp)
  802108:	10803fcc 	andi	r2,r2,255
  80210c:	1080201c 	xori	r2,r2,128
  802110:	10bfe004 	addi	r2,r2,-128
  802114:	10000526 	beq	r2,zero,80212c <tick+0x1758>
  802118:	d0a75083 	ldbu	r2,-25278(gp)
  80211c:	10803fcc 	andi	r2,r2,255
  802120:	1080201c 	xori	r2,r2,128
  802124:	10bfe004 	addi	r2,r2,-128
  802128:	10001426 	beq	r2,zero,80217c <tick+0x17a8>
  80212c:	d0a741c3 	ldbu	r2,-25337(gp)
  802130:	10803fcc 	andi	r2,r2,255
  802134:	1080201c 	xori	r2,r2,128
  802138:	10bfe004 	addi	r2,r2,-128
  80213c:	10000526 	beq	r2,zero,802154 <tick+0x1780>
  802140:	d0a77603 	ldbu	r2,-25128(gp)
  802144:	10803fcc 	andi	r2,r2,255
  802148:	1080201c 	xori	r2,r2,128
  80214c:	10bfe004 	addi	r2,r2,-128
  802150:	10000a1e 	bne	r2,zero,80217c <tick+0x17a8>
  802154:	d0a73903 	ldbu	r2,-25372(gp)
  802158:	10803fcc 	andi	r2,r2,255
  80215c:	1080201c 	xori	r2,r2,128
  802160:	10bfe004 	addi	r2,r2,-128
  802164:	10000726 	beq	r2,zero,802184 <tick+0x17b0>
  802168:	d0a75343 	ldbu	r2,-25267(gp)
  80216c:	10803fcc 	andi	r2,r2,255
  802170:	1080201c 	xori	r2,r2,128
  802174:	10bfe004 	addi	r2,r2,-128
  802178:	10000226 	beq	r2,zero,802184 <tick+0x17b0>
  80217c:	00800044 	movi	r2,1
  802180:	00000106 	br	802188 <tick+0x17b4>
  802184:	0005883a 	mov	r2,zero
  802188:	d0a77505 	stb	r2,-25132(gp)
      g94 = g1;
  80218c:	d0a74203 	ldbu	r2,-25336(gp)
  802190:	d0a74f05 	stb	r2,-25284(gp)
      g96 =(PRE_g95);
  802194:	d0a73643 	ldbu	r2,-25383(gp)
  802198:	d0a76705 	stb	r2,-25188(gp)
      g96b = g96;
  80219c:	d0a76703 	ldbu	r2,-25188(gp)
  8021a0:	d0a73dc5 	stb	r2,-25353(gp)
      _cg96 = AVI_stop;
  8021a4:	d0a74143 	ldbu	r2,-25339(gp)
  8021a8:	d0a737c5 	stb	r2,-25377(gp)
      g95 =(g94||(g96b&&(!(_cg96)))||(g98b&&_cg98)||g100);
  8021ac:	d0a74f03 	ldbu	r2,-25284(gp)
  8021b0:	10803fcc 	andi	r2,r2,255
  8021b4:	1080201c 	xori	r2,r2,128
  8021b8:	10bfe004 	addi	r2,r2,-128
  8021bc:	1000191e 	bne	r2,zero,802224 <tick+0x1850>
  8021c0:	d0a73dc3 	ldbu	r2,-25353(gp)
  8021c4:	10803fcc 	andi	r2,r2,255
  8021c8:	1080201c 	xori	r2,r2,128
  8021cc:	10bfe004 	addi	r2,r2,-128
  8021d0:	10000526 	beq	r2,zero,8021e8 <tick+0x1814>
  8021d4:	d0a737c3 	ldbu	r2,-25377(gp)
  8021d8:	10803fcc 	andi	r2,r2,255
  8021dc:	1080201c 	xori	r2,r2,128
  8021e0:	10bfe004 	addi	r2,r2,-128
  8021e4:	10000f26 	beq	r2,zero,802224 <tick+0x1850>
  8021e8:	d0a76303 	ldbu	r2,-25204(gp)
  8021ec:	10803fcc 	andi	r2,r2,255
  8021f0:	1080201c 	xori	r2,r2,128
  8021f4:	10bfe004 	addi	r2,r2,-128
  8021f8:	10000526 	beq	r2,zero,802210 <tick+0x183c>
  8021fc:	d0a74403 	ldbu	r2,-25328(gp)
  802200:	10803fcc 	andi	r2,r2,255
  802204:	1080201c 	xori	r2,r2,128
  802208:	10bfe004 	addi	r2,r2,-128
  80220c:	1000051e 	bne	r2,zero,802224 <tick+0x1850>
  802210:	d0a751c3 	ldbu	r2,-25273(gp)
  802214:	10803fcc 	andi	r2,r2,255
  802218:	1080201c 	xori	r2,r2,128
  80221c:	10bfe004 	addi	r2,r2,-128
  802220:	10000226 	beq	r2,zero,80222c <tick+0x1858>
  802224:	00800044 	movi	r2,1
  802228:	00000106 	br	802230 <tick+0x185c>
  80222c:	0005883a 	mov	r2,zero
  802230:	d0a76685 	stb	r2,-25190(gp)
      g97 =((g96b&&_cg96)||(g99&&(!(_cg99))));
  802234:	d0a73dc3 	ldbu	r2,-25353(gp)
  802238:	10803fcc 	andi	r2,r2,255
  80223c:	1080201c 	xori	r2,r2,128
  802240:	10bfe004 	addi	r2,r2,-128
  802244:	10000526 	beq	r2,zero,80225c <tick+0x1888>
  802248:	d0a737c3 	ldbu	r2,-25377(gp)
  80224c:	10803fcc 	andi	r2,r2,255
  802250:	1080201c 	xori	r2,r2,128
  802254:	10bfe004 	addi	r2,r2,-128
  802258:	10000a1e 	bne	r2,zero,802284 <tick+0x18b0>
  80225c:	d0a75243 	ldbu	r2,-25271(gp)
  802260:	10803fcc 	andi	r2,r2,255
  802264:	1080201c 	xori	r2,r2,128
  802268:	10bfe004 	addi	r2,r2,-128
  80226c:	10000726 	beq	r2,zero,80228c <tick+0x18b8>
  802270:	d0a73543 	ldbu	r2,-25387(gp)
  802274:	10803fcc 	andi	r2,r2,255
  802278:	1080201c 	xori	r2,r2,128
  80227c:	10bfe004 	addi	r2,r2,-128
  802280:	1000021e 	bne	r2,zero,80228c <tick+0x18b8>
  802284:	00800044 	movi	r2,1
  802288:	00000106 	br	802290 <tick+0x18bc>
  80228c:	0005883a 	mov	r2,zero
  802290:	d0a74485 	stb	r2,-25326(gp)
      g102 = g1;
  802294:	d0a74203 	ldbu	r2,-25336(gp)
  802298:	d0a73d45 	stb	r2,-25355(gp)
      g104 =(PRE_g103);
  80229c:	d0a76783 	ldbu	r2,-25186(gp)
  8022a0:	d0a769c5 	stb	r2,-25177(gp)
      g104b = g104;
  8022a4:	d0a769c3 	ldbu	r2,-25177(gp)
  8022a8:	d0a74185 	stb	r2,-25338(gp)
      _cg104 = AVI_stop;
  8022ac:	d0a74143 	ldbu	r2,-25339(gp)
  8022b0:	d0a747c5 	stb	r2,-25313(gp)
      g108 =(g104b&&(!(_cg104)));
  8022b4:	d0a74183 	ldbu	r2,-25338(gp)
  8022b8:	10803fcc 	andi	r2,r2,255
  8022bc:	1080201c 	xori	r2,r2,128
  8022c0:	10bfe004 	addi	r2,r2,-128
  8022c4:	10000726 	beq	r2,zero,8022e4 <tick+0x1910>
  8022c8:	d0a747c3 	ldbu	r2,-25313(gp)
  8022cc:	10803fcc 	andi	r2,r2,255
  8022d0:	1080201c 	xori	r2,r2,128
  8022d4:	10bfe004 	addi	r2,r2,-128
  8022d8:	1000021e 	bne	r2,zero,8022e4 <tick+0x1910>
  8022dc:	00800044 	movi	r2,1
  8022e0:	00000106 	br	8022e8 <tick+0x1914>
  8022e4:	0005883a 	mov	r2,zero
  8022e8:	d0a736c5 	stb	r2,-25381(gp)
      _cg108 = URI_start;
  8022ec:	d0a77b03 	ldbu	r2,-25108(gp)
  8022f0:	d0a76dc5 	stb	r2,-25161(gp)
      g103 =(g107||(g108&&(!(_cg108)))||g102);
  8022f4:	d0a76843 	ldbu	r2,-25183(gp)
  8022f8:	10803fcc 	andi	r2,r2,255
  8022fc:	1080201c 	xori	r2,r2,128
  802300:	10bfe004 	addi	r2,r2,-128
  802304:	10000f1e 	bne	r2,zero,802344 <tick+0x1970>
  802308:	d0a736c3 	ldbu	r2,-25381(gp)
  80230c:	10803fcc 	andi	r2,r2,255
  802310:	1080201c 	xori	r2,r2,128
  802314:	10bfe004 	addi	r2,r2,-128
  802318:	10000526 	beq	r2,zero,802330 <tick+0x195c>
  80231c:	d0a76dc3 	ldbu	r2,-25161(gp)
  802320:	10803fcc 	andi	r2,r2,255
  802324:	1080201c 	xori	r2,r2,128
  802328:	10bfe004 	addi	r2,r2,-128
  80232c:	10000526 	beq	r2,zero,802344 <tick+0x1970>
  802330:	d0a73d43 	ldbu	r2,-25355(gp)
  802334:	10803fcc 	andi	r2,r2,255
  802338:	1080201c 	xori	r2,r2,128
  80233c:	10bfe004 	addi	r2,r2,-128
  802340:	10000226 	beq	r2,zero,80234c <tick+0x1978>
  802344:	00800044 	movi	r2,1
  802348:	00000106 	br	802350 <tick+0x197c>
  80234c:	0005883a 	mov	r2,zero
  802350:	d0a73a05 	stb	r2,-25368(gp)
      g105 =((g108&&_cg108)||(g106&&(!(_cg106)))||(g104b&&_cg104));
  802354:	d0a736c3 	ldbu	r2,-25381(gp)
  802358:	10803fcc 	andi	r2,r2,255
  80235c:	1080201c 	xori	r2,r2,128
  802360:	10bfe004 	addi	r2,r2,-128
  802364:	10000526 	beq	r2,zero,80237c <tick+0x19a8>
  802368:	d0a76dc3 	ldbu	r2,-25161(gp)
  80236c:	10803fcc 	andi	r2,r2,255
  802370:	1080201c 	xori	r2,r2,128
  802374:	10bfe004 	addi	r2,r2,-128
  802378:	1000141e 	bne	r2,zero,8023cc <tick+0x19f8>
  80237c:	d0a77b83 	ldbu	r2,-25106(gp)
  802380:	10803fcc 	andi	r2,r2,255
  802384:	1080201c 	xori	r2,r2,128
  802388:	10bfe004 	addi	r2,r2,-128
  80238c:	10000526 	beq	r2,zero,8023a4 <tick+0x19d0>
  802390:	d0a76583 	ldbu	r2,-25194(gp)
  802394:	10803fcc 	andi	r2,r2,255
  802398:	1080201c 	xori	r2,r2,128
  80239c:	10bfe004 	addi	r2,r2,-128
  8023a0:	10000a26 	beq	r2,zero,8023cc <tick+0x19f8>
  8023a4:	d0a74183 	ldbu	r2,-25338(gp)
  8023a8:	10803fcc 	andi	r2,r2,255
  8023ac:	1080201c 	xori	r2,r2,128
  8023b0:	10bfe004 	addi	r2,r2,-128
  8023b4:	10000726 	beq	r2,zero,8023d4 <tick+0x1a00>
  8023b8:	d0a747c3 	ldbu	r2,-25313(gp)
  8023bc:	10803fcc 	andi	r2,r2,255
  8023c0:	1080201c 	xori	r2,r2,128
  8023c4:	10bfe004 	addi	r2,r2,-128
  8023c8:	10000226 	beq	r2,zero,8023d4 <tick+0x1a00>
  8023cc:	00800044 	movi	r2,1
  8023d0:	00000106 	br	8023d8 <tick+0x1a04>
  8023d4:	0005883a 	mov	r2,zero
  8023d8:	d0a74bc5 	stb	r2,-25297(gp)
      g110 = g1;
  8023dc:	d0a74203 	ldbu	r2,-25336(gp)
  8023e0:	d0a74f45 	stb	r2,-25283(gp)
      g114 =(PRE_g113);
  8023e4:	d0a76243 	ldbu	r2,-25207(gp)
  8023e8:	d0a75605 	stb	r2,-25256(gp)
      g114b = g114;
  8023ec:	d0a75603 	ldbu	r2,-25256(gp)
  8023f0:	d0a73bc5 	stb	r2,-25361(gp)
      _cg114 = URI_ex;
  8023f4:	d0a75903 	ldbu	r2,-25244(gp)
  8023f8:	d0a75745 	stb	r2,-25251(gp)
      g112 =(PRE_g111);
  8023fc:	d0a74d83 	ldbu	r2,-25290(gp)
  802400:	d0a738c5 	stb	r2,-25373(gp)
      g112b = g112;
  802404:	d0a738c3 	ldbu	r2,-25373(gp)
  802408:	d0a77a05 	stb	r2,-25112(gp)
      _cg112 = AVI_stop;
  80240c:	d0a74143 	ldbu	r2,-25339(gp)
  802410:	d0a76985 	stb	r2,-25178(gp)
      g111 =(g110||(g114b&&_cg114)||(g112b&&(!(_cg112))));
  802414:	d0a74f43 	ldbu	r2,-25283(gp)
  802418:	10803fcc 	andi	r2,r2,255
  80241c:	1080201c 	xori	r2,r2,128
  802420:	10bfe004 	addi	r2,r2,-128
  802424:	1000141e 	bne	r2,zero,802478 <tick+0x1aa4>
  802428:	d0a73bc3 	ldbu	r2,-25361(gp)
  80242c:	10803fcc 	andi	r2,r2,255
  802430:	1080201c 	xori	r2,r2,128
  802434:	10bfe004 	addi	r2,r2,-128
  802438:	10000526 	beq	r2,zero,802450 <tick+0x1a7c>
  80243c:	d0a75743 	ldbu	r2,-25251(gp)
  802440:	10803fcc 	andi	r2,r2,255
  802444:	1080201c 	xori	r2,r2,128
  802448:	10bfe004 	addi	r2,r2,-128
  80244c:	10000a1e 	bne	r2,zero,802478 <tick+0x1aa4>
  802450:	d0a77a03 	ldbu	r2,-25112(gp)
  802454:	10803fcc 	andi	r2,r2,255
  802458:	1080201c 	xori	r2,r2,128
  80245c:	10bfe004 	addi	r2,r2,-128
  802460:	10000726 	beq	r2,zero,802480 <tick+0x1aac>
  802464:	d0a76983 	ldbu	r2,-25178(gp)
  802468:	10803fcc 	andi	r2,r2,255
  80246c:	1080201c 	xori	r2,r2,128
  802470:	10bfe004 	addi	r2,r2,-128
  802474:	1000021e 	bne	r2,zero,802480 <tick+0x1aac>
  802478:	00800044 	movi	r2,1
  80247c:	00000106 	br	802484 <tick+0x1ab0>
  802480:	0005883a 	mov	r2,zero
  802484:	d0a73745 	stb	r2,-25379(gp)
      g113 =((g112b&&_cg112)||(g114b&&(!(_cg114))));
  802488:	d0a77a03 	ldbu	r2,-25112(gp)
  80248c:	10803fcc 	andi	r2,r2,255
  802490:	1080201c 	xori	r2,r2,128
  802494:	10bfe004 	addi	r2,r2,-128
  802498:	10000526 	beq	r2,zero,8024b0 <tick+0x1adc>
  80249c:	d0a76983 	ldbu	r2,-25178(gp)
  8024a0:	10803fcc 	andi	r2,r2,255
  8024a4:	1080201c 	xori	r2,r2,128
  8024a8:	10bfe004 	addi	r2,r2,-128
  8024ac:	10000a1e 	bne	r2,zero,8024d8 <tick+0x1b04>
  8024b0:	d0a73bc3 	ldbu	r2,-25361(gp)
  8024b4:	10803fcc 	andi	r2,r2,255
  8024b8:	1080201c 	xori	r2,r2,128
  8024bc:	10bfe004 	addi	r2,r2,-128
  8024c0:	10000726 	beq	r2,zero,8024e0 <tick+0x1b0c>
  8024c4:	d0a75743 	ldbu	r2,-25251(gp)
  8024c8:	10803fcc 	andi	r2,r2,255
  8024cc:	1080201c 	xori	r2,r2,128
  8024d0:	10bfe004 	addi	r2,r2,-128
  8024d4:	1000021e 	bne	r2,zero,8024e0 <tick+0x1b0c>
  8024d8:	00800044 	movi	r2,1
  8024dc:	00000106 	br	8024e4 <tick+0x1b10>
  8024e0:	0005883a 	mov	r2,zero
  8024e4:	d0a76885 	stb	r2,-25182(gp)
      g120 = g1;
  8024e8:	d0a74203 	ldbu	r2,-25336(gp)
  8024ec:	d0a77845 	stb	r2,-25119(gp)
      g121 =(g122||g120);
  8024f0:	d0a758c3 	ldbu	r2,-25245(gp)
  8024f4:	10803fcc 	andi	r2,r2,255
  8024f8:	1080201c 	xori	r2,r2,128
  8024fc:	10bfe004 	addi	r2,r2,-128
  802500:	1000051e 	bne	r2,zero,802518 <tick+0x1b44>
  802504:	d0a77843 	ldbu	r2,-25119(gp)
  802508:	10803fcc 	andi	r2,r2,255
  80250c:	1080201c 	xori	r2,r2,128
  802510:	10bfe004 	addi	r2,r2,-128
  802514:	10000226 	beq	r2,zero,802520 <tick+0x1b4c>
  802518:	00800044 	movi	r2,1
  80251c:	00000106 	br	802524 <tick+0x1b50>
  802520:	0005883a 	mov	r2,zero
  802524:	d0a77705 	stb	r2,-25124(gp)
      if(g121){
  802528:	d0a77703 	ldbu	r2,-25124(gp)
  80252c:	10803fcc 	andi	r2,r2,255
  802530:	1080201c 	xori	r2,r2,128
  802534:	10bfe004 	addi	r2,r2,-128
  802538:	10000226 	beq	r2,zero,802544 <tick+0x1b70>
         _Pacemaker1_local__reg_AVI_ex16 = _Pacemaker1_local_AVI_ex;
  80253c:	d0a762c3 	ldbu	r2,-25205(gp)
  802540:	d0a76545 	stb	r2,-25195(gp)
      }
      g121b = g121;
  802544:	d0a77703 	ldbu	r2,-25124(gp)
  802548:	d0a75e05 	stb	r2,-25224(gp)
      if(g121b){
  80254c:	d0a75e03 	ldbu	r2,-25224(gp)
  802550:	10803fcc 	andi	r2,r2,255
  802554:	1080201c 	xori	r2,r2,128
  802558:	10bfe004 	addi	r2,r2,-128
  80255c:	10000226 	beq	r2,zero,802568 <tick+0x1b94>
         _Pacemaker1_local__reg_FilteredVSense16 = _Pacemaker1_local_FilteredVSense;
  802560:	d0a755c3 	ldbu	r2,-25257(gp)
  802564:	d0a740c5 	stb	r2,-25341(gp)
      }
      g129 = g0;
  802568:	d0a76e43 	ldbu	r2,-25159(gp)
  80256c:	d0a75685 	stb	r2,-25254(gp)
      g130 =(g131||g129);
  802570:	d0a756c3 	ldbu	r2,-25253(gp)
  802574:	10803fcc 	andi	r2,r2,255
  802578:	1080201c 	xori	r2,r2,128
  80257c:	10bfe004 	addi	r2,r2,-128
  802580:	1000051e 	bne	r2,zero,802598 <tick+0x1bc4>
  802584:	d0a75683 	ldbu	r2,-25254(gp)
  802588:	10803fcc 	andi	r2,r2,255
  80258c:	1080201c 	xori	r2,r2,128
  802590:	10bfe004 	addi	r2,r2,-128
  802594:	10000226 	beq	r2,zero,8025a0 <tick+0x1bcc>
  802598:	00800044 	movi	r2,1
  80259c:	00000106 	br	8025a4 <tick+0x1bd0>
  8025a0:	0005883a 	mov	r2,zero
  8025a4:	d0a77685 	stb	r2,-25126(gp)
      if(g130){
  8025a8:	d0a77683 	ldbu	r2,-25126(gp)
  8025ac:	10803fcc 	andi	r2,r2,255
  8025b0:	1080201c 	xori	r2,r2,128
  8025b4:	10bfe004 	addi	r2,r2,-128
  8025b8:	10000226 	beq	r2,zero,8025c4 <tick+0x1bf0>
         _reg_VPace9 = VPace;
  8025bc:	d0a77743 	ldbu	r2,-25123(gp)
  8025c0:	d0a75ac5 	stb	r2,-25237(gp)
      }
      g9_e1 =(!((g4||g6)));
  8025c4:	d0a73683 	ldbu	r2,-25382(gp)
  8025c8:	10803fcc 	andi	r2,r2,255
  8025cc:	1080201c 	xori	r2,r2,128
  8025d0:	10bfe004 	addi	r2,r2,-128
  8025d4:	1000071e 	bne	r2,zero,8025f4 <tick+0x1c20>
  8025d8:	d0a76cc3 	ldbu	r2,-25165(gp)
  8025dc:	10803fcc 	andi	r2,r2,255
  8025e0:	1080201c 	xori	r2,r2,128
  8025e4:	10bfe004 	addi	r2,r2,-128
  8025e8:	1000021e 	bne	r2,zero,8025f4 <tick+0x1c20>
  8025ec:	00800044 	movi	r2,1
  8025f0:	00000106 	br	8025f8 <tick+0x1c24>
  8025f4:	0005883a 	mov	r2,zero
  8025f8:	d0a754c5 	stb	r2,-25261(gp)
      g18_e2 =(!((g12||g15)));
  8025fc:	d0a74443 	ldbu	r2,-25327(gp)
  802600:	10803fcc 	andi	r2,r2,255
  802604:	1080201c 	xori	r2,r2,128
  802608:	10bfe004 	addi	r2,r2,-128
  80260c:	1000071e 	bne	r2,zero,80262c <tick+0x1c58>
  802610:	d0a75b43 	ldbu	r2,-25235(gp)
  802614:	10803fcc 	andi	r2,r2,255
  802618:	1080201c 	xori	r2,r2,128
  80261c:	10bfe004 	addi	r2,r2,-128
  802620:	1000021e 	bne	r2,zero,80262c <tick+0x1c58>
  802624:	00800044 	movi	r2,1
  802628:	00000106 	br	802630 <tick+0x1c5c>
  80262c:	0005883a 	mov	r2,zero
  802630:	d0a76905 	stb	r2,-25180(gp)
      g27_e3 =(!((g21||g23)));
  802634:	d0a74e03 	ldbu	r2,-25288(gp)
  802638:	10803fcc 	andi	r2,r2,255
  80263c:	1080201c 	xori	r2,r2,128
  802640:	10bfe004 	addi	r2,r2,-128
  802644:	1000071e 	bne	r2,zero,802664 <tick+0x1c90>
  802648:	d0a75303 	ldbu	r2,-25268(gp)
  80264c:	10803fcc 	andi	r2,r2,255
  802650:	1080201c 	xori	r2,r2,128
  802654:	10bfe004 	addi	r2,r2,-128
  802658:	1000021e 	bne	r2,zero,802664 <tick+0x1c90>
  80265c:	00800044 	movi	r2,1
  802660:	00000106 	br	802668 <tick+0x1c94>
  802664:	0005883a 	mov	r2,zero
  802668:	d0a75e45 	stb	r2,-25223(gp)
      g43_e4 =(!((g30||g33||g35||g38)));
  80266c:	d0a76f43 	ldbu	r2,-25155(gp)
  802670:	10803fcc 	andi	r2,r2,255
  802674:	1080201c 	xori	r2,r2,128
  802678:	10bfe004 	addi	r2,r2,-128
  80267c:	1000111e 	bne	r2,zero,8026c4 <tick+0x1cf0>
  802680:	d0a757c3 	ldbu	r2,-25249(gp)
  802684:	10803fcc 	andi	r2,r2,255
  802688:	1080201c 	xori	r2,r2,128
  80268c:	10bfe004 	addi	r2,r2,-128
  802690:	10000c1e 	bne	r2,zero,8026c4 <tick+0x1cf0>
  802694:	d0a75b03 	ldbu	r2,-25236(gp)
  802698:	10803fcc 	andi	r2,r2,255
  80269c:	1080201c 	xori	r2,r2,128
  8026a0:	10bfe004 	addi	r2,r2,-128
  8026a4:	1000071e 	bne	r2,zero,8026c4 <tick+0x1cf0>
  8026a8:	d0a74b83 	ldbu	r2,-25298(gp)
  8026ac:	10803fcc 	andi	r2,r2,255
  8026b0:	1080201c 	xori	r2,r2,128
  8026b4:	10bfe004 	addi	r2,r2,-128
  8026b8:	1000021e 	bne	r2,zero,8026c4 <tick+0x1cf0>
  8026bc:	00800044 	movi	r2,1
  8026c0:	00000106 	br	8026c8 <tick+0x1cf4>
  8026c4:	0005883a 	mov	r2,zero
  8026c8:	d0a75dc5 	stb	r2,-25225(gp)
      g51_e5 =(!((g46||g48)));
  8026cc:	d0a76483 	ldbu	r2,-25198(gp)
  8026d0:	10803fcc 	andi	r2,r2,255
  8026d4:	1080201c 	xori	r2,r2,128
  8026d8:	10bfe004 	addi	r2,r2,-128
  8026dc:	1000071e 	bne	r2,zero,8026fc <tick+0x1d28>
  8026e0:	d0a74ac3 	ldbu	r2,-25301(gp)
  8026e4:	10803fcc 	andi	r2,r2,255
  8026e8:	1080201c 	xori	r2,r2,128
  8026ec:	10bfe004 	addi	r2,r2,-128
  8026f0:	1000021e 	bne	r2,zero,8026fc <tick+0x1d28>
  8026f4:	00800044 	movi	r2,1
  8026f8:	00000106 	br	802700 <tick+0x1d2c>
  8026fc:	0005883a 	mov	r2,zero
  802700:	d0a76945 	stb	r2,-25179(gp)
      g67_e6 =(!((g54||g57||g61)));
  802704:	d0a75283 	ldbu	r2,-25270(gp)
  802708:	10803fcc 	andi	r2,r2,255
  80270c:	1080201c 	xori	r2,r2,128
  802710:	10bfe004 	addi	r2,r2,-128
  802714:	10000c1e 	bne	r2,zero,802748 <tick+0x1d74>
  802718:	d0a76b83 	ldbu	r2,-25170(gp)
  80271c:	10803fcc 	andi	r2,r2,255
  802720:	1080201c 	xori	r2,r2,128
  802724:	10bfe004 	addi	r2,r2,-128
  802728:	1000071e 	bne	r2,zero,802748 <tick+0x1d74>
  80272c:	d0a74243 	ldbu	r2,-25335(gp)
  802730:	10803fcc 	andi	r2,r2,255
  802734:	1080201c 	xori	r2,r2,128
  802738:	10bfe004 	addi	r2,r2,-128
  80273c:	1000021e 	bne	r2,zero,802748 <tick+0x1d74>
  802740:	00800044 	movi	r2,1
  802744:	00000106 	br	80274c <tick+0x1d78>
  802748:	0005883a 	mov	r2,zero
  80274c:	d0a76fc5 	stb	r2,-25153(gp)
      g75_e7 =(!((g70||g72)));
  802750:	d0a76c03 	ldbu	r2,-25168(gp)
  802754:	10803fcc 	andi	r2,r2,255
  802758:	1080201c 	xori	r2,r2,128
  80275c:	10bfe004 	addi	r2,r2,-128
  802760:	1000071e 	bne	r2,zero,802780 <tick+0x1dac>
  802764:	d0a76d03 	ldbu	r2,-25164(gp)
  802768:	10803fcc 	andi	r2,r2,255
  80276c:	1080201c 	xori	r2,r2,128
  802770:	10bfe004 	addi	r2,r2,-128
  802774:	1000021e 	bne	r2,zero,802780 <tick+0x1dac>
  802778:	00800044 	movi	r2,1
  80277c:	00000106 	br	802784 <tick+0x1db0>
  802780:	0005883a 	mov	r2,zero
  802784:	d0a74305 	stb	r2,-25332(gp)
      g84_e8 =(!((g78||g81)));
  802788:	d0a75783 	ldbu	r2,-25250(gp)
  80278c:	10803fcc 	andi	r2,r2,255
  802790:	1080201c 	xori	r2,r2,128
  802794:	10bfe004 	addi	r2,r2,-128
  802798:	1000071e 	bne	r2,zero,8027b8 <tick+0x1de4>
  80279c:	d0a76d43 	ldbu	r2,-25163(gp)
  8027a0:	10803fcc 	andi	r2,r2,255
  8027a4:	1080201c 	xori	r2,r2,128
  8027a8:	10bfe004 	addi	r2,r2,-128
  8027ac:	1000021e 	bne	r2,zero,8027b8 <tick+0x1de4>
  8027b0:	00800044 	movi	r2,1
  8027b4:	00000106 	br	8027bc <tick+0x1de8>
  8027b8:	0005883a 	mov	r2,zero
  8027bc:	d0a75bc5 	stb	r2,-25233(gp)
      g93_e9 =(!((g87||g89)));
  8027c0:	d0a73f83 	ldbu	r2,-25346(gp)
  8027c4:	10803fcc 	andi	r2,r2,255
  8027c8:	1080201c 	xori	r2,r2,128
  8027cc:	10bfe004 	addi	r2,r2,-128
  8027d0:	1000071e 	bne	r2,zero,8027f0 <tick+0x1e1c>
  8027d4:	d0a76443 	ldbu	r2,-25199(gp)
  8027d8:	10803fcc 	andi	r2,r2,255
  8027dc:	1080201c 	xori	r2,r2,128
  8027e0:	10bfe004 	addi	r2,r2,-128
  8027e4:	1000021e 	bne	r2,zero,8027f0 <tick+0x1e1c>
  8027e8:	00800044 	movi	r2,1
  8027ec:	00000106 	br	8027f4 <tick+0x1e20>
  8027f0:	0005883a 	mov	r2,zero
  8027f4:	d0a773c5 	stb	r2,-25137(gp)
      g101_e10 =(!((g96||g98)));
  8027f8:	d0a76703 	ldbu	r2,-25188(gp)
  8027fc:	10803fcc 	andi	r2,r2,255
  802800:	1080201c 	xori	r2,r2,128
  802804:	10bfe004 	addi	r2,r2,-128
  802808:	1000071e 	bne	r2,zero,802828 <tick+0x1e54>
  80280c:	d0a76ac3 	ldbu	r2,-25173(gp)
  802810:	10803fcc 	andi	r2,r2,255
  802814:	1080201c 	xori	r2,r2,128
  802818:	10bfe004 	addi	r2,r2,-128
  80281c:	1000021e 	bne	r2,zero,802828 <tick+0x1e54>
  802820:	00800044 	movi	r2,1
  802824:	00000106 	br	80282c <tick+0x1e58>
  802828:	0005883a 	mov	r2,zero
  80282c:	d0a775c5 	stb	r2,-25129(gp)
      g109_e11 =(!((g104||g106)));
  802830:	d0a769c3 	ldbu	r2,-25177(gp)
  802834:	10803fcc 	andi	r2,r2,255
  802838:	1080201c 	xori	r2,r2,128
  80283c:	10bfe004 	addi	r2,r2,-128
  802840:	1000071e 	bne	r2,zero,802860 <tick+0x1e8c>
  802844:	d0a77b83 	ldbu	r2,-25106(gp)
  802848:	10803fcc 	andi	r2,r2,255
  80284c:	1080201c 	xori	r2,r2,128
  802850:	10bfe004 	addi	r2,r2,-128
  802854:	1000021e 	bne	r2,zero,802860 <tick+0x1e8c>
  802858:	00800044 	movi	r2,1
  80285c:	00000106 	br	802864 <tick+0x1e90>
  802860:	0005883a 	mov	r2,zero
  802864:	d0a77e05 	stb	r2,-25096(gp)
      g115_e12 =(!((g112||g114)));
  802868:	d0a738c3 	ldbu	r2,-25373(gp)
  80286c:	10803fcc 	andi	r2,r2,255
  802870:	1080201c 	xori	r2,r2,128
  802874:	10bfe004 	addi	r2,r2,-128
  802878:	1000071e 	bne	r2,zero,802898 <tick+0x1ec4>
  80287c:	d0a75603 	ldbu	r2,-25256(gp)
  802880:	10803fcc 	andi	r2,r2,255
  802884:	1080201c 	xori	r2,r2,128
  802888:	10bfe004 	addi	r2,r2,-128
  80288c:	1000021e 	bne	r2,zero,802898 <tick+0x1ec4>
  802890:	00800044 	movi	r2,1
  802894:	00000106 	br	80289c <tick+0x1ec8>
  802898:	0005883a 	mov	r2,zero
  80289c:	d0a75f85 	stb	r2,-25218(gp)
      g119_e13 =(!(g118));
  8028a0:	d0a74943 	ldbu	r2,-25307(gp)
  8028a4:	10803fcc 	andi	r2,r2,255
  8028a8:	1080201c 	xori	r2,r2,128
  8028ac:	10bfe004 	addi	r2,r2,-128
  8028b0:	1005003a 	cmpeq	r2,r2,zero
  8028b4:	d0a76e05 	stb	r2,-25160(gp)
      g123_e14 =(!(g122));
  8028b8:	d0a758c3 	ldbu	r2,-25245(gp)
  8028bc:	10803fcc 	andi	r2,r2,255
  8028c0:	1080201c 	xori	r2,r2,128
  8028c4:	10bfe004 	addi	r2,r2,-128
  8028c8:	1005003a 	cmpeq	r2,r2,zero
  8028cc:	d0a75845 	stb	r2,-25247(gp)
      g124_fix0 =((g9_e1||g9)&&(g18_e2||g18)&&(g27_e3||g27)&&(g43_e4||g43));
  8028d0:	d0a754c3 	ldbu	r2,-25261(gp)
  8028d4:	10803fcc 	andi	r2,r2,255
  8028d8:	1080201c 	xori	r2,r2,128
  8028dc:	10bfe004 	addi	r2,r2,-128
  8028e0:	1000051e 	bne	r2,zero,8028f8 <tick+0x1f24>
  8028e4:	d0a73b03 	ldbu	r2,-25364(gp)
  8028e8:	10803fcc 	andi	r2,r2,255
  8028ec:	1080201c 	xori	r2,r2,128
  8028f0:	10bfe004 	addi	r2,r2,-128
  8028f4:	10002026 	beq	r2,zero,802978 <tick+0x1fa4>
  8028f8:	d0a76903 	ldbu	r2,-25180(gp)
  8028fc:	10803fcc 	andi	r2,r2,255
  802900:	1080201c 	xori	r2,r2,128
  802904:	10bfe004 	addi	r2,r2,-128
  802908:	1000051e 	bne	r2,zero,802920 <tick+0x1f4c>
  80290c:	d0a74983 	ldbu	r2,-25306(gp)
  802910:	10803fcc 	andi	r2,r2,255
  802914:	1080201c 	xori	r2,r2,128
  802918:	10bfe004 	addi	r2,r2,-128
  80291c:	10001626 	beq	r2,zero,802978 <tick+0x1fa4>
  802920:	d0a75e43 	ldbu	r2,-25223(gp)
  802924:	10803fcc 	andi	r2,r2,255
  802928:	1080201c 	xori	r2,r2,128
  80292c:	10bfe004 	addi	r2,r2,-128
  802930:	1000051e 	bne	r2,zero,802948 <tick+0x1f74>
  802934:	d0a73843 	ldbu	r2,-25375(gp)
  802938:	10803fcc 	andi	r2,r2,255
  80293c:	1080201c 	xori	r2,r2,128
  802940:	10bfe004 	addi	r2,r2,-128
  802944:	10000c26 	beq	r2,zero,802978 <tick+0x1fa4>
  802948:	d0a75dc3 	ldbu	r2,-25225(gp)
  80294c:	10803fcc 	andi	r2,r2,255
  802950:	1080201c 	xori	r2,r2,128
  802954:	10bfe004 	addi	r2,r2,-128
  802958:	1000051e 	bne	r2,zero,802970 <tick+0x1f9c>
  80295c:	d0a761c3 	ldbu	r2,-25209(gp)
  802960:	10803fcc 	andi	r2,r2,255
  802964:	1080201c 	xori	r2,r2,128
  802968:	10bfe004 	addi	r2,r2,-128
  80296c:	10000226 	beq	r2,zero,802978 <tick+0x1fa4>
  802970:	00800044 	movi	r2,1
  802974:	00000106 	br	80297c <tick+0x1fa8>
  802978:	0005883a 	mov	r2,zero
  80297c:	d0a73885 	stb	r2,-25374(gp)
      g124_fix1 =(g124_fix0&&(g51_e5||g51)&&(g67_e6||g67)&&(g75_e7||g75));
  802980:	d0a73883 	ldbu	r2,-25374(gp)
  802984:	10803fcc 	andi	r2,r2,255
  802988:	1080201c 	xori	r2,r2,128
  80298c:	10bfe004 	addi	r2,r2,-128
  802990:	10002026 	beq	r2,zero,802a14 <tick+0x2040>
  802994:	d0a76943 	ldbu	r2,-25179(gp)
  802998:	10803fcc 	andi	r2,r2,255
  80299c:	1080201c 	xori	r2,r2,128
  8029a0:	10bfe004 	addi	r2,r2,-128
  8029a4:	1000051e 	bne	r2,zero,8029bc <tick+0x1fe8>
  8029a8:	d0a76743 	ldbu	r2,-25187(gp)
  8029ac:	10803fcc 	andi	r2,r2,255
  8029b0:	1080201c 	xori	r2,r2,128
  8029b4:	10bfe004 	addi	r2,r2,-128
  8029b8:	10001626 	beq	r2,zero,802a14 <tick+0x2040>
  8029bc:	d0a76fc3 	ldbu	r2,-25153(gp)
  8029c0:	10803fcc 	andi	r2,r2,255
  8029c4:	1080201c 	xori	r2,r2,128
  8029c8:	10bfe004 	addi	r2,r2,-128
  8029cc:	1000051e 	bne	r2,zero,8029e4 <tick+0x2010>
  8029d0:	d0a77943 	ldbu	r2,-25115(gp)
  8029d4:	10803fcc 	andi	r2,r2,255
  8029d8:	1080201c 	xori	r2,r2,128
  8029dc:	10bfe004 	addi	r2,r2,-128
  8029e0:	10000c26 	beq	r2,zero,802a14 <tick+0x2040>
  8029e4:	d0a74303 	ldbu	r2,-25332(gp)
  8029e8:	10803fcc 	andi	r2,r2,255
  8029ec:	1080201c 	xori	r2,r2,128
  8029f0:	10bfe004 	addi	r2,r2,-128
  8029f4:	1000051e 	bne	r2,zero,802a0c <tick+0x2038>
  8029f8:	d0a76f03 	ldbu	r2,-25156(gp)
  8029fc:	10803fcc 	andi	r2,r2,255
  802a00:	1080201c 	xori	r2,r2,128
  802a04:	10bfe004 	addi	r2,r2,-128
  802a08:	10000226 	beq	r2,zero,802a14 <tick+0x2040>
  802a0c:	00800044 	movi	r2,1
  802a10:	00000106 	br	802a18 <tick+0x2044>
  802a14:	0005883a 	mov	r2,zero
  802a18:	d0a753c5 	stb	r2,-25265(gp)
      g124_fix2 =(g124_fix1&&(g84_e8||g84)&&(g93_e9||g93)&&(g101_e10||g101));
  802a1c:	d0a753c3 	ldbu	r2,-25265(gp)
  802a20:	10803fcc 	andi	r2,r2,255
  802a24:	1080201c 	xori	r2,r2,128
  802a28:	10bfe004 	addi	r2,r2,-128
  802a2c:	10002026 	beq	r2,zero,802ab0 <tick+0x20dc>
  802a30:	d0a75bc3 	ldbu	r2,-25233(gp)
  802a34:	10803fcc 	andi	r2,r2,255
  802a38:	1080201c 	xori	r2,r2,128
  802a3c:	10bfe004 	addi	r2,r2,-128
  802a40:	1000051e 	bne	r2,zero,802a58 <tick+0x2084>
  802a44:	d0a74843 	ldbu	r2,-25311(gp)
  802a48:	10803fcc 	andi	r2,r2,255
  802a4c:	1080201c 	xori	r2,r2,128
  802a50:	10bfe004 	addi	r2,r2,-128
  802a54:	10001626 	beq	r2,zero,802ab0 <tick+0x20dc>
  802a58:	d0a773c3 	ldbu	r2,-25137(gp)
  802a5c:	10803fcc 	andi	r2,r2,255
  802a60:	1080201c 	xori	r2,r2,128
  802a64:	10bfe004 	addi	r2,r2,-128
  802a68:	1000051e 	bne	r2,zero,802a80 <tick+0x20ac>
  802a6c:	d0a76043 	ldbu	r2,-25215(gp)
  802a70:	10803fcc 	andi	r2,r2,255
  802a74:	1080201c 	xori	r2,r2,128
  802a78:	10bfe004 	addi	r2,r2,-128
  802a7c:	10000c26 	beq	r2,zero,802ab0 <tick+0x20dc>
  802a80:	d0a775c3 	ldbu	r2,-25129(gp)
  802a84:	10803fcc 	andi	r2,r2,255
  802a88:	1080201c 	xori	r2,r2,128
  802a8c:	10bfe004 	addi	r2,r2,-128
  802a90:	1000051e 	bne	r2,zero,802aa8 <tick+0x20d4>
  802a94:	d0a75503 	ldbu	r2,-25260(gp)
  802a98:	10803fcc 	andi	r2,r2,255
  802a9c:	1080201c 	xori	r2,r2,128
  802aa0:	10bfe004 	addi	r2,r2,-128
  802aa4:	10000226 	beq	r2,zero,802ab0 <tick+0x20dc>
  802aa8:	00800044 	movi	r2,1
  802aac:	00000106 	br	802ab4 <tick+0x20e0>
  802ab0:	0005883a 	mov	r2,zero
  802ab4:	d0a75fc5 	stb	r2,-25217(gp)
      g124_fix3 =(g9||g18||g27||g43);
  802ab8:	d0a73b03 	ldbu	r2,-25364(gp)
  802abc:	10803fcc 	andi	r2,r2,255
  802ac0:	1080201c 	xori	r2,r2,128
  802ac4:	10bfe004 	addi	r2,r2,-128
  802ac8:	10000f1e 	bne	r2,zero,802b08 <tick+0x2134>
  802acc:	d0a74983 	ldbu	r2,-25306(gp)
  802ad0:	10803fcc 	andi	r2,r2,255
  802ad4:	1080201c 	xori	r2,r2,128
  802ad8:	10bfe004 	addi	r2,r2,-128
  802adc:	10000a1e 	bne	r2,zero,802b08 <tick+0x2134>
  802ae0:	d0a73843 	ldbu	r2,-25375(gp)
  802ae4:	10803fcc 	andi	r2,r2,255
  802ae8:	1080201c 	xori	r2,r2,128
  802aec:	10bfe004 	addi	r2,r2,-128
  802af0:	1000051e 	bne	r2,zero,802b08 <tick+0x2134>
  802af4:	d0a761c3 	ldbu	r2,-25209(gp)
  802af8:	10803fcc 	andi	r2,r2,255
  802afc:	1080201c 	xori	r2,r2,128
  802b00:	10bfe004 	addi	r2,r2,-128
  802b04:	10000226 	beq	r2,zero,802b10 <tick+0x213c>
  802b08:	00800044 	movi	r2,1
  802b0c:	00000106 	br	802b14 <tick+0x2140>
  802b10:	0005883a 	mov	r2,zero
  802b14:	d0a74b45 	stb	r2,-25299(gp)
      g124_fix4 =(g124_fix3||g51||g67||g75);
  802b18:	d0a74b43 	ldbu	r2,-25299(gp)
  802b1c:	10803fcc 	andi	r2,r2,255
  802b20:	1080201c 	xori	r2,r2,128
  802b24:	10bfe004 	addi	r2,r2,-128
  802b28:	10000f1e 	bne	r2,zero,802b68 <tick+0x2194>
  802b2c:	d0a76743 	ldbu	r2,-25187(gp)
  802b30:	10803fcc 	andi	r2,r2,255
  802b34:	1080201c 	xori	r2,r2,128
  802b38:	10bfe004 	addi	r2,r2,-128
  802b3c:	10000a1e 	bne	r2,zero,802b68 <tick+0x2194>
  802b40:	d0a77943 	ldbu	r2,-25115(gp)
  802b44:	10803fcc 	andi	r2,r2,255
  802b48:	1080201c 	xori	r2,r2,128
  802b4c:	10bfe004 	addi	r2,r2,-128
  802b50:	1000051e 	bne	r2,zero,802b68 <tick+0x2194>
  802b54:	d0a76f03 	ldbu	r2,-25156(gp)
  802b58:	10803fcc 	andi	r2,r2,255
  802b5c:	1080201c 	xori	r2,r2,128
  802b60:	10bfe004 	addi	r2,r2,-128
  802b64:	10000226 	beq	r2,zero,802b70 <tick+0x219c>
  802b68:	00800044 	movi	r2,1
  802b6c:	00000106 	br	802b74 <tick+0x21a0>
  802b70:	0005883a 	mov	r2,zero
  802b74:	d0a77205 	stb	r2,-25144(gp)
      g124_e1_fix_fix =(g89||g98||g106||g114||g122||g15||g33||g57||g81||g35||g61);
  802b78:	d0a76443 	ldbu	r2,-25199(gp)
  802b7c:	10803fcc 	andi	r2,r2,255
  802b80:	1080201c 	xori	r2,r2,128
  802b84:	10bfe004 	addi	r2,r2,-128
  802b88:	1000321e 	bne	r2,zero,802c54 <tick+0x2280>
  802b8c:	d0a76ac3 	ldbu	r2,-25173(gp)
  802b90:	10803fcc 	andi	r2,r2,255
  802b94:	1080201c 	xori	r2,r2,128
  802b98:	10bfe004 	addi	r2,r2,-128
  802b9c:	10002d1e 	bne	r2,zero,802c54 <tick+0x2280>
  802ba0:	d0a77b83 	ldbu	r2,-25106(gp)
  802ba4:	10803fcc 	andi	r2,r2,255
  802ba8:	1080201c 	xori	r2,r2,128
  802bac:	10bfe004 	addi	r2,r2,-128
  802bb0:	1000281e 	bne	r2,zero,802c54 <tick+0x2280>
  802bb4:	d0a75603 	ldbu	r2,-25256(gp)
  802bb8:	10803fcc 	andi	r2,r2,255
  802bbc:	1080201c 	xori	r2,r2,128
  802bc0:	10bfe004 	addi	r2,r2,-128
  802bc4:	1000231e 	bne	r2,zero,802c54 <tick+0x2280>
  802bc8:	d0a758c3 	ldbu	r2,-25245(gp)
  802bcc:	10803fcc 	andi	r2,r2,255
  802bd0:	1080201c 	xori	r2,r2,128
  802bd4:	10bfe004 	addi	r2,r2,-128
  802bd8:	10001e1e 	bne	r2,zero,802c54 <tick+0x2280>
  802bdc:	d0a75b43 	ldbu	r2,-25235(gp)
  802be0:	10803fcc 	andi	r2,r2,255
  802be4:	1080201c 	xori	r2,r2,128
  802be8:	10bfe004 	addi	r2,r2,-128
  802bec:	1000191e 	bne	r2,zero,802c54 <tick+0x2280>
  802bf0:	d0a757c3 	ldbu	r2,-25249(gp)
  802bf4:	10803fcc 	andi	r2,r2,255
  802bf8:	1080201c 	xori	r2,r2,128
  802bfc:	10bfe004 	addi	r2,r2,-128
  802c00:	1000141e 	bne	r2,zero,802c54 <tick+0x2280>
  802c04:	d0a76b83 	ldbu	r2,-25170(gp)
  802c08:	10803fcc 	andi	r2,r2,255
  802c0c:	1080201c 	xori	r2,r2,128
  802c10:	10bfe004 	addi	r2,r2,-128
  802c14:	10000f1e 	bne	r2,zero,802c54 <tick+0x2280>
  802c18:	d0a76d43 	ldbu	r2,-25163(gp)
  802c1c:	10803fcc 	andi	r2,r2,255
  802c20:	1080201c 	xori	r2,r2,128
  802c24:	10bfe004 	addi	r2,r2,-128
  802c28:	10000a1e 	bne	r2,zero,802c54 <tick+0x2280>
  802c2c:	d0a75b03 	ldbu	r2,-25236(gp)
  802c30:	10803fcc 	andi	r2,r2,255
  802c34:	1080201c 	xori	r2,r2,128
  802c38:	10bfe004 	addi	r2,r2,-128
  802c3c:	1000051e 	bne	r2,zero,802c54 <tick+0x2280>
  802c40:	d0a74243 	ldbu	r2,-25335(gp)
  802c44:	10803fcc 	andi	r2,r2,255
  802c48:	1080201c 	xori	r2,r2,128
  802c4c:	10bfe004 	addi	r2,r2,-128
  802c50:	10000226 	beq	r2,zero,802c5c <tick+0x2288>
  802c54:	00800044 	movi	r2,1
  802c58:	00000106 	br	802c60 <tick+0x228c>
  802c5c:	0005883a 	mov	r2,zero
  802c60:	d0a75585 	stb	r2,-25258(gp)
      g124_e1_fix =(g87||g96||g104||g112||g6||g23||g48||g72||g38||g124_e1_fix_fix);
  802c64:	d0a73f83 	ldbu	r2,-25346(gp)
  802c68:	10803fcc 	andi	r2,r2,255
  802c6c:	1080201c 	xori	r2,r2,128
  802c70:	10bfe004 	addi	r2,r2,-128
  802c74:	10002d1e 	bne	r2,zero,802d2c <tick+0x2358>
  802c78:	d0a76703 	ldbu	r2,-25188(gp)
  802c7c:	10803fcc 	andi	r2,r2,255
  802c80:	1080201c 	xori	r2,r2,128
  802c84:	10bfe004 	addi	r2,r2,-128
  802c88:	1000281e 	bne	r2,zero,802d2c <tick+0x2358>
  802c8c:	d0a769c3 	ldbu	r2,-25177(gp)
  802c90:	10803fcc 	andi	r2,r2,255
  802c94:	1080201c 	xori	r2,r2,128
  802c98:	10bfe004 	addi	r2,r2,-128
  802c9c:	1000231e 	bne	r2,zero,802d2c <tick+0x2358>
  802ca0:	d0a738c3 	ldbu	r2,-25373(gp)
  802ca4:	10803fcc 	andi	r2,r2,255
  802ca8:	1080201c 	xori	r2,r2,128
  802cac:	10bfe004 	addi	r2,r2,-128
  802cb0:	10001e1e 	bne	r2,zero,802d2c <tick+0x2358>
  802cb4:	d0a76cc3 	ldbu	r2,-25165(gp)
  802cb8:	10803fcc 	andi	r2,r2,255
  802cbc:	1080201c 	xori	r2,r2,128
  802cc0:	10bfe004 	addi	r2,r2,-128
  802cc4:	1000191e 	bne	r2,zero,802d2c <tick+0x2358>
  802cc8:	d0a75303 	ldbu	r2,-25268(gp)
  802ccc:	10803fcc 	andi	r2,r2,255
  802cd0:	1080201c 	xori	r2,r2,128
  802cd4:	10bfe004 	addi	r2,r2,-128
  802cd8:	1000141e 	bne	r2,zero,802d2c <tick+0x2358>
  802cdc:	d0a74ac3 	ldbu	r2,-25301(gp)
  802ce0:	10803fcc 	andi	r2,r2,255
  802ce4:	1080201c 	xori	r2,r2,128
  802ce8:	10bfe004 	addi	r2,r2,-128
  802cec:	10000f1e 	bne	r2,zero,802d2c <tick+0x2358>
  802cf0:	d0a76d03 	ldbu	r2,-25164(gp)
  802cf4:	10803fcc 	andi	r2,r2,255
  802cf8:	1080201c 	xori	r2,r2,128
  802cfc:	10bfe004 	addi	r2,r2,-128
  802d00:	10000a1e 	bne	r2,zero,802d2c <tick+0x2358>
  802d04:	d0a74b83 	ldbu	r2,-25298(gp)
  802d08:	10803fcc 	andi	r2,r2,255
  802d0c:	1080201c 	xori	r2,r2,128
  802d10:	10bfe004 	addi	r2,r2,-128
  802d14:	1000051e 	bne	r2,zero,802d2c <tick+0x2358>
  802d18:	d0a75583 	ldbu	r2,-25258(gp)
  802d1c:	10803fcc 	andi	r2,r2,255
  802d20:	1080201c 	xori	r2,r2,128
  802d24:	10bfe004 	addi	r2,r2,-128
  802d28:	10000226 	beq	r2,zero,802d34 <tick+0x2360>
  802d2c:	00800044 	movi	r2,1
  802d30:	00000106 	br	802d38 <tick+0x2364>
  802d34:	0005883a 	mov	r2,zero
  802d38:	d0a77445 	stb	r2,-25135(gp)
      g124_e1 =(!((g4||g12||g21||g30||g46||g54||g70||g78||g118||g124_e1_fix)));
  802d3c:	d0a73683 	ldbu	r2,-25382(gp)
  802d40:	10803fcc 	andi	r2,r2,255
  802d44:	1080201c 	xori	r2,r2,128
  802d48:	10bfe004 	addi	r2,r2,-128
  802d4c:	10002f1e 	bne	r2,zero,802e0c <tick+0x2438>
  802d50:	d0a74443 	ldbu	r2,-25327(gp)
  802d54:	10803fcc 	andi	r2,r2,255
  802d58:	1080201c 	xori	r2,r2,128
  802d5c:	10bfe004 	addi	r2,r2,-128
  802d60:	10002a1e 	bne	r2,zero,802e0c <tick+0x2438>
  802d64:	d0a74e03 	ldbu	r2,-25288(gp)
  802d68:	10803fcc 	andi	r2,r2,255
  802d6c:	1080201c 	xori	r2,r2,128
  802d70:	10bfe004 	addi	r2,r2,-128
  802d74:	1000251e 	bne	r2,zero,802e0c <tick+0x2438>
  802d78:	d0a76f43 	ldbu	r2,-25155(gp)
  802d7c:	10803fcc 	andi	r2,r2,255
  802d80:	1080201c 	xori	r2,r2,128
  802d84:	10bfe004 	addi	r2,r2,-128
  802d88:	1000201e 	bne	r2,zero,802e0c <tick+0x2438>
  802d8c:	d0a76483 	ldbu	r2,-25198(gp)
  802d90:	10803fcc 	andi	r2,r2,255
  802d94:	1080201c 	xori	r2,r2,128
  802d98:	10bfe004 	addi	r2,r2,-128
  802d9c:	10001b1e 	bne	r2,zero,802e0c <tick+0x2438>
  802da0:	d0a75283 	ldbu	r2,-25270(gp)
  802da4:	10803fcc 	andi	r2,r2,255
  802da8:	1080201c 	xori	r2,r2,128
  802dac:	10bfe004 	addi	r2,r2,-128
  802db0:	1000161e 	bne	r2,zero,802e0c <tick+0x2438>
  802db4:	d0a76c03 	ldbu	r2,-25168(gp)
  802db8:	10803fcc 	andi	r2,r2,255
  802dbc:	1080201c 	xori	r2,r2,128
  802dc0:	10bfe004 	addi	r2,r2,-128
  802dc4:	1000111e 	bne	r2,zero,802e0c <tick+0x2438>
  802dc8:	d0a75783 	ldbu	r2,-25250(gp)
  802dcc:	10803fcc 	andi	r2,r2,255
  802dd0:	1080201c 	xori	r2,r2,128
  802dd4:	10bfe004 	addi	r2,r2,-128
  802dd8:	10000c1e 	bne	r2,zero,802e0c <tick+0x2438>
  802ddc:	d0a74943 	ldbu	r2,-25307(gp)
  802de0:	10803fcc 	andi	r2,r2,255
  802de4:	1080201c 	xori	r2,r2,128
  802de8:	10bfe004 	addi	r2,r2,-128
  802dec:	1000071e 	bne	r2,zero,802e0c <tick+0x2438>
  802df0:	d0a77443 	ldbu	r2,-25135(gp)
  802df4:	10803fcc 	andi	r2,r2,255
  802df8:	1080201c 	xori	r2,r2,128
  802dfc:	10bfe004 	addi	r2,r2,-128
  802e00:	1000021e 	bne	r2,zero,802e0c <tick+0x2438>
  802e04:	00800044 	movi	r2,1
  802e08:	00000106 	br	802e10 <tick+0x243c>
  802e0c:	0005883a 	mov	r2,zero
  802e10:	d0a76405 	stb	r2,-25200(gp)
      g128_e2 =(!(g127));
  802e14:	d0a73b43 	ldbu	r2,-25363(gp)
  802e18:	10803fcc 	andi	r2,r2,255
  802e1c:	1080201c 	xori	r2,r2,128
  802e20:	10bfe004 	addi	r2,r2,-128
  802e24:	1005003a 	cmpeq	r2,r2,zero
  802e28:	d0a74785 	stb	r2,-25314(gp)
      g132_e3 =(!(g131));
  802e2c:	d0a756c3 	ldbu	r2,-25253(gp)
  802e30:	10803fcc 	andi	r2,r2,255
  802e34:	1080201c 	xori	r2,r2,128
  802e38:	10bfe004 	addi	r2,r2,-128
  802e3c:	1005003a 	cmpeq	r2,r2,zero
  802e40:	d0a76645 	stb	r2,-25191(gp)
   }
   PRE_g3 = g3;
  802e44:	d0a739c3 	ldbu	r2,-25369(gp)
  802e48:	d0a73d05 	stb	r2,-25356(gp)
   PRE_g5 = g5;
  802e4c:	d0a74ec3 	ldbu	r2,-25285(gp)
  802e50:	d0a776c5 	stb	r2,-25125(gp)
   PRE_g11 = g11;
  802e54:	d0a77243 	ldbu	r2,-25143(gp)
  802e58:	d0a75d85 	stb	r2,-25226(gp)
   PRE_g14 = g14;
  802e5c:	d0a75443 	ldbu	r2,-25263(gp)
  802e60:	d0a76385 	stb	r2,-25202(gp)
   PRE_g20 = g20;
  802e64:	d0a75ec3 	ldbu	r2,-25221(gp)
  802e68:	d0a74105 	stb	r2,-25340(gp)
   PRE_g22 = g22;
  802e6c:	d0a772c3 	ldbu	r2,-25141(gp)
  802e70:	d0a759c5 	stb	r2,-25241(gp)
   PRE_g29 = g29;
  802e74:	d0a778c3 	ldbu	r2,-25117(gp)
  802e78:	d0a73d85 	stb	r2,-25354(gp)
   PRE_g32 = g32;
  802e7c:	d0a774c3 	ldbu	r2,-25133(gp)
  802e80:	d0a73f45 	stb	r2,-25347(gp)
   PRE_g34 = g34;
  802e84:	d0a74e83 	ldbu	r2,-25286(gp)
  802e88:	d0a74645 	stb	r2,-25319(gp)
   PRE_g37 = g37;
  802e8c:	d0a74743 	ldbu	r2,-25315(gp)
  802e90:	d0a77dc5 	stb	r2,-25097(gp)
   PRE_g45 = g45;
  802e94:	d0a77543 	ldbu	r2,-25131(gp)
  802e98:	d0a77645 	stb	r2,-25127(gp)
   PRE_g47 = g47;
  802e9c:	d0a73a43 	ldbu	r2,-25367(gp)
  802ea0:	d0a760c5 	stb	r2,-25213(gp)
   PRE_g53 = g53;
  802ea4:	d0a76b03 	ldbu	r2,-25172(gp)
  802ea8:	d0a74a45 	stb	r2,-25303(gp)
   PRE_g56 = g56;
  802eac:	d0a75643 	ldbu	r2,-25255(gp)
  802eb0:	d0a73f05 	stb	r2,-25348(gp)
   PRE_g60 = g60;
  802eb4:	d0a75f43 	ldbu	r2,-25219(gp)
  802eb8:	d0a767c5 	stb	r2,-25185(gp)
   PRE_g69 = g69;
  802ebc:	d0a77cc3 	ldbu	r2,-25101(gp)
  802ec0:	d0a743c5 	stb	r2,-25329(gp)
   PRE_g71 = g71;
  802ec4:	d0a74283 	ldbu	r2,-25334(gp)
  802ec8:	d0a75405 	stb	r2,-25264(gp)
   PRE_g77 = g77;
  802ecc:	d0a77483 	ldbu	r2,-25134(gp)
  802ed0:	d0a74605 	stb	r2,-25320(gp)
   PRE_g80 = g80;
  802ed4:	d0a75103 	ldbu	r2,-25276(gp)
  802ed8:	d0a75145 	stb	r2,-25275(gp)
   PRE_g86 = g86;
  802edc:	d0a76183 	ldbu	r2,-25210(gp)
  802ee0:	d0a76a85 	stb	r2,-25174(gp)
   PRE_g88 = g88;
  802ee4:	d0a77503 	ldbu	r2,-25132(gp)
  802ee8:	d0a76285 	stb	r2,-25206(gp)
   PRE_g95 = g95;
  802eec:	d0a76683 	ldbu	r2,-25190(gp)
  802ef0:	d0a73645 	stb	r2,-25383(gp)
   PRE_g97 = g97;
  802ef4:	d0a74483 	ldbu	r2,-25326(gp)
  802ef8:	d0a76145 	stb	r2,-25211(gp)
   PRE_g103 = g103;
  802efc:	d0a73a03 	ldbu	r2,-25368(gp)
  802f00:	d0a76785 	stb	r2,-25186(gp)
   PRE_g105 = g105;
  802f04:	d0a74bc3 	ldbu	r2,-25297(gp)
  802f08:	d0a77885 	stb	r2,-25118(gp)
   PRE_g111 = g111;
  802f0c:	d0a73743 	ldbu	r2,-25379(gp)
  802f10:	d0a74d85 	stb	r2,-25290(gp)
   PRE_g113 = g113;
  802f14:	d0a76883 	ldbu	r2,-25182(gp)
  802f18:	d0a76245 	stb	r2,-25207(gp)
   PRE_g117 = g117;
  802f1c:	d0a74cc3 	ldbu	r2,-25293(gp)
  802f20:	d0a77c45 	stb	r2,-25103(gp)
   PRE_g121 = g121;
  802f24:	d0a77703 	ldbu	r2,-25124(gp)
  802f28:	d0a73e85 	stb	r2,-25350(gp)
   PRE_g126 = g126;
  802f2c:	d0a742c3 	ldbu	r2,-25333(gp)
  802f30:	d0a75a45 	stb	r2,-25239(gp)
   PRE_g130 = g130;
  802f34:	d0a77683 	ldbu	r2,-25126(gp)
  802f38:	d0a76a05 	stb	r2,-25176(gp)
   _PRE_GO = _GO;
  802f3c:	d0a75c03 	ldbu	r2,-25232(gp)
  802f40:	10803fcc 	andi	r2,r2,255
  802f44:	1080201c 	xori	r2,r2,128
  802f48:	10bfe004 	addi	r2,r2,-128
  802f4c:	d0a73c15 	stw	r2,-25360(gp)
   return;
  802f50:	0001883a 	nop
}
  802f54:	e037883a 	mov	sp,fp
  802f58:	df000017 	ldw	fp,0(sp)
  802f5c:	dec00104 	addi	sp,sp,4
  802f60:	f800283a 	ret

00802f64 <_puts_r>:
  802f64:	defff604 	addi	sp,sp,-40
  802f68:	dc000715 	stw	r16,28(sp)
  802f6c:	2021883a 	mov	r16,r4
  802f70:	2809883a 	mov	r4,r5
  802f74:	dc400815 	stw	r17,32(sp)
  802f78:	dfc00915 	stw	ra,36(sp)
  802f7c:	2823883a 	mov	r17,r5
  802f80:	08030380 	call	803038 <strlen>
  802f84:	10c00044 	addi	r3,r2,1
  802f88:	d8800115 	stw	r2,4(sp)
  802f8c:	00802074 	movhi	r2,129
  802f90:	10a7b604 	addi	r2,r2,-24872
  802f94:	d8800215 	stw	r2,8(sp)
  802f98:	00800044 	movi	r2,1
  802f9c:	d8800315 	stw	r2,12(sp)
  802fa0:	00800084 	movi	r2,2
  802fa4:	dc400015 	stw	r17,0(sp)
  802fa8:	d8c00615 	stw	r3,24(sp)
  802fac:	dec00415 	stw	sp,16(sp)
  802fb0:	d8800515 	stw	r2,20(sp)
  802fb4:	80000226 	beq	r16,zero,802fc0 <_puts_r+0x5c>
  802fb8:	80800e17 	ldw	r2,56(r16)
  802fbc:	10001426 	beq	r2,zero,803010 <_puts_r+0xac>
  802fc0:	81400217 	ldw	r5,8(r16)
  802fc4:	2880030b 	ldhu	r2,12(r5)
  802fc8:	10c8000c 	andi	r3,r2,8192
  802fcc:	1800061e 	bne	r3,zero,802fe8 <_puts_r+0x84>
  802fd0:	29001917 	ldw	r4,100(r5)
  802fd4:	00f7ffc4 	movi	r3,-8193
  802fd8:	10880014 	ori	r2,r2,8192
  802fdc:	20c6703a 	and	r3,r4,r3
  802fe0:	2880030d 	sth	r2,12(r5)
  802fe4:	28c01915 	stw	r3,100(r5)
  802fe8:	d9800404 	addi	r6,sp,16
  802fec:	8009883a 	mov	r4,r16
  802ff0:	08034700 	call	803470 <__sfvwrite_r>
  802ff4:	1000091e 	bne	r2,zero,80301c <_puts_r+0xb8>
  802ff8:	00800284 	movi	r2,10
  802ffc:	dfc00917 	ldw	ra,36(sp)
  803000:	dc400817 	ldw	r17,32(sp)
  803004:	dc000717 	ldw	r16,28(sp)
  803008:	dec00a04 	addi	sp,sp,40
  80300c:	f800283a 	ret
  803010:	8009883a 	mov	r4,r16
  803014:	08034200 	call	803420 <__sinit>
  803018:	003fe906 	br	802fc0 <__alt_mem_onchip_mem+0xff782fc0>
  80301c:	00bfffc4 	movi	r2,-1
  803020:	003ff606 	br	802ffc <__alt_mem_onchip_mem+0xff782ffc>

00803024 <puts>:
  803024:	00802074 	movhi	r2,129
  803028:	10af7004 	addi	r2,r2,-16960
  80302c:	200b883a 	mov	r5,r4
  803030:	11000017 	ldw	r4,0(r2)
  803034:	0802f641 	jmpi	802f64 <_puts_r>

00803038 <strlen>:
  803038:	208000cc 	andi	r2,r4,3
  80303c:	10002026 	beq	r2,zero,8030c0 <strlen+0x88>
  803040:	20800007 	ldb	r2,0(r4)
  803044:	10002026 	beq	r2,zero,8030c8 <strlen+0x90>
  803048:	2005883a 	mov	r2,r4
  80304c:	00000206 	br	803058 <strlen+0x20>
  803050:	10c00007 	ldb	r3,0(r2)
  803054:	18001826 	beq	r3,zero,8030b8 <strlen+0x80>
  803058:	10800044 	addi	r2,r2,1
  80305c:	10c000cc 	andi	r3,r2,3
  803060:	183ffb1e 	bne	r3,zero,803050 <__alt_mem_onchip_mem+0xff783050>
  803064:	10c00017 	ldw	r3,0(r2)
  803068:	01ffbff4 	movhi	r7,65279
  80306c:	39ffbfc4 	addi	r7,r7,-257
  803070:	00ca303a 	nor	r5,zero,r3
  803074:	01a02074 	movhi	r6,32897
  803078:	19c7883a 	add	r3,r3,r7
  80307c:	31a02004 	addi	r6,r6,-32640
  803080:	1946703a 	and	r3,r3,r5
  803084:	1986703a 	and	r3,r3,r6
  803088:	1800091e 	bne	r3,zero,8030b0 <strlen+0x78>
  80308c:	10800104 	addi	r2,r2,4
  803090:	10c00017 	ldw	r3,0(r2)
  803094:	19cb883a 	add	r5,r3,r7
  803098:	00c6303a 	nor	r3,zero,r3
  80309c:	28c6703a 	and	r3,r5,r3
  8030a0:	1986703a 	and	r3,r3,r6
  8030a4:	183ff926 	beq	r3,zero,80308c <__alt_mem_onchip_mem+0xff78308c>
  8030a8:	00000106 	br	8030b0 <strlen+0x78>
  8030ac:	10800044 	addi	r2,r2,1
  8030b0:	10c00007 	ldb	r3,0(r2)
  8030b4:	183ffd1e 	bne	r3,zero,8030ac <__alt_mem_onchip_mem+0xff7830ac>
  8030b8:	1105c83a 	sub	r2,r2,r4
  8030bc:	f800283a 	ret
  8030c0:	2005883a 	mov	r2,r4
  8030c4:	003fe706 	br	803064 <__alt_mem_onchip_mem+0xff783064>
  8030c8:	0005883a 	mov	r2,zero
  8030cc:	f800283a 	ret

008030d0 <__fp_unlock>:
  8030d0:	0005883a 	mov	r2,zero
  8030d4:	f800283a 	ret

008030d8 <_cleanup_r>:
  8030d8:	01402034 	movhi	r5,128
  8030dc:	29541b04 	addi	r5,r5,20588
  8030e0:	08039f01 	jmpi	8039f0 <_fwalk_reent>

008030e4 <__sinit.part.1>:
  8030e4:	defff704 	addi	sp,sp,-36
  8030e8:	00c02034 	movhi	r3,128
  8030ec:	dfc00815 	stw	ra,32(sp)
  8030f0:	ddc00715 	stw	r23,28(sp)
  8030f4:	dd800615 	stw	r22,24(sp)
  8030f8:	dd400515 	stw	r21,20(sp)
  8030fc:	dd000415 	stw	r20,16(sp)
  803100:	dcc00315 	stw	r19,12(sp)
  803104:	dc800215 	stw	r18,8(sp)
  803108:	dc400115 	stw	r17,4(sp)
  80310c:	dc000015 	stw	r16,0(sp)
  803110:	18cc3604 	addi	r3,r3,12504
  803114:	24000117 	ldw	r16,4(r4)
  803118:	20c00f15 	stw	r3,60(r4)
  80311c:	2080bb04 	addi	r2,r4,748
  803120:	00c000c4 	movi	r3,3
  803124:	20c0b915 	stw	r3,740(r4)
  803128:	2080ba15 	stw	r2,744(r4)
  80312c:	2000b815 	stw	zero,736(r4)
  803130:	05c00204 	movi	r23,8
  803134:	00800104 	movi	r2,4
  803138:	2025883a 	mov	r18,r4
  80313c:	b80d883a 	mov	r6,r23
  803140:	81001704 	addi	r4,r16,92
  803144:	000b883a 	mov	r5,zero
  803148:	80000015 	stw	zero,0(r16)
  80314c:	80000115 	stw	zero,4(r16)
  803150:	80000215 	stw	zero,8(r16)
  803154:	8080030d 	sth	r2,12(r16)
  803158:	80001915 	stw	zero,100(r16)
  80315c:	8000038d 	sth	zero,14(r16)
  803160:	80000415 	stw	zero,16(r16)
  803164:	80000515 	stw	zero,20(r16)
  803168:	80000615 	stw	zero,24(r16)
  80316c:	08046480 	call	804648 <memset>
  803170:	05802034 	movhi	r22,128
  803174:	94400217 	ldw	r17,8(r18)
  803178:	05402034 	movhi	r21,128
  80317c:	05002034 	movhi	r20,128
  803180:	04c02034 	movhi	r19,128
  803184:	b5934a04 	addi	r22,r22,19752
  803188:	ad536104 	addi	r21,r21,19844
  80318c:	a5138004 	addi	r20,r20,19968
  803190:	9cd39704 	addi	r19,r19,20060
  803194:	85800815 	stw	r22,32(r16)
  803198:	85400915 	stw	r21,36(r16)
  80319c:	85000a15 	stw	r20,40(r16)
  8031a0:	84c00b15 	stw	r19,44(r16)
  8031a4:	84000715 	stw	r16,28(r16)
  8031a8:	00800284 	movi	r2,10
  8031ac:	8880030d 	sth	r2,12(r17)
  8031b0:	00800044 	movi	r2,1
  8031b4:	b80d883a 	mov	r6,r23
  8031b8:	89001704 	addi	r4,r17,92
  8031bc:	000b883a 	mov	r5,zero
  8031c0:	88000015 	stw	zero,0(r17)
  8031c4:	88000115 	stw	zero,4(r17)
  8031c8:	88000215 	stw	zero,8(r17)
  8031cc:	88001915 	stw	zero,100(r17)
  8031d0:	8880038d 	sth	r2,14(r17)
  8031d4:	88000415 	stw	zero,16(r17)
  8031d8:	88000515 	stw	zero,20(r17)
  8031dc:	88000615 	stw	zero,24(r17)
  8031e0:	08046480 	call	804648 <memset>
  8031e4:	94000317 	ldw	r16,12(r18)
  8031e8:	00800484 	movi	r2,18
  8031ec:	8c400715 	stw	r17,28(r17)
  8031f0:	8d800815 	stw	r22,32(r17)
  8031f4:	8d400915 	stw	r21,36(r17)
  8031f8:	8d000a15 	stw	r20,40(r17)
  8031fc:	8cc00b15 	stw	r19,44(r17)
  803200:	8080030d 	sth	r2,12(r16)
  803204:	00800084 	movi	r2,2
  803208:	80000015 	stw	zero,0(r16)
  80320c:	80000115 	stw	zero,4(r16)
  803210:	80000215 	stw	zero,8(r16)
  803214:	80001915 	stw	zero,100(r16)
  803218:	8080038d 	sth	r2,14(r16)
  80321c:	80000415 	stw	zero,16(r16)
  803220:	80000515 	stw	zero,20(r16)
  803224:	80000615 	stw	zero,24(r16)
  803228:	b80d883a 	mov	r6,r23
  80322c:	000b883a 	mov	r5,zero
  803230:	81001704 	addi	r4,r16,92
  803234:	08046480 	call	804648 <memset>
  803238:	00800044 	movi	r2,1
  80323c:	84000715 	stw	r16,28(r16)
  803240:	85800815 	stw	r22,32(r16)
  803244:	85400915 	stw	r21,36(r16)
  803248:	85000a15 	stw	r20,40(r16)
  80324c:	84c00b15 	stw	r19,44(r16)
  803250:	90800e15 	stw	r2,56(r18)
  803254:	dfc00817 	ldw	ra,32(sp)
  803258:	ddc00717 	ldw	r23,28(sp)
  80325c:	dd800617 	ldw	r22,24(sp)
  803260:	dd400517 	ldw	r21,20(sp)
  803264:	dd000417 	ldw	r20,16(sp)
  803268:	dcc00317 	ldw	r19,12(sp)
  80326c:	dc800217 	ldw	r18,8(sp)
  803270:	dc400117 	ldw	r17,4(sp)
  803274:	dc000017 	ldw	r16,0(sp)
  803278:	dec00904 	addi	sp,sp,36
  80327c:	f800283a 	ret

00803280 <__fp_lock>:
  803280:	0005883a 	mov	r2,zero
  803284:	f800283a 	ret

00803288 <__sfmoreglue>:
  803288:	defffc04 	addi	sp,sp,-16
  80328c:	dc400115 	stw	r17,4(sp)
  803290:	2c7fffc4 	addi	r17,r5,-1
  803294:	8c401a24 	muli	r17,r17,104
  803298:	dc800215 	stw	r18,8(sp)
  80329c:	2825883a 	mov	r18,r5
  8032a0:	89401d04 	addi	r5,r17,116
  8032a4:	dc000015 	stw	r16,0(sp)
  8032a8:	dfc00315 	stw	ra,12(sp)
  8032ac:	0803ab40 	call	803ab4 <_malloc_r>
  8032b0:	1021883a 	mov	r16,r2
  8032b4:	10000726 	beq	r2,zero,8032d4 <__sfmoreglue+0x4c>
  8032b8:	11000304 	addi	r4,r2,12
  8032bc:	10000015 	stw	zero,0(r2)
  8032c0:	14800115 	stw	r18,4(r2)
  8032c4:	11000215 	stw	r4,8(r2)
  8032c8:	89801a04 	addi	r6,r17,104
  8032cc:	000b883a 	mov	r5,zero
  8032d0:	08046480 	call	804648 <memset>
  8032d4:	8005883a 	mov	r2,r16
  8032d8:	dfc00317 	ldw	ra,12(sp)
  8032dc:	dc800217 	ldw	r18,8(sp)
  8032e0:	dc400117 	ldw	r17,4(sp)
  8032e4:	dc000017 	ldw	r16,0(sp)
  8032e8:	dec00404 	addi	sp,sp,16
  8032ec:	f800283a 	ret

008032f0 <__sfp>:
  8032f0:	defffb04 	addi	sp,sp,-20
  8032f4:	dc000015 	stw	r16,0(sp)
  8032f8:	04002074 	movhi	r16,129
  8032fc:	842f6f04 	addi	r16,r16,-16964
  803300:	dcc00315 	stw	r19,12(sp)
  803304:	2027883a 	mov	r19,r4
  803308:	81000017 	ldw	r4,0(r16)
  80330c:	dfc00415 	stw	ra,16(sp)
  803310:	dc800215 	stw	r18,8(sp)
  803314:	20800e17 	ldw	r2,56(r4)
  803318:	dc400115 	stw	r17,4(sp)
  80331c:	1000021e 	bne	r2,zero,803328 <__sfp+0x38>
  803320:	08030e40 	call	8030e4 <__sinit.part.1>
  803324:	81000017 	ldw	r4,0(r16)
  803328:	2480b804 	addi	r18,r4,736
  80332c:	047fffc4 	movi	r17,-1
  803330:	91000117 	ldw	r4,4(r18)
  803334:	94000217 	ldw	r16,8(r18)
  803338:	213fffc4 	addi	r4,r4,-1
  80333c:	20000a16 	blt	r4,zero,803368 <__sfp+0x78>
  803340:	8080030f 	ldh	r2,12(r16)
  803344:	10000c26 	beq	r2,zero,803378 <__sfp+0x88>
  803348:	80c01d04 	addi	r3,r16,116
  80334c:	00000206 	br	803358 <__sfp+0x68>
  803350:	18bfe60f 	ldh	r2,-104(r3)
  803354:	10000826 	beq	r2,zero,803378 <__sfp+0x88>
  803358:	213fffc4 	addi	r4,r4,-1
  80335c:	1c3ffd04 	addi	r16,r3,-12
  803360:	18c01a04 	addi	r3,r3,104
  803364:	247ffa1e 	bne	r4,r17,803350 <__alt_mem_onchip_mem+0xff783350>
  803368:	90800017 	ldw	r2,0(r18)
  80336c:	10001d26 	beq	r2,zero,8033e4 <__sfp+0xf4>
  803370:	1025883a 	mov	r18,r2
  803374:	003fee06 	br	803330 <__alt_mem_onchip_mem+0xff783330>
  803378:	00bfffc4 	movi	r2,-1
  80337c:	8080038d 	sth	r2,14(r16)
  803380:	00800044 	movi	r2,1
  803384:	8080030d 	sth	r2,12(r16)
  803388:	80001915 	stw	zero,100(r16)
  80338c:	80000015 	stw	zero,0(r16)
  803390:	80000215 	stw	zero,8(r16)
  803394:	80000115 	stw	zero,4(r16)
  803398:	80000415 	stw	zero,16(r16)
  80339c:	80000515 	stw	zero,20(r16)
  8033a0:	80000615 	stw	zero,24(r16)
  8033a4:	01800204 	movi	r6,8
  8033a8:	000b883a 	mov	r5,zero
  8033ac:	81001704 	addi	r4,r16,92
  8033b0:	08046480 	call	804648 <memset>
  8033b4:	8005883a 	mov	r2,r16
  8033b8:	80000c15 	stw	zero,48(r16)
  8033bc:	80000d15 	stw	zero,52(r16)
  8033c0:	80001115 	stw	zero,68(r16)
  8033c4:	80001215 	stw	zero,72(r16)
  8033c8:	dfc00417 	ldw	ra,16(sp)
  8033cc:	dcc00317 	ldw	r19,12(sp)
  8033d0:	dc800217 	ldw	r18,8(sp)
  8033d4:	dc400117 	ldw	r17,4(sp)
  8033d8:	dc000017 	ldw	r16,0(sp)
  8033dc:	dec00504 	addi	sp,sp,20
  8033e0:	f800283a 	ret
  8033e4:	01400104 	movi	r5,4
  8033e8:	9809883a 	mov	r4,r19
  8033ec:	08032880 	call	803288 <__sfmoreglue>
  8033f0:	90800015 	stw	r2,0(r18)
  8033f4:	103fde1e 	bne	r2,zero,803370 <__alt_mem_onchip_mem+0xff783370>
  8033f8:	00800304 	movi	r2,12
  8033fc:	98800015 	stw	r2,0(r19)
  803400:	0005883a 	mov	r2,zero
  803404:	003ff006 	br	8033c8 <__alt_mem_onchip_mem+0xff7833c8>

00803408 <_cleanup>:
  803408:	00802074 	movhi	r2,129
  80340c:	10af6f04 	addi	r2,r2,-16964
  803410:	11000017 	ldw	r4,0(r2)
  803414:	01402034 	movhi	r5,128
  803418:	29541b04 	addi	r5,r5,20588
  80341c:	08039f01 	jmpi	8039f0 <_fwalk_reent>

00803420 <__sinit>:
  803420:	20800e17 	ldw	r2,56(r4)
  803424:	10000126 	beq	r2,zero,80342c <__sinit+0xc>
  803428:	f800283a 	ret
  80342c:	08030e41 	jmpi	8030e4 <__sinit.part.1>

00803430 <__sfp_lock_acquire>:
  803430:	f800283a 	ret

00803434 <__sfp_lock_release>:
  803434:	f800283a 	ret

00803438 <__sinit_lock_acquire>:
  803438:	f800283a 	ret

0080343c <__sinit_lock_release>:
  80343c:	f800283a 	ret

00803440 <__fp_lock_all>:
  803440:	00802074 	movhi	r2,129
  803444:	10af7004 	addi	r2,r2,-16960
  803448:	11000017 	ldw	r4,0(r2)
  80344c:	01402034 	movhi	r5,128
  803450:	294ca004 	addi	r5,r5,12928
  803454:	080392c1 	jmpi	80392c <_fwalk>

00803458 <__fp_unlock_all>:
  803458:	00802074 	movhi	r2,129
  80345c:	10af7004 	addi	r2,r2,-16960
  803460:	11000017 	ldw	r4,0(r2)
  803464:	01402034 	movhi	r5,128
  803468:	294c3404 	addi	r5,r5,12496
  80346c:	080392c1 	jmpi	80392c <_fwalk>

00803470 <__sfvwrite_r>:
  803470:	30800217 	ldw	r2,8(r6)
  803474:	10006726 	beq	r2,zero,803614 <__sfvwrite_r+0x1a4>
  803478:	28c0030b 	ldhu	r3,12(r5)
  80347c:	defff404 	addi	sp,sp,-48
  803480:	dd400715 	stw	r21,28(sp)
  803484:	dd000615 	stw	r20,24(sp)
  803488:	dc000215 	stw	r16,8(sp)
  80348c:	dfc00b15 	stw	ra,44(sp)
  803490:	df000a15 	stw	fp,40(sp)
  803494:	ddc00915 	stw	r23,36(sp)
  803498:	dd800815 	stw	r22,32(sp)
  80349c:	dcc00515 	stw	r19,20(sp)
  8034a0:	dc800415 	stw	r18,16(sp)
  8034a4:	dc400315 	stw	r17,12(sp)
  8034a8:	1880020c 	andi	r2,r3,8
  8034ac:	2821883a 	mov	r16,r5
  8034b0:	202b883a 	mov	r21,r4
  8034b4:	3029883a 	mov	r20,r6
  8034b8:	10002726 	beq	r2,zero,803558 <__sfvwrite_r+0xe8>
  8034bc:	28800417 	ldw	r2,16(r5)
  8034c0:	10002526 	beq	r2,zero,803558 <__sfvwrite_r+0xe8>
  8034c4:	1880008c 	andi	r2,r3,2
  8034c8:	a4400017 	ldw	r17,0(r20)
  8034cc:	10002a26 	beq	r2,zero,803578 <__sfvwrite_r+0x108>
  8034d0:	05a00034 	movhi	r22,32768
  8034d4:	0027883a 	mov	r19,zero
  8034d8:	0025883a 	mov	r18,zero
  8034dc:	b5bf0004 	addi	r22,r22,-1024
  8034e0:	980d883a 	mov	r6,r19
  8034e4:	a809883a 	mov	r4,r21
  8034e8:	90004626 	beq	r18,zero,803604 <__sfvwrite_r+0x194>
  8034ec:	900f883a 	mov	r7,r18
  8034f0:	b480022e 	bgeu	r22,r18,8034fc <__sfvwrite_r+0x8c>
  8034f4:	01e00034 	movhi	r7,32768
  8034f8:	39ff0004 	addi	r7,r7,-1024
  8034fc:	80800917 	ldw	r2,36(r16)
  803500:	81400717 	ldw	r5,28(r16)
  803504:	103ee83a 	callr	r2
  803508:	0080570e 	bge	zero,r2,803668 <__sfvwrite_r+0x1f8>
  80350c:	a0c00217 	ldw	r3,8(r20)
  803510:	98a7883a 	add	r19,r19,r2
  803514:	90a5c83a 	sub	r18,r18,r2
  803518:	1885c83a 	sub	r2,r3,r2
  80351c:	a0800215 	stw	r2,8(r20)
  803520:	103fef1e 	bne	r2,zero,8034e0 <__alt_mem_onchip_mem+0xff7834e0>
  803524:	0005883a 	mov	r2,zero
  803528:	dfc00b17 	ldw	ra,44(sp)
  80352c:	df000a17 	ldw	fp,40(sp)
  803530:	ddc00917 	ldw	r23,36(sp)
  803534:	dd800817 	ldw	r22,32(sp)
  803538:	dd400717 	ldw	r21,28(sp)
  80353c:	dd000617 	ldw	r20,24(sp)
  803540:	dcc00517 	ldw	r19,20(sp)
  803544:	dc800417 	ldw	r18,16(sp)
  803548:	dc400317 	ldw	r17,12(sp)
  80354c:	dc000217 	ldw	r16,8(sp)
  803550:	dec00c04 	addi	sp,sp,48
  803554:	f800283a 	ret
  803558:	800b883a 	mov	r5,r16
  80355c:	a809883a 	mov	r4,r21
  803560:	0804ec40 	call	804ec4 <__swsetup_r>
  803564:	1000eb1e 	bne	r2,zero,803914 <__sfvwrite_r+0x4a4>
  803568:	80c0030b 	ldhu	r3,12(r16)
  80356c:	a4400017 	ldw	r17,0(r20)
  803570:	1880008c 	andi	r2,r3,2
  803574:	103fd61e 	bne	r2,zero,8034d0 <__alt_mem_onchip_mem+0xff7834d0>
  803578:	1880004c 	andi	r2,r3,1
  80357c:	10003f1e 	bne	r2,zero,80367c <__sfvwrite_r+0x20c>
  803580:	0039883a 	mov	fp,zero
  803584:	0025883a 	mov	r18,zero
  803588:	90001a26 	beq	r18,zero,8035f4 <__sfvwrite_r+0x184>
  80358c:	1880800c 	andi	r2,r3,512
  803590:	84c00217 	ldw	r19,8(r16)
  803594:	10002126 	beq	r2,zero,80361c <__sfvwrite_r+0x1ac>
  803598:	982f883a 	mov	r23,r19
  80359c:	94c09336 	bltu	r18,r19,8037ec <__sfvwrite_r+0x37c>
  8035a0:	1881200c 	andi	r2,r3,1152
  8035a4:	10009e1e 	bne	r2,zero,803820 <__sfvwrite_r+0x3b0>
  8035a8:	81000017 	ldw	r4,0(r16)
  8035ac:	b80d883a 	mov	r6,r23
  8035b0:	e00b883a 	mov	r5,fp
  8035b4:	08044ec0 	call	8044ec <memmove>
  8035b8:	80c00217 	ldw	r3,8(r16)
  8035bc:	81000017 	ldw	r4,0(r16)
  8035c0:	9005883a 	mov	r2,r18
  8035c4:	1ce7c83a 	sub	r19,r3,r19
  8035c8:	25cf883a 	add	r7,r4,r23
  8035cc:	84c00215 	stw	r19,8(r16)
  8035d0:	81c00015 	stw	r7,0(r16)
  8035d4:	a0c00217 	ldw	r3,8(r20)
  8035d8:	e0b9883a 	add	fp,fp,r2
  8035dc:	90a5c83a 	sub	r18,r18,r2
  8035e0:	18a7c83a 	sub	r19,r3,r2
  8035e4:	a4c00215 	stw	r19,8(r20)
  8035e8:	983fce26 	beq	r19,zero,803524 <__alt_mem_onchip_mem+0xff783524>
  8035ec:	80c0030b 	ldhu	r3,12(r16)
  8035f0:	903fe61e 	bne	r18,zero,80358c <__alt_mem_onchip_mem+0xff78358c>
  8035f4:	8f000017 	ldw	fp,0(r17)
  8035f8:	8c800117 	ldw	r18,4(r17)
  8035fc:	8c400204 	addi	r17,r17,8
  803600:	003fe106 	br	803588 <__alt_mem_onchip_mem+0xff783588>
  803604:	8cc00017 	ldw	r19,0(r17)
  803608:	8c800117 	ldw	r18,4(r17)
  80360c:	8c400204 	addi	r17,r17,8
  803610:	003fb306 	br	8034e0 <__alt_mem_onchip_mem+0xff7834e0>
  803614:	0005883a 	mov	r2,zero
  803618:	f800283a 	ret
  80361c:	81000017 	ldw	r4,0(r16)
  803620:	80800417 	ldw	r2,16(r16)
  803624:	11005736 	bltu	r2,r4,803784 <__sfvwrite_r+0x314>
  803628:	85c00517 	ldw	r23,20(r16)
  80362c:	95c05536 	bltu	r18,r23,803784 <__sfvwrite_r+0x314>
  803630:	00a00034 	movhi	r2,32768
  803634:	10bfffc4 	addi	r2,r2,-1
  803638:	9009883a 	mov	r4,r18
  80363c:	1480012e 	bgeu	r2,r18,803644 <__sfvwrite_r+0x1d4>
  803640:	1009883a 	mov	r4,r2
  803644:	b80b883a 	mov	r5,r23
  803648:	0805b780 	call	805b78 <__divsi3>
  80364c:	15cf383a 	mul	r7,r2,r23
  803650:	81400717 	ldw	r5,28(r16)
  803654:	80800917 	ldw	r2,36(r16)
  803658:	e00d883a 	mov	r6,fp
  80365c:	a809883a 	mov	r4,r21
  803660:	103ee83a 	callr	r2
  803664:	00bfdb16 	blt	zero,r2,8035d4 <__alt_mem_onchip_mem+0xff7835d4>
  803668:	8080030b 	ldhu	r2,12(r16)
  80366c:	10801014 	ori	r2,r2,64
  803670:	8080030d 	sth	r2,12(r16)
  803674:	00bfffc4 	movi	r2,-1
  803678:	003fab06 	br	803528 <__alt_mem_onchip_mem+0xff783528>
  80367c:	0027883a 	mov	r19,zero
  803680:	0011883a 	mov	r8,zero
  803684:	0039883a 	mov	fp,zero
  803688:	0025883a 	mov	r18,zero
  80368c:	90001f26 	beq	r18,zero,80370c <__sfvwrite_r+0x29c>
  803690:	40005a26 	beq	r8,zero,8037fc <__sfvwrite_r+0x38c>
  803694:	982d883a 	mov	r22,r19
  803698:	94c0012e 	bgeu	r18,r19,8036a0 <__sfvwrite_r+0x230>
  80369c:	902d883a 	mov	r22,r18
  8036a0:	81000017 	ldw	r4,0(r16)
  8036a4:	80800417 	ldw	r2,16(r16)
  8036a8:	b02f883a 	mov	r23,r22
  8036ac:	81c00517 	ldw	r7,20(r16)
  8036b0:	1100032e 	bgeu	r2,r4,8036c0 <__sfvwrite_r+0x250>
  8036b4:	80c00217 	ldw	r3,8(r16)
  8036b8:	38c7883a 	add	r3,r7,r3
  8036bc:	1d801816 	blt	r3,r22,803720 <__sfvwrite_r+0x2b0>
  8036c0:	b1c03e16 	blt	r22,r7,8037bc <__sfvwrite_r+0x34c>
  8036c4:	80800917 	ldw	r2,36(r16)
  8036c8:	81400717 	ldw	r5,28(r16)
  8036cc:	e00d883a 	mov	r6,fp
  8036d0:	da000115 	stw	r8,4(sp)
  8036d4:	a809883a 	mov	r4,r21
  8036d8:	103ee83a 	callr	r2
  8036dc:	102f883a 	mov	r23,r2
  8036e0:	da000117 	ldw	r8,4(sp)
  8036e4:	00bfe00e 	bge	zero,r2,803668 <__alt_mem_onchip_mem+0xff783668>
  8036e8:	9de7c83a 	sub	r19,r19,r23
  8036ec:	98001f26 	beq	r19,zero,80376c <__sfvwrite_r+0x2fc>
  8036f0:	a0800217 	ldw	r2,8(r20)
  8036f4:	e5f9883a 	add	fp,fp,r23
  8036f8:	95e5c83a 	sub	r18,r18,r23
  8036fc:	15efc83a 	sub	r23,r2,r23
  803700:	a5c00215 	stw	r23,8(r20)
  803704:	b83f8726 	beq	r23,zero,803524 <__alt_mem_onchip_mem+0xff783524>
  803708:	903fe11e 	bne	r18,zero,803690 <__alt_mem_onchip_mem+0xff783690>
  80370c:	8f000017 	ldw	fp,0(r17)
  803710:	8c800117 	ldw	r18,4(r17)
  803714:	0011883a 	mov	r8,zero
  803718:	8c400204 	addi	r17,r17,8
  80371c:	003fdb06 	br	80368c <__alt_mem_onchip_mem+0xff78368c>
  803720:	180d883a 	mov	r6,r3
  803724:	e00b883a 	mov	r5,fp
  803728:	da000115 	stw	r8,4(sp)
  80372c:	d8c00015 	stw	r3,0(sp)
  803730:	08044ec0 	call	8044ec <memmove>
  803734:	d8c00017 	ldw	r3,0(sp)
  803738:	80800017 	ldw	r2,0(r16)
  80373c:	800b883a 	mov	r5,r16
  803740:	a809883a 	mov	r4,r21
  803744:	10c5883a 	add	r2,r2,r3
  803748:	80800015 	stw	r2,0(r16)
  80374c:	d8c00015 	stw	r3,0(sp)
  803750:	080538c0 	call	80538c <_fflush_r>
  803754:	d8c00017 	ldw	r3,0(sp)
  803758:	da000117 	ldw	r8,4(sp)
  80375c:	103fc21e 	bne	r2,zero,803668 <__alt_mem_onchip_mem+0xff783668>
  803760:	182f883a 	mov	r23,r3
  803764:	9de7c83a 	sub	r19,r19,r23
  803768:	983fe11e 	bne	r19,zero,8036f0 <__alt_mem_onchip_mem+0xff7836f0>
  80376c:	800b883a 	mov	r5,r16
  803770:	a809883a 	mov	r4,r21
  803774:	080538c0 	call	80538c <_fflush_r>
  803778:	103fbb1e 	bne	r2,zero,803668 <__alt_mem_onchip_mem+0xff783668>
  80377c:	0011883a 	mov	r8,zero
  803780:	003fdb06 	br	8036f0 <__alt_mem_onchip_mem+0xff7836f0>
  803784:	94c0012e 	bgeu	r18,r19,80378c <__sfvwrite_r+0x31c>
  803788:	9027883a 	mov	r19,r18
  80378c:	980d883a 	mov	r6,r19
  803790:	e00b883a 	mov	r5,fp
  803794:	08044ec0 	call	8044ec <memmove>
  803798:	80800217 	ldw	r2,8(r16)
  80379c:	80c00017 	ldw	r3,0(r16)
  8037a0:	14c5c83a 	sub	r2,r2,r19
  8037a4:	1cc7883a 	add	r3,r3,r19
  8037a8:	80800215 	stw	r2,8(r16)
  8037ac:	80c00015 	stw	r3,0(r16)
  8037b0:	10004326 	beq	r2,zero,8038c0 <__sfvwrite_r+0x450>
  8037b4:	9805883a 	mov	r2,r19
  8037b8:	003f8606 	br	8035d4 <__alt_mem_onchip_mem+0xff7835d4>
  8037bc:	b00d883a 	mov	r6,r22
  8037c0:	e00b883a 	mov	r5,fp
  8037c4:	da000115 	stw	r8,4(sp)
  8037c8:	08044ec0 	call	8044ec <memmove>
  8037cc:	80800217 	ldw	r2,8(r16)
  8037d0:	80c00017 	ldw	r3,0(r16)
  8037d4:	da000117 	ldw	r8,4(sp)
  8037d8:	1585c83a 	sub	r2,r2,r22
  8037dc:	1dad883a 	add	r22,r3,r22
  8037e0:	80800215 	stw	r2,8(r16)
  8037e4:	85800015 	stw	r22,0(r16)
  8037e8:	003fbf06 	br	8036e8 <__alt_mem_onchip_mem+0xff7836e8>
  8037ec:	81000017 	ldw	r4,0(r16)
  8037f0:	9027883a 	mov	r19,r18
  8037f4:	902f883a 	mov	r23,r18
  8037f8:	003f6c06 	br	8035ac <__alt_mem_onchip_mem+0xff7835ac>
  8037fc:	900d883a 	mov	r6,r18
  803800:	01400284 	movi	r5,10
  803804:	e009883a 	mov	r4,fp
  803808:	08042c00 	call	8042c0 <memchr>
  80380c:	10003e26 	beq	r2,zero,803908 <__sfvwrite_r+0x498>
  803810:	10800044 	addi	r2,r2,1
  803814:	1727c83a 	sub	r19,r2,fp
  803818:	02000044 	movi	r8,1
  80381c:	003f9d06 	br	803694 <__alt_mem_onchip_mem+0xff783694>
  803820:	80800517 	ldw	r2,20(r16)
  803824:	81400417 	ldw	r5,16(r16)
  803828:	81c00017 	ldw	r7,0(r16)
  80382c:	10a7883a 	add	r19,r2,r2
  803830:	9885883a 	add	r2,r19,r2
  803834:	1026d7fa 	srli	r19,r2,31
  803838:	396dc83a 	sub	r22,r7,r5
  80383c:	b1000044 	addi	r4,r22,1
  803840:	9885883a 	add	r2,r19,r2
  803844:	1027d07a 	srai	r19,r2,1
  803848:	2485883a 	add	r2,r4,r18
  80384c:	980d883a 	mov	r6,r19
  803850:	9880022e 	bgeu	r19,r2,80385c <__sfvwrite_r+0x3ec>
  803854:	1027883a 	mov	r19,r2
  803858:	100d883a 	mov	r6,r2
  80385c:	18c1000c 	andi	r3,r3,1024
  803860:	18001c26 	beq	r3,zero,8038d4 <__sfvwrite_r+0x464>
  803864:	300b883a 	mov	r5,r6
  803868:	a809883a 	mov	r4,r21
  80386c:	0803ab40 	call	803ab4 <_malloc_r>
  803870:	102f883a 	mov	r23,r2
  803874:	10002926 	beq	r2,zero,80391c <__sfvwrite_r+0x4ac>
  803878:	81400417 	ldw	r5,16(r16)
  80387c:	b00d883a 	mov	r6,r22
  803880:	1009883a 	mov	r4,r2
  803884:	08043a40 	call	8043a4 <memcpy>
  803888:	8080030b 	ldhu	r2,12(r16)
  80388c:	00fedfc4 	movi	r3,-1153
  803890:	10c4703a 	and	r2,r2,r3
  803894:	10802014 	ori	r2,r2,128
  803898:	8080030d 	sth	r2,12(r16)
  80389c:	bd89883a 	add	r4,r23,r22
  8038a0:	9d8fc83a 	sub	r7,r19,r22
  8038a4:	85c00415 	stw	r23,16(r16)
  8038a8:	84c00515 	stw	r19,20(r16)
  8038ac:	81000015 	stw	r4,0(r16)
  8038b0:	9027883a 	mov	r19,r18
  8038b4:	81c00215 	stw	r7,8(r16)
  8038b8:	902f883a 	mov	r23,r18
  8038bc:	003f3b06 	br	8035ac <__alt_mem_onchip_mem+0xff7835ac>
  8038c0:	800b883a 	mov	r5,r16
  8038c4:	a809883a 	mov	r4,r21
  8038c8:	080538c0 	call	80538c <_fflush_r>
  8038cc:	103fb926 	beq	r2,zero,8037b4 <__alt_mem_onchip_mem+0xff7837b4>
  8038d0:	003f6506 	br	803668 <__alt_mem_onchip_mem+0xff783668>
  8038d4:	a809883a 	mov	r4,r21
  8038d8:	08047700 	call	804770 <_realloc_r>
  8038dc:	102f883a 	mov	r23,r2
  8038e0:	103fee1e 	bne	r2,zero,80389c <__alt_mem_onchip_mem+0xff78389c>
  8038e4:	81400417 	ldw	r5,16(r16)
  8038e8:	a809883a 	mov	r4,r21
  8038ec:	080553c0 	call	80553c <_free_r>
  8038f0:	8080030b 	ldhu	r2,12(r16)
  8038f4:	00ffdfc4 	movi	r3,-129
  8038f8:	1884703a 	and	r2,r3,r2
  8038fc:	00c00304 	movi	r3,12
  803900:	a8c00015 	stw	r3,0(r21)
  803904:	003f5906 	br	80366c <__alt_mem_onchip_mem+0xff78366c>
  803908:	94c00044 	addi	r19,r18,1
  80390c:	02000044 	movi	r8,1
  803910:	003f6006 	br	803694 <__alt_mem_onchip_mem+0xff783694>
  803914:	00bfffc4 	movi	r2,-1
  803918:	003f0306 	br	803528 <__alt_mem_onchip_mem+0xff783528>
  80391c:	00800304 	movi	r2,12
  803920:	a8800015 	stw	r2,0(r21)
  803924:	8080030b 	ldhu	r2,12(r16)
  803928:	003f5006 	br	80366c <__alt_mem_onchip_mem+0xff78366c>

0080392c <_fwalk>:
  80392c:	defff704 	addi	sp,sp,-36
  803930:	dd000415 	stw	r20,16(sp)
  803934:	dfc00815 	stw	ra,32(sp)
  803938:	ddc00715 	stw	r23,28(sp)
  80393c:	dd800615 	stw	r22,24(sp)
  803940:	dd400515 	stw	r21,20(sp)
  803944:	dcc00315 	stw	r19,12(sp)
  803948:	dc800215 	stw	r18,8(sp)
  80394c:	dc400115 	stw	r17,4(sp)
  803950:	dc000015 	stw	r16,0(sp)
  803954:	2500b804 	addi	r20,r4,736
  803958:	a0002326 	beq	r20,zero,8039e8 <_fwalk+0xbc>
  80395c:	282b883a 	mov	r21,r5
  803960:	002f883a 	mov	r23,zero
  803964:	05800044 	movi	r22,1
  803968:	04ffffc4 	movi	r19,-1
  80396c:	a4400117 	ldw	r17,4(r20)
  803970:	a4800217 	ldw	r18,8(r20)
  803974:	8c7fffc4 	addi	r17,r17,-1
  803978:	88000d16 	blt	r17,zero,8039b0 <_fwalk+0x84>
  80397c:	94000304 	addi	r16,r18,12
  803980:	94800384 	addi	r18,r18,14
  803984:	8080000b 	ldhu	r2,0(r16)
  803988:	8c7fffc4 	addi	r17,r17,-1
  80398c:	813ffd04 	addi	r4,r16,-12
  803990:	b080042e 	bgeu	r22,r2,8039a4 <_fwalk+0x78>
  803994:	9080000f 	ldh	r2,0(r18)
  803998:	14c00226 	beq	r2,r19,8039a4 <_fwalk+0x78>
  80399c:	a83ee83a 	callr	r21
  8039a0:	b8aeb03a 	or	r23,r23,r2
  8039a4:	84001a04 	addi	r16,r16,104
  8039a8:	94801a04 	addi	r18,r18,104
  8039ac:	8cfff51e 	bne	r17,r19,803984 <__alt_mem_onchip_mem+0xff783984>
  8039b0:	a5000017 	ldw	r20,0(r20)
  8039b4:	a03fed1e 	bne	r20,zero,80396c <__alt_mem_onchip_mem+0xff78396c>
  8039b8:	b805883a 	mov	r2,r23
  8039bc:	dfc00817 	ldw	ra,32(sp)
  8039c0:	ddc00717 	ldw	r23,28(sp)
  8039c4:	dd800617 	ldw	r22,24(sp)
  8039c8:	dd400517 	ldw	r21,20(sp)
  8039cc:	dd000417 	ldw	r20,16(sp)
  8039d0:	dcc00317 	ldw	r19,12(sp)
  8039d4:	dc800217 	ldw	r18,8(sp)
  8039d8:	dc400117 	ldw	r17,4(sp)
  8039dc:	dc000017 	ldw	r16,0(sp)
  8039e0:	dec00904 	addi	sp,sp,36
  8039e4:	f800283a 	ret
  8039e8:	002f883a 	mov	r23,zero
  8039ec:	003ff206 	br	8039b8 <__alt_mem_onchip_mem+0xff7839b8>

008039f0 <_fwalk_reent>:
  8039f0:	defff704 	addi	sp,sp,-36
  8039f4:	dd000415 	stw	r20,16(sp)
  8039f8:	dfc00815 	stw	ra,32(sp)
  8039fc:	ddc00715 	stw	r23,28(sp)
  803a00:	dd800615 	stw	r22,24(sp)
  803a04:	dd400515 	stw	r21,20(sp)
  803a08:	dcc00315 	stw	r19,12(sp)
  803a0c:	dc800215 	stw	r18,8(sp)
  803a10:	dc400115 	stw	r17,4(sp)
  803a14:	dc000015 	stw	r16,0(sp)
  803a18:	2500b804 	addi	r20,r4,736
  803a1c:	a0002326 	beq	r20,zero,803aac <_fwalk_reent+0xbc>
  803a20:	282b883a 	mov	r21,r5
  803a24:	2027883a 	mov	r19,r4
  803a28:	002f883a 	mov	r23,zero
  803a2c:	05800044 	movi	r22,1
  803a30:	04bfffc4 	movi	r18,-1
  803a34:	a4400117 	ldw	r17,4(r20)
  803a38:	a4000217 	ldw	r16,8(r20)
  803a3c:	8c7fffc4 	addi	r17,r17,-1
  803a40:	88000c16 	blt	r17,zero,803a74 <_fwalk_reent+0x84>
  803a44:	84000304 	addi	r16,r16,12
  803a48:	8080000b 	ldhu	r2,0(r16)
  803a4c:	8c7fffc4 	addi	r17,r17,-1
  803a50:	817ffd04 	addi	r5,r16,-12
  803a54:	b080052e 	bgeu	r22,r2,803a6c <_fwalk_reent+0x7c>
  803a58:	8080008f 	ldh	r2,2(r16)
  803a5c:	9809883a 	mov	r4,r19
  803a60:	14800226 	beq	r2,r18,803a6c <_fwalk_reent+0x7c>
  803a64:	a83ee83a 	callr	r21
  803a68:	b8aeb03a 	or	r23,r23,r2
  803a6c:	84001a04 	addi	r16,r16,104
  803a70:	8cbff51e 	bne	r17,r18,803a48 <__alt_mem_onchip_mem+0xff783a48>
  803a74:	a5000017 	ldw	r20,0(r20)
  803a78:	a03fee1e 	bne	r20,zero,803a34 <__alt_mem_onchip_mem+0xff783a34>
  803a7c:	b805883a 	mov	r2,r23
  803a80:	dfc00817 	ldw	ra,32(sp)
  803a84:	ddc00717 	ldw	r23,28(sp)
  803a88:	dd800617 	ldw	r22,24(sp)
  803a8c:	dd400517 	ldw	r21,20(sp)
  803a90:	dd000417 	ldw	r20,16(sp)
  803a94:	dcc00317 	ldw	r19,12(sp)
  803a98:	dc800217 	ldw	r18,8(sp)
  803a9c:	dc400117 	ldw	r17,4(sp)
  803aa0:	dc000017 	ldw	r16,0(sp)
  803aa4:	dec00904 	addi	sp,sp,36
  803aa8:	f800283a 	ret
  803aac:	002f883a 	mov	r23,zero
  803ab0:	003ff206 	br	803a7c <__alt_mem_onchip_mem+0xff783a7c>

00803ab4 <_malloc_r>:
  803ab4:	defff504 	addi	sp,sp,-44
  803ab8:	dc800315 	stw	r18,12(sp)
  803abc:	dfc00a15 	stw	ra,40(sp)
  803ac0:	df000915 	stw	fp,36(sp)
  803ac4:	ddc00815 	stw	r23,32(sp)
  803ac8:	dd800715 	stw	r22,28(sp)
  803acc:	dd400615 	stw	r21,24(sp)
  803ad0:	dd000515 	stw	r20,20(sp)
  803ad4:	dcc00415 	stw	r19,16(sp)
  803ad8:	dc400215 	stw	r17,8(sp)
  803adc:	dc000115 	stw	r16,4(sp)
  803ae0:	288002c4 	addi	r2,r5,11
  803ae4:	00c00584 	movi	r3,22
  803ae8:	2025883a 	mov	r18,r4
  803aec:	18807f2e 	bgeu	r3,r2,803cec <_malloc_r+0x238>
  803af0:	047ffe04 	movi	r17,-8
  803af4:	1462703a 	and	r17,r2,r17
  803af8:	8800a316 	blt	r17,zero,803d88 <_malloc_r+0x2d4>
  803afc:	8940a236 	bltu	r17,r5,803d88 <_malloc_r+0x2d4>
  803b00:	08063d40 	call	8063d4 <__malloc_lock>
  803b04:	00807dc4 	movi	r2,503
  803b08:	1441e92e 	bgeu	r2,r17,8042b0 <_malloc_r+0x7fc>
  803b0c:	8804d27a 	srli	r2,r17,9
  803b10:	1000a126 	beq	r2,zero,803d98 <_malloc_r+0x2e4>
  803b14:	00c00104 	movi	r3,4
  803b18:	18811e36 	bltu	r3,r2,803f94 <_malloc_r+0x4e0>
  803b1c:	8804d1ba 	srli	r2,r17,6
  803b20:	12000e44 	addi	r8,r2,57
  803b24:	11c00e04 	addi	r7,r2,56
  803b28:	4209883a 	add	r4,r8,r8
  803b2c:	04c02074 	movhi	r19,129
  803b30:	2109883a 	add	r4,r4,r4
  803b34:	9ce97204 	addi	r19,r19,-23096
  803b38:	2109883a 	add	r4,r4,r4
  803b3c:	9909883a 	add	r4,r19,r4
  803b40:	24000117 	ldw	r16,4(r4)
  803b44:	213ffe04 	addi	r4,r4,-8
  803b48:	24009726 	beq	r4,r16,803da8 <_malloc_r+0x2f4>
  803b4c:	80800117 	ldw	r2,4(r16)
  803b50:	01bfff04 	movi	r6,-4
  803b54:	014003c4 	movi	r5,15
  803b58:	1184703a 	and	r2,r2,r6
  803b5c:	1447c83a 	sub	r3,r2,r17
  803b60:	28c00716 	blt	r5,r3,803b80 <_malloc_r+0xcc>
  803b64:	1800920e 	bge	r3,zero,803db0 <_malloc_r+0x2fc>
  803b68:	84000317 	ldw	r16,12(r16)
  803b6c:	24008e26 	beq	r4,r16,803da8 <_malloc_r+0x2f4>
  803b70:	80800117 	ldw	r2,4(r16)
  803b74:	1184703a 	and	r2,r2,r6
  803b78:	1447c83a 	sub	r3,r2,r17
  803b7c:	28fff90e 	bge	r5,r3,803b64 <__alt_mem_onchip_mem+0xff783b64>
  803b80:	3809883a 	mov	r4,r7
  803b84:	01802074 	movhi	r6,129
  803b88:	9c000417 	ldw	r16,16(r19)
  803b8c:	31a97204 	addi	r6,r6,-23096
  803b90:	32000204 	addi	r8,r6,8
  803b94:	82013426 	beq	r16,r8,804068 <_malloc_r+0x5b4>
  803b98:	80c00117 	ldw	r3,4(r16)
  803b9c:	00bfff04 	movi	r2,-4
  803ba0:	188e703a 	and	r7,r3,r2
  803ba4:	3c45c83a 	sub	r2,r7,r17
  803ba8:	00c003c4 	movi	r3,15
  803bac:	18811f16 	blt	r3,r2,80402c <_malloc_r+0x578>
  803bb0:	32000515 	stw	r8,20(r6)
  803bb4:	32000415 	stw	r8,16(r6)
  803bb8:	10007f0e 	bge	r2,zero,803db8 <_malloc_r+0x304>
  803bbc:	00807fc4 	movi	r2,511
  803bc0:	11c0fd36 	bltu	r2,r7,803fb8 <_malloc_r+0x504>
  803bc4:	3806d0fa 	srli	r3,r7,3
  803bc8:	01c00044 	movi	r7,1
  803bcc:	30800117 	ldw	r2,4(r6)
  803bd0:	19400044 	addi	r5,r3,1
  803bd4:	294b883a 	add	r5,r5,r5
  803bd8:	1807d0ba 	srai	r3,r3,2
  803bdc:	294b883a 	add	r5,r5,r5
  803be0:	294b883a 	add	r5,r5,r5
  803be4:	298b883a 	add	r5,r5,r6
  803be8:	38c6983a 	sll	r3,r7,r3
  803bec:	29c00017 	ldw	r7,0(r5)
  803bf0:	2a7ffe04 	addi	r9,r5,-8
  803bf4:	1886b03a 	or	r3,r3,r2
  803bf8:	82400315 	stw	r9,12(r16)
  803bfc:	81c00215 	stw	r7,8(r16)
  803c00:	30c00115 	stw	r3,4(r6)
  803c04:	2c000015 	stw	r16,0(r5)
  803c08:	3c000315 	stw	r16,12(r7)
  803c0c:	2005d0ba 	srai	r2,r4,2
  803c10:	01400044 	movi	r5,1
  803c14:	288a983a 	sll	r5,r5,r2
  803c18:	19406f36 	bltu	r3,r5,803dd8 <_malloc_r+0x324>
  803c1c:	28c4703a 	and	r2,r5,r3
  803c20:	10000a1e 	bne	r2,zero,803c4c <_malloc_r+0x198>
  803c24:	00bfff04 	movi	r2,-4
  803c28:	294b883a 	add	r5,r5,r5
  803c2c:	2088703a 	and	r4,r4,r2
  803c30:	28c4703a 	and	r2,r5,r3
  803c34:	21000104 	addi	r4,r4,4
  803c38:	1000041e 	bne	r2,zero,803c4c <_malloc_r+0x198>
  803c3c:	294b883a 	add	r5,r5,r5
  803c40:	28c4703a 	and	r2,r5,r3
  803c44:	21000104 	addi	r4,r4,4
  803c48:	103ffc26 	beq	r2,zero,803c3c <__alt_mem_onchip_mem+0xff783c3c>
  803c4c:	02bfff04 	movi	r10,-4
  803c50:	024003c4 	movi	r9,15
  803c54:	21800044 	addi	r6,r4,1
  803c58:	318d883a 	add	r6,r6,r6
  803c5c:	318d883a 	add	r6,r6,r6
  803c60:	318d883a 	add	r6,r6,r6
  803c64:	998d883a 	add	r6,r19,r6
  803c68:	333ffe04 	addi	r12,r6,-8
  803c6c:	2017883a 	mov	r11,r4
  803c70:	31800104 	addi	r6,r6,4
  803c74:	34000017 	ldw	r16,0(r6)
  803c78:	31fffd04 	addi	r7,r6,-12
  803c7c:	81c0041e 	bne	r16,r7,803c90 <_malloc_r+0x1dc>
  803c80:	0000fb06 	br	804070 <_malloc_r+0x5bc>
  803c84:	1801030e 	bge	r3,zero,804094 <_malloc_r+0x5e0>
  803c88:	84000317 	ldw	r16,12(r16)
  803c8c:	81c0f826 	beq	r16,r7,804070 <_malloc_r+0x5bc>
  803c90:	80800117 	ldw	r2,4(r16)
  803c94:	1284703a 	and	r2,r2,r10
  803c98:	1447c83a 	sub	r3,r2,r17
  803c9c:	48fff90e 	bge	r9,r3,803c84 <__alt_mem_onchip_mem+0xff783c84>
  803ca0:	80800317 	ldw	r2,12(r16)
  803ca4:	81000217 	ldw	r4,8(r16)
  803ca8:	89400054 	ori	r5,r17,1
  803cac:	81400115 	stw	r5,4(r16)
  803cb0:	20800315 	stw	r2,12(r4)
  803cb4:	11000215 	stw	r4,8(r2)
  803cb8:	8463883a 	add	r17,r16,r17
  803cbc:	9c400515 	stw	r17,20(r19)
  803cc0:	9c400415 	stw	r17,16(r19)
  803cc4:	18800054 	ori	r2,r3,1
  803cc8:	88800115 	stw	r2,4(r17)
  803ccc:	8a000315 	stw	r8,12(r17)
  803cd0:	8a000215 	stw	r8,8(r17)
  803cd4:	88e3883a 	add	r17,r17,r3
  803cd8:	88c00015 	stw	r3,0(r17)
  803cdc:	9009883a 	mov	r4,r18
  803ce0:	08063f80 	call	8063f8 <__malloc_unlock>
  803ce4:	80800204 	addi	r2,r16,8
  803ce8:	00001b06 	br	803d58 <_malloc_r+0x2a4>
  803cec:	04400404 	movi	r17,16
  803cf0:	89402536 	bltu	r17,r5,803d88 <_malloc_r+0x2d4>
  803cf4:	08063d40 	call	8063d4 <__malloc_lock>
  803cf8:	00800184 	movi	r2,6
  803cfc:	01000084 	movi	r4,2
  803d00:	04c02074 	movhi	r19,129
  803d04:	1085883a 	add	r2,r2,r2
  803d08:	9ce97204 	addi	r19,r19,-23096
  803d0c:	1085883a 	add	r2,r2,r2
  803d10:	9885883a 	add	r2,r19,r2
  803d14:	14000117 	ldw	r16,4(r2)
  803d18:	10fffe04 	addi	r3,r2,-8
  803d1c:	80c0d926 	beq	r16,r3,804084 <_malloc_r+0x5d0>
  803d20:	80c00117 	ldw	r3,4(r16)
  803d24:	81000317 	ldw	r4,12(r16)
  803d28:	00bfff04 	movi	r2,-4
  803d2c:	1884703a 	and	r2,r3,r2
  803d30:	81400217 	ldw	r5,8(r16)
  803d34:	8085883a 	add	r2,r16,r2
  803d38:	10c00117 	ldw	r3,4(r2)
  803d3c:	29000315 	stw	r4,12(r5)
  803d40:	21400215 	stw	r5,8(r4)
  803d44:	18c00054 	ori	r3,r3,1
  803d48:	10c00115 	stw	r3,4(r2)
  803d4c:	9009883a 	mov	r4,r18
  803d50:	08063f80 	call	8063f8 <__malloc_unlock>
  803d54:	80800204 	addi	r2,r16,8
  803d58:	dfc00a17 	ldw	ra,40(sp)
  803d5c:	df000917 	ldw	fp,36(sp)
  803d60:	ddc00817 	ldw	r23,32(sp)
  803d64:	dd800717 	ldw	r22,28(sp)
  803d68:	dd400617 	ldw	r21,24(sp)
  803d6c:	dd000517 	ldw	r20,20(sp)
  803d70:	dcc00417 	ldw	r19,16(sp)
  803d74:	dc800317 	ldw	r18,12(sp)
  803d78:	dc400217 	ldw	r17,8(sp)
  803d7c:	dc000117 	ldw	r16,4(sp)
  803d80:	dec00b04 	addi	sp,sp,44
  803d84:	f800283a 	ret
  803d88:	00800304 	movi	r2,12
  803d8c:	90800015 	stw	r2,0(r18)
  803d90:	0005883a 	mov	r2,zero
  803d94:	003ff006 	br	803d58 <__alt_mem_onchip_mem+0xff783d58>
  803d98:	01002004 	movi	r4,128
  803d9c:	02001004 	movi	r8,64
  803da0:	01c00fc4 	movi	r7,63
  803da4:	003f6106 	br	803b2c <__alt_mem_onchip_mem+0xff783b2c>
  803da8:	4009883a 	mov	r4,r8
  803dac:	003f7506 	br	803b84 <__alt_mem_onchip_mem+0xff783b84>
  803db0:	81000317 	ldw	r4,12(r16)
  803db4:	003fde06 	br	803d30 <__alt_mem_onchip_mem+0xff783d30>
  803db8:	81c5883a 	add	r2,r16,r7
  803dbc:	11400117 	ldw	r5,4(r2)
  803dc0:	9009883a 	mov	r4,r18
  803dc4:	29400054 	ori	r5,r5,1
  803dc8:	11400115 	stw	r5,4(r2)
  803dcc:	08063f80 	call	8063f8 <__malloc_unlock>
  803dd0:	80800204 	addi	r2,r16,8
  803dd4:	003fe006 	br	803d58 <__alt_mem_onchip_mem+0xff783d58>
  803dd8:	9c000217 	ldw	r16,8(r19)
  803ddc:	00bfff04 	movi	r2,-4
  803de0:	85800117 	ldw	r22,4(r16)
  803de4:	b0ac703a 	and	r22,r22,r2
  803de8:	b4400336 	bltu	r22,r17,803df8 <_malloc_r+0x344>
  803dec:	b445c83a 	sub	r2,r22,r17
  803df0:	00c003c4 	movi	r3,15
  803df4:	18805d16 	blt	r3,r2,803f6c <_malloc_r+0x4b8>
  803df8:	05c02074 	movhi	r23,129
  803dfc:	00802074 	movhi	r2,129
  803e00:	10b6f004 	addi	r2,r2,-9280
  803e04:	bdef7104 	addi	r23,r23,-16956
  803e08:	15400017 	ldw	r21,0(r2)
  803e0c:	b8c00017 	ldw	r3,0(r23)
  803e10:	00bfffc4 	movi	r2,-1
  803e14:	858d883a 	add	r6,r16,r22
  803e18:	8d6b883a 	add	r21,r17,r21
  803e1c:	1880ea26 	beq	r3,r2,8041c8 <_malloc_r+0x714>
  803e20:	ad4403c4 	addi	r21,r21,4111
  803e24:	00bc0004 	movi	r2,-4096
  803e28:	a8aa703a 	and	r21,r21,r2
  803e2c:	a80b883a 	mov	r5,r21
  803e30:	9009883a 	mov	r4,r18
  803e34:	d9800015 	stw	r6,0(sp)
  803e38:	0804cd40 	call	804cd4 <_sbrk_r>
  803e3c:	1029883a 	mov	r20,r2
  803e40:	00bfffc4 	movi	r2,-1
  803e44:	d9800017 	ldw	r6,0(sp)
  803e48:	a080e826 	beq	r20,r2,8041ec <_malloc_r+0x738>
  803e4c:	a180a636 	bltu	r20,r6,8040e8 <_malloc_r+0x634>
  803e50:	07002074 	movhi	fp,129
  803e54:	e736f904 	addi	fp,fp,-9244
  803e58:	e0800017 	ldw	r2,0(fp)
  803e5c:	a887883a 	add	r3,r21,r2
  803e60:	e0c00015 	stw	r3,0(fp)
  803e64:	3500e626 	beq	r6,r20,804200 <_malloc_r+0x74c>
  803e68:	b9000017 	ldw	r4,0(r23)
  803e6c:	00bfffc4 	movi	r2,-1
  803e70:	2080ee26 	beq	r4,r2,80422c <_malloc_r+0x778>
  803e74:	a185c83a 	sub	r2,r20,r6
  803e78:	10c5883a 	add	r2,r2,r3
  803e7c:	e0800015 	stw	r2,0(fp)
  803e80:	a0c001cc 	andi	r3,r20,7
  803e84:	1800bc26 	beq	r3,zero,804178 <_malloc_r+0x6c4>
  803e88:	a0e9c83a 	sub	r20,r20,r3
  803e8c:	00840204 	movi	r2,4104
  803e90:	a5000204 	addi	r20,r20,8
  803e94:	10c7c83a 	sub	r3,r2,r3
  803e98:	a545883a 	add	r2,r20,r21
  803e9c:	1083ffcc 	andi	r2,r2,4095
  803ea0:	18abc83a 	sub	r21,r3,r2
  803ea4:	a80b883a 	mov	r5,r21
  803ea8:	9009883a 	mov	r4,r18
  803eac:	0804cd40 	call	804cd4 <_sbrk_r>
  803eb0:	00ffffc4 	movi	r3,-1
  803eb4:	10c0e126 	beq	r2,r3,80423c <_malloc_r+0x788>
  803eb8:	1505c83a 	sub	r2,r2,r20
  803ebc:	1545883a 	add	r2,r2,r21
  803ec0:	10800054 	ori	r2,r2,1
  803ec4:	e0c00017 	ldw	r3,0(fp)
  803ec8:	9d000215 	stw	r20,8(r19)
  803ecc:	a0800115 	stw	r2,4(r20)
  803ed0:	a8c7883a 	add	r3,r21,r3
  803ed4:	e0c00015 	stw	r3,0(fp)
  803ed8:	84c00e26 	beq	r16,r19,803f14 <_malloc_r+0x460>
  803edc:	018003c4 	movi	r6,15
  803ee0:	3580a72e 	bgeu	r6,r22,804180 <_malloc_r+0x6cc>
  803ee4:	81400117 	ldw	r5,4(r16)
  803ee8:	013ffe04 	movi	r4,-8
  803eec:	b0bffd04 	addi	r2,r22,-12
  803ef0:	1104703a 	and	r2,r2,r4
  803ef4:	2900004c 	andi	r4,r5,1
  803ef8:	2088b03a 	or	r4,r4,r2
  803efc:	81000115 	stw	r4,4(r16)
  803f00:	01400144 	movi	r5,5
  803f04:	8089883a 	add	r4,r16,r2
  803f08:	21400115 	stw	r5,4(r4)
  803f0c:	21400215 	stw	r5,8(r4)
  803f10:	3080cd36 	bltu	r6,r2,804248 <_malloc_r+0x794>
  803f14:	00802074 	movhi	r2,129
  803f18:	10b6ef04 	addi	r2,r2,-9284
  803f1c:	11000017 	ldw	r4,0(r2)
  803f20:	20c0012e 	bgeu	r4,r3,803f28 <_malloc_r+0x474>
  803f24:	10c00015 	stw	r3,0(r2)
  803f28:	00802074 	movhi	r2,129
  803f2c:	10b6ee04 	addi	r2,r2,-9288
  803f30:	11000017 	ldw	r4,0(r2)
  803f34:	9c000217 	ldw	r16,8(r19)
  803f38:	20c0012e 	bgeu	r4,r3,803f40 <_malloc_r+0x48c>
  803f3c:	10c00015 	stw	r3,0(r2)
  803f40:	80c00117 	ldw	r3,4(r16)
  803f44:	00bfff04 	movi	r2,-4
  803f48:	1886703a 	and	r3,r3,r2
  803f4c:	1c45c83a 	sub	r2,r3,r17
  803f50:	1c400236 	bltu	r3,r17,803f5c <_malloc_r+0x4a8>
  803f54:	00c003c4 	movi	r3,15
  803f58:	18800416 	blt	r3,r2,803f6c <_malloc_r+0x4b8>
  803f5c:	9009883a 	mov	r4,r18
  803f60:	08063f80 	call	8063f8 <__malloc_unlock>
  803f64:	0005883a 	mov	r2,zero
  803f68:	003f7b06 	br	803d58 <__alt_mem_onchip_mem+0xff783d58>
  803f6c:	88c00054 	ori	r3,r17,1
  803f70:	80c00115 	stw	r3,4(r16)
  803f74:	8463883a 	add	r17,r16,r17
  803f78:	10800054 	ori	r2,r2,1
  803f7c:	9c400215 	stw	r17,8(r19)
  803f80:	88800115 	stw	r2,4(r17)
  803f84:	9009883a 	mov	r4,r18
  803f88:	08063f80 	call	8063f8 <__malloc_unlock>
  803f8c:	80800204 	addi	r2,r16,8
  803f90:	003f7106 	br	803d58 <__alt_mem_onchip_mem+0xff783d58>
  803f94:	00c00504 	movi	r3,20
  803f98:	18804a2e 	bgeu	r3,r2,8040c4 <_malloc_r+0x610>
  803f9c:	00c01504 	movi	r3,84
  803fa0:	18806e36 	bltu	r3,r2,80415c <_malloc_r+0x6a8>
  803fa4:	8804d33a 	srli	r2,r17,12
  803fa8:	12001bc4 	addi	r8,r2,111
  803fac:	11c01b84 	addi	r7,r2,110
  803fb0:	4209883a 	add	r4,r8,r8
  803fb4:	003edd06 	br	803b2c <__alt_mem_onchip_mem+0xff783b2c>
  803fb8:	3804d27a 	srli	r2,r7,9
  803fbc:	00c00104 	movi	r3,4
  803fc0:	1880442e 	bgeu	r3,r2,8040d4 <_malloc_r+0x620>
  803fc4:	00c00504 	movi	r3,20
  803fc8:	18808136 	bltu	r3,r2,8041d0 <_malloc_r+0x71c>
  803fcc:	11401704 	addi	r5,r2,92
  803fd0:	10c016c4 	addi	r3,r2,91
  803fd4:	294b883a 	add	r5,r5,r5
  803fd8:	294b883a 	add	r5,r5,r5
  803fdc:	294b883a 	add	r5,r5,r5
  803fe0:	994b883a 	add	r5,r19,r5
  803fe4:	28800017 	ldw	r2,0(r5)
  803fe8:	01802074 	movhi	r6,129
  803fec:	297ffe04 	addi	r5,r5,-8
  803ff0:	31a97204 	addi	r6,r6,-23096
  803ff4:	28806526 	beq	r5,r2,80418c <_malloc_r+0x6d8>
  803ff8:	01bfff04 	movi	r6,-4
  803ffc:	10c00117 	ldw	r3,4(r2)
  804000:	1986703a 	and	r3,r3,r6
  804004:	38c0022e 	bgeu	r7,r3,804010 <_malloc_r+0x55c>
  804008:	10800217 	ldw	r2,8(r2)
  80400c:	28bffb1e 	bne	r5,r2,803ffc <__alt_mem_onchip_mem+0xff783ffc>
  804010:	11400317 	ldw	r5,12(r2)
  804014:	98c00117 	ldw	r3,4(r19)
  804018:	81400315 	stw	r5,12(r16)
  80401c:	80800215 	stw	r2,8(r16)
  804020:	2c000215 	stw	r16,8(r5)
  804024:	14000315 	stw	r16,12(r2)
  804028:	003ef806 	br	803c0c <__alt_mem_onchip_mem+0xff783c0c>
  80402c:	88c00054 	ori	r3,r17,1
  804030:	80c00115 	stw	r3,4(r16)
  804034:	8463883a 	add	r17,r16,r17
  804038:	34400515 	stw	r17,20(r6)
  80403c:	34400415 	stw	r17,16(r6)
  804040:	10c00054 	ori	r3,r2,1
  804044:	8a000315 	stw	r8,12(r17)
  804048:	8a000215 	stw	r8,8(r17)
  80404c:	88c00115 	stw	r3,4(r17)
  804050:	88a3883a 	add	r17,r17,r2
  804054:	88800015 	stw	r2,0(r17)
  804058:	9009883a 	mov	r4,r18
  80405c:	08063f80 	call	8063f8 <__malloc_unlock>
  804060:	80800204 	addi	r2,r16,8
  804064:	003f3c06 	br	803d58 <__alt_mem_onchip_mem+0xff783d58>
  804068:	30c00117 	ldw	r3,4(r6)
  80406c:	003ee706 	br	803c0c <__alt_mem_onchip_mem+0xff783c0c>
  804070:	5ac00044 	addi	r11,r11,1
  804074:	588000cc 	andi	r2,r11,3
  804078:	31800204 	addi	r6,r6,8
  80407c:	103efd1e 	bne	r2,zero,803c74 <__alt_mem_onchip_mem+0xff783c74>
  804080:	00002406 	br	804114 <_malloc_r+0x660>
  804084:	14000317 	ldw	r16,12(r2)
  804088:	143f251e 	bne	r2,r16,803d20 <__alt_mem_onchip_mem+0xff783d20>
  80408c:	21000084 	addi	r4,r4,2
  804090:	003ebc06 	br	803b84 <__alt_mem_onchip_mem+0xff783b84>
  804094:	8085883a 	add	r2,r16,r2
  804098:	10c00117 	ldw	r3,4(r2)
  80409c:	81000317 	ldw	r4,12(r16)
  8040a0:	81400217 	ldw	r5,8(r16)
  8040a4:	18c00054 	ori	r3,r3,1
  8040a8:	10c00115 	stw	r3,4(r2)
  8040ac:	29000315 	stw	r4,12(r5)
  8040b0:	21400215 	stw	r5,8(r4)
  8040b4:	9009883a 	mov	r4,r18
  8040b8:	08063f80 	call	8063f8 <__malloc_unlock>
  8040bc:	80800204 	addi	r2,r16,8
  8040c0:	003f2506 	br	803d58 <__alt_mem_onchip_mem+0xff783d58>
  8040c4:	12001704 	addi	r8,r2,92
  8040c8:	11c016c4 	addi	r7,r2,91
  8040cc:	4209883a 	add	r4,r8,r8
  8040d0:	003e9606 	br	803b2c <__alt_mem_onchip_mem+0xff783b2c>
  8040d4:	3804d1ba 	srli	r2,r7,6
  8040d8:	11400e44 	addi	r5,r2,57
  8040dc:	10c00e04 	addi	r3,r2,56
  8040e0:	294b883a 	add	r5,r5,r5
  8040e4:	003fbc06 	br	803fd8 <__alt_mem_onchip_mem+0xff783fd8>
  8040e8:	84ff5926 	beq	r16,r19,803e50 <__alt_mem_onchip_mem+0xff783e50>
  8040ec:	00802074 	movhi	r2,129
  8040f0:	10a97204 	addi	r2,r2,-23096
  8040f4:	14000217 	ldw	r16,8(r2)
  8040f8:	00bfff04 	movi	r2,-4
  8040fc:	80c00117 	ldw	r3,4(r16)
  804100:	1886703a 	and	r3,r3,r2
  804104:	003f9106 	br	803f4c <__alt_mem_onchip_mem+0xff783f4c>
  804108:	60800217 	ldw	r2,8(r12)
  80410c:	213fffc4 	addi	r4,r4,-1
  804110:	1300651e 	bne	r2,r12,8042a8 <_malloc_r+0x7f4>
  804114:	208000cc 	andi	r2,r4,3
  804118:	633ffe04 	addi	r12,r12,-8
  80411c:	103ffa1e 	bne	r2,zero,804108 <__alt_mem_onchip_mem+0xff784108>
  804120:	98800117 	ldw	r2,4(r19)
  804124:	0146303a 	nor	r3,zero,r5
  804128:	1884703a 	and	r2,r3,r2
  80412c:	98800115 	stw	r2,4(r19)
  804130:	294b883a 	add	r5,r5,r5
  804134:	117f2836 	bltu	r2,r5,803dd8 <__alt_mem_onchip_mem+0xff783dd8>
  804138:	283f2726 	beq	r5,zero,803dd8 <__alt_mem_onchip_mem+0xff783dd8>
  80413c:	2886703a 	and	r3,r5,r2
  804140:	5809883a 	mov	r4,r11
  804144:	183ec31e 	bne	r3,zero,803c54 <__alt_mem_onchip_mem+0xff783c54>
  804148:	294b883a 	add	r5,r5,r5
  80414c:	2886703a 	and	r3,r5,r2
  804150:	21000104 	addi	r4,r4,4
  804154:	183ffc26 	beq	r3,zero,804148 <__alt_mem_onchip_mem+0xff784148>
  804158:	003ebe06 	br	803c54 <__alt_mem_onchip_mem+0xff783c54>
  80415c:	00c05504 	movi	r3,340
  804160:	18801236 	bltu	r3,r2,8041ac <_malloc_r+0x6f8>
  804164:	8804d3fa 	srli	r2,r17,15
  804168:	12001e04 	addi	r8,r2,120
  80416c:	11c01dc4 	addi	r7,r2,119
  804170:	4209883a 	add	r4,r8,r8
  804174:	003e6d06 	br	803b2c <__alt_mem_onchip_mem+0xff783b2c>
  804178:	00c40004 	movi	r3,4096
  80417c:	003f4606 	br	803e98 <__alt_mem_onchip_mem+0xff783e98>
  804180:	00800044 	movi	r2,1
  804184:	a0800115 	stw	r2,4(r20)
  804188:	003f7406 	br	803f5c <__alt_mem_onchip_mem+0xff783f5c>
  80418c:	1805d0ba 	srai	r2,r3,2
  804190:	01c00044 	movi	r7,1
  804194:	30c00117 	ldw	r3,4(r6)
  804198:	388e983a 	sll	r7,r7,r2
  80419c:	2805883a 	mov	r2,r5
  8041a0:	38c6b03a 	or	r3,r7,r3
  8041a4:	30c00115 	stw	r3,4(r6)
  8041a8:	003f9b06 	br	804018 <__alt_mem_onchip_mem+0xff784018>
  8041ac:	00c15504 	movi	r3,1364
  8041b0:	18801a36 	bltu	r3,r2,80421c <_malloc_r+0x768>
  8041b4:	8804d4ba 	srli	r2,r17,18
  8041b8:	12001f44 	addi	r8,r2,125
  8041bc:	11c01f04 	addi	r7,r2,124
  8041c0:	4209883a 	add	r4,r8,r8
  8041c4:	003e5906 	br	803b2c <__alt_mem_onchip_mem+0xff783b2c>
  8041c8:	ad400404 	addi	r21,r21,16
  8041cc:	003f1706 	br	803e2c <__alt_mem_onchip_mem+0xff783e2c>
  8041d0:	00c01504 	movi	r3,84
  8041d4:	18802336 	bltu	r3,r2,804264 <_malloc_r+0x7b0>
  8041d8:	3804d33a 	srli	r2,r7,12
  8041dc:	11401bc4 	addi	r5,r2,111
  8041e0:	10c01b84 	addi	r3,r2,110
  8041e4:	294b883a 	add	r5,r5,r5
  8041e8:	003f7b06 	br	803fd8 <__alt_mem_onchip_mem+0xff783fd8>
  8041ec:	9c000217 	ldw	r16,8(r19)
  8041f0:	00bfff04 	movi	r2,-4
  8041f4:	80c00117 	ldw	r3,4(r16)
  8041f8:	1886703a 	and	r3,r3,r2
  8041fc:	003f5306 	br	803f4c <__alt_mem_onchip_mem+0xff783f4c>
  804200:	3083ffcc 	andi	r2,r6,4095
  804204:	103f181e 	bne	r2,zero,803e68 <__alt_mem_onchip_mem+0xff783e68>
  804208:	99000217 	ldw	r4,8(r19)
  80420c:	b545883a 	add	r2,r22,r21
  804210:	10800054 	ori	r2,r2,1
  804214:	20800115 	stw	r2,4(r4)
  804218:	003f3e06 	br	803f14 <__alt_mem_onchip_mem+0xff783f14>
  80421c:	01003f84 	movi	r4,254
  804220:	02001fc4 	movi	r8,127
  804224:	01c01f84 	movi	r7,126
  804228:	003e4006 	br	803b2c <__alt_mem_onchip_mem+0xff783b2c>
  80422c:	00802074 	movhi	r2,129
  804230:	10af7104 	addi	r2,r2,-16956
  804234:	15000015 	stw	r20,0(r2)
  804238:	003f1106 	br	803e80 <__alt_mem_onchip_mem+0xff783e80>
  80423c:	00800044 	movi	r2,1
  804240:	002b883a 	mov	r21,zero
  804244:	003f1f06 	br	803ec4 <__alt_mem_onchip_mem+0xff783ec4>
  804248:	81400204 	addi	r5,r16,8
  80424c:	9009883a 	mov	r4,r18
  804250:	080553c0 	call	80553c <_free_r>
  804254:	00802074 	movhi	r2,129
  804258:	10b6f904 	addi	r2,r2,-9244
  80425c:	10c00017 	ldw	r3,0(r2)
  804260:	003f2c06 	br	803f14 <__alt_mem_onchip_mem+0xff783f14>
  804264:	00c05504 	movi	r3,340
  804268:	18800536 	bltu	r3,r2,804280 <_malloc_r+0x7cc>
  80426c:	3804d3fa 	srli	r2,r7,15
  804270:	11401e04 	addi	r5,r2,120
  804274:	10c01dc4 	addi	r3,r2,119
  804278:	294b883a 	add	r5,r5,r5
  80427c:	003f5606 	br	803fd8 <__alt_mem_onchip_mem+0xff783fd8>
  804280:	00c15504 	movi	r3,1364
  804284:	18800536 	bltu	r3,r2,80429c <_malloc_r+0x7e8>
  804288:	3804d4ba 	srli	r2,r7,18
  80428c:	11401f44 	addi	r5,r2,125
  804290:	10c01f04 	addi	r3,r2,124
  804294:	294b883a 	add	r5,r5,r5
  804298:	003f4f06 	br	803fd8 <__alt_mem_onchip_mem+0xff783fd8>
  80429c:	01403f84 	movi	r5,254
  8042a0:	00c01f84 	movi	r3,126
  8042a4:	003f4c06 	br	803fd8 <__alt_mem_onchip_mem+0xff783fd8>
  8042a8:	98800117 	ldw	r2,4(r19)
  8042ac:	003fa006 	br	804130 <__alt_mem_onchip_mem+0xff784130>
  8042b0:	8808d0fa 	srli	r4,r17,3
  8042b4:	20800044 	addi	r2,r4,1
  8042b8:	1085883a 	add	r2,r2,r2
  8042bc:	003e9006 	br	803d00 <__alt_mem_onchip_mem+0xff783d00>

008042c0 <memchr>:
  8042c0:	208000cc 	andi	r2,r4,3
  8042c4:	280f883a 	mov	r7,r5
  8042c8:	10003426 	beq	r2,zero,80439c <memchr+0xdc>
  8042cc:	30bfffc4 	addi	r2,r6,-1
  8042d0:	30001a26 	beq	r6,zero,80433c <memchr+0x7c>
  8042d4:	20c00003 	ldbu	r3,0(r4)
  8042d8:	29803fcc 	andi	r6,r5,255
  8042dc:	30c0051e 	bne	r6,r3,8042f4 <memchr+0x34>
  8042e0:	00001806 	br	804344 <memchr+0x84>
  8042e4:	10001526 	beq	r2,zero,80433c <memchr+0x7c>
  8042e8:	20c00003 	ldbu	r3,0(r4)
  8042ec:	10bfffc4 	addi	r2,r2,-1
  8042f0:	30c01426 	beq	r6,r3,804344 <memchr+0x84>
  8042f4:	21000044 	addi	r4,r4,1
  8042f8:	20c000cc 	andi	r3,r4,3
  8042fc:	183ff91e 	bne	r3,zero,8042e4 <__alt_mem_onchip_mem+0xff7842e4>
  804300:	020000c4 	movi	r8,3
  804304:	40801136 	bltu	r8,r2,80434c <memchr+0x8c>
  804308:	10000c26 	beq	r2,zero,80433c <memchr+0x7c>
  80430c:	20c00003 	ldbu	r3,0(r4)
  804310:	29403fcc 	andi	r5,r5,255
  804314:	28c00b26 	beq	r5,r3,804344 <memchr+0x84>
  804318:	20c00044 	addi	r3,r4,1
  80431c:	39803fcc 	andi	r6,r7,255
  804320:	2089883a 	add	r4,r4,r2
  804324:	00000306 	br	804334 <memchr+0x74>
  804328:	18c00044 	addi	r3,r3,1
  80432c:	197fffc3 	ldbu	r5,-1(r3)
  804330:	31400526 	beq	r6,r5,804348 <memchr+0x88>
  804334:	1805883a 	mov	r2,r3
  804338:	20fffb1e 	bne	r4,r3,804328 <__alt_mem_onchip_mem+0xff784328>
  80433c:	0005883a 	mov	r2,zero
  804340:	f800283a 	ret
  804344:	2005883a 	mov	r2,r4
  804348:	f800283a 	ret
  80434c:	28c03fcc 	andi	r3,r5,255
  804350:	1812923a 	slli	r9,r3,8
  804354:	02ffbff4 	movhi	r11,65279
  804358:	02a02074 	movhi	r10,32897
  80435c:	48d2b03a 	or	r9,r9,r3
  804360:	4806943a 	slli	r3,r9,16
  804364:	5affbfc4 	addi	r11,r11,-257
  804368:	52a02004 	addi	r10,r10,-32640
  80436c:	48d2b03a 	or	r9,r9,r3
  804370:	20c00017 	ldw	r3,0(r4)
  804374:	48c6f03a 	xor	r3,r9,r3
  804378:	1acd883a 	add	r6,r3,r11
  80437c:	00c6303a 	nor	r3,zero,r3
  804380:	30c6703a 	and	r3,r6,r3
  804384:	1a86703a 	and	r3,r3,r10
  804388:	183fe01e 	bne	r3,zero,80430c <__alt_mem_onchip_mem+0xff78430c>
  80438c:	10bfff04 	addi	r2,r2,-4
  804390:	21000104 	addi	r4,r4,4
  804394:	40bff636 	bltu	r8,r2,804370 <__alt_mem_onchip_mem+0xff784370>
  804398:	003fdb06 	br	804308 <__alt_mem_onchip_mem+0xff784308>
  80439c:	3005883a 	mov	r2,r6
  8043a0:	003fd706 	br	804300 <__alt_mem_onchip_mem+0xff784300>

008043a4 <memcpy>:
  8043a4:	defffd04 	addi	sp,sp,-12
  8043a8:	dfc00215 	stw	ra,8(sp)
  8043ac:	dc400115 	stw	r17,4(sp)
  8043b0:	dc000015 	stw	r16,0(sp)
  8043b4:	00c003c4 	movi	r3,15
  8043b8:	2005883a 	mov	r2,r4
  8043bc:	1980452e 	bgeu	r3,r6,8044d4 <memcpy+0x130>
  8043c0:	2906b03a 	or	r3,r5,r4
  8043c4:	18c000cc 	andi	r3,r3,3
  8043c8:	1800441e 	bne	r3,zero,8044dc <memcpy+0x138>
  8043cc:	347ffc04 	addi	r17,r6,-16
  8043d0:	8822d13a 	srli	r17,r17,4
  8043d4:	28c00104 	addi	r3,r5,4
  8043d8:	23400104 	addi	r13,r4,4
  8043dc:	8820913a 	slli	r16,r17,4
  8043e0:	2b000204 	addi	r12,r5,8
  8043e4:	22c00204 	addi	r11,r4,8
  8043e8:	84000504 	addi	r16,r16,20
  8043ec:	2a800304 	addi	r10,r5,12
  8043f0:	22400304 	addi	r9,r4,12
  8043f4:	2c21883a 	add	r16,r5,r16
  8043f8:	2811883a 	mov	r8,r5
  8043fc:	200f883a 	mov	r7,r4
  804400:	41000017 	ldw	r4,0(r8)
  804404:	1fc00017 	ldw	ra,0(r3)
  804408:	63c00017 	ldw	r15,0(r12)
  80440c:	39000015 	stw	r4,0(r7)
  804410:	53800017 	ldw	r14,0(r10)
  804414:	6fc00015 	stw	ra,0(r13)
  804418:	5bc00015 	stw	r15,0(r11)
  80441c:	4b800015 	stw	r14,0(r9)
  804420:	18c00404 	addi	r3,r3,16
  804424:	39c00404 	addi	r7,r7,16
  804428:	42000404 	addi	r8,r8,16
  80442c:	6b400404 	addi	r13,r13,16
  804430:	63000404 	addi	r12,r12,16
  804434:	5ac00404 	addi	r11,r11,16
  804438:	52800404 	addi	r10,r10,16
  80443c:	4a400404 	addi	r9,r9,16
  804440:	1c3fef1e 	bne	r3,r16,804400 <__alt_mem_onchip_mem+0xff784400>
  804444:	89c00044 	addi	r7,r17,1
  804448:	380e913a 	slli	r7,r7,4
  80444c:	310003cc 	andi	r4,r6,15
  804450:	02c000c4 	movi	r11,3
  804454:	11c7883a 	add	r3,r2,r7
  804458:	29cb883a 	add	r5,r5,r7
  80445c:	5900212e 	bgeu	r11,r4,8044e4 <memcpy+0x140>
  804460:	1813883a 	mov	r9,r3
  804464:	2811883a 	mov	r8,r5
  804468:	200f883a 	mov	r7,r4
  80446c:	42800017 	ldw	r10,0(r8)
  804470:	4a400104 	addi	r9,r9,4
  804474:	39ffff04 	addi	r7,r7,-4
  804478:	4abfff15 	stw	r10,-4(r9)
  80447c:	42000104 	addi	r8,r8,4
  804480:	59fffa36 	bltu	r11,r7,80446c <__alt_mem_onchip_mem+0xff78446c>
  804484:	213fff04 	addi	r4,r4,-4
  804488:	2008d0ba 	srli	r4,r4,2
  80448c:	318000cc 	andi	r6,r6,3
  804490:	21000044 	addi	r4,r4,1
  804494:	2109883a 	add	r4,r4,r4
  804498:	2109883a 	add	r4,r4,r4
  80449c:	1907883a 	add	r3,r3,r4
  8044a0:	290b883a 	add	r5,r5,r4
  8044a4:	30000626 	beq	r6,zero,8044c0 <memcpy+0x11c>
  8044a8:	198d883a 	add	r6,r3,r6
  8044ac:	29c00003 	ldbu	r7,0(r5)
  8044b0:	18c00044 	addi	r3,r3,1
  8044b4:	29400044 	addi	r5,r5,1
  8044b8:	19ffffc5 	stb	r7,-1(r3)
  8044bc:	19bffb1e 	bne	r3,r6,8044ac <__alt_mem_onchip_mem+0xff7844ac>
  8044c0:	dfc00217 	ldw	ra,8(sp)
  8044c4:	dc400117 	ldw	r17,4(sp)
  8044c8:	dc000017 	ldw	r16,0(sp)
  8044cc:	dec00304 	addi	sp,sp,12
  8044d0:	f800283a 	ret
  8044d4:	2007883a 	mov	r3,r4
  8044d8:	003ff206 	br	8044a4 <__alt_mem_onchip_mem+0xff7844a4>
  8044dc:	2007883a 	mov	r3,r4
  8044e0:	003ff106 	br	8044a8 <__alt_mem_onchip_mem+0xff7844a8>
  8044e4:	200d883a 	mov	r6,r4
  8044e8:	003fee06 	br	8044a4 <__alt_mem_onchip_mem+0xff7844a4>

008044ec <memmove>:
  8044ec:	2005883a 	mov	r2,r4
  8044f0:	29000b2e 	bgeu	r5,r4,804520 <memmove+0x34>
  8044f4:	298f883a 	add	r7,r5,r6
  8044f8:	21c0092e 	bgeu	r4,r7,804520 <memmove+0x34>
  8044fc:	2187883a 	add	r3,r4,r6
  804500:	198bc83a 	sub	r5,r3,r6
  804504:	30004826 	beq	r6,zero,804628 <memmove+0x13c>
  804508:	39ffffc4 	addi	r7,r7,-1
  80450c:	39000003 	ldbu	r4,0(r7)
  804510:	18ffffc4 	addi	r3,r3,-1
  804514:	19000005 	stb	r4,0(r3)
  804518:	28fffb1e 	bne	r5,r3,804508 <__alt_mem_onchip_mem+0xff784508>
  80451c:	f800283a 	ret
  804520:	00c003c4 	movi	r3,15
  804524:	1980412e 	bgeu	r3,r6,80462c <memmove+0x140>
  804528:	2886b03a 	or	r3,r5,r2
  80452c:	18c000cc 	andi	r3,r3,3
  804530:	1800401e 	bne	r3,zero,804634 <memmove+0x148>
  804534:	33fffc04 	addi	r15,r6,-16
  804538:	781ed13a 	srli	r15,r15,4
  80453c:	28c00104 	addi	r3,r5,4
  804540:	13400104 	addi	r13,r2,4
  804544:	781c913a 	slli	r14,r15,4
  804548:	2b000204 	addi	r12,r5,8
  80454c:	12c00204 	addi	r11,r2,8
  804550:	73800504 	addi	r14,r14,20
  804554:	2a800304 	addi	r10,r5,12
  804558:	12400304 	addi	r9,r2,12
  80455c:	2b9d883a 	add	r14,r5,r14
  804560:	2811883a 	mov	r8,r5
  804564:	100f883a 	mov	r7,r2
  804568:	41000017 	ldw	r4,0(r8)
  80456c:	39c00404 	addi	r7,r7,16
  804570:	18c00404 	addi	r3,r3,16
  804574:	393ffc15 	stw	r4,-16(r7)
  804578:	193ffc17 	ldw	r4,-16(r3)
  80457c:	6b400404 	addi	r13,r13,16
  804580:	5ac00404 	addi	r11,r11,16
  804584:	693ffc15 	stw	r4,-16(r13)
  804588:	61000017 	ldw	r4,0(r12)
  80458c:	4a400404 	addi	r9,r9,16
  804590:	42000404 	addi	r8,r8,16
  804594:	593ffc15 	stw	r4,-16(r11)
  804598:	51000017 	ldw	r4,0(r10)
  80459c:	63000404 	addi	r12,r12,16
  8045a0:	52800404 	addi	r10,r10,16
  8045a4:	493ffc15 	stw	r4,-16(r9)
  8045a8:	1bbfef1e 	bne	r3,r14,804568 <__alt_mem_onchip_mem+0xff784568>
  8045ac:	79000044 	addi	r4,r15,1
  8045b0:	2008913a 	slli	r4,r4,4
  8045b4:	328003cc 	andi	r10,r6,15
  8045b8:	02c000c4 	movi	r11,3
  8045bc:	1107883a 	add	r3,r2,r4
  8045c0:	290b883a 	add	r5,r5,r4
  8045c4:	5a801e2e 	bgeu	r11,r10,804640 <memmove+0x154>
  8045c8:	1813883a 	mov	r9,r3
  8045cc:	2811883a 	mov	r8,r5
  8045d0:	500f883a 	mov	r7,r10
  8045d4:	41000017 	ldw	r4,0(r8)
  8045d8:	4a400104 	addi	r9,r9,4
  8045dc:	39ffff04 	addi	r7,r7,-4
  8045e0:	493fff15 	stw	r4,-4(r9)
  8045e4:	42000104 	addi	r8,r8,4
  8045e8:	59fffa36 	bltu	r11,r7,8045d4 <__alt_mem_onchip_mem+0xff7845d4>
  8045ec:	513fff04 	addi	r4,r10,-4
  8045f0:	2008d0ba 	srli	r4,r4,2
  8045f4:	318000cc 	andi	r6,r6,3
  8045f8:	21000044 	addi	r4,r4,1
  8045fc:	2109883a 	add	r4,r4,r4
  804600:	2109883a 	add	r4,r4,r4
  804604:	1907883a 	add	r3,r3,r4
  804608:	290b883a 	add	r5,r5,r4
  80460c:	30000b26 	beq	r6,zero,80463c <memmove+0x150>
  804610:	198d883a 	add	r6,r3,r6
  804614:	29c00003 	ldbu	r7,0(r5)
  804618:	18c00044 	addi	r3,r3,1
  80461c:	29400044 	addi	r5,r5,1
  804620:	19ffffc5 	stb	r7,-1(r3)
  804624:	19bffb1e 	bne	r3,r6,804614 <__alt_mem_onchip_mem+0xff784614>
  804628:	f800283a 	ret
  80462c:	1007883a 	mov	r3,r2
  804630:	003ff606 	br	80460c <__alt_mem_onchip_mem+0xff78460c>
  804634:	1007883a 	mov	r3,r2
  804638:	003ff506 	br	804610 <__alt_mem_onchip_mem+0xff784610>
  80463c:	f800283a 	ret
  804640:	500d883a 	mov	r6,r10
  804644:	003ff106 	br	80460c <__alt_mem_onchip_mem+0xff78460c>

00804648 <memset>:
  804648:	20c000cc 	andi	r3,r4,3
  80464c:	2005883a 	mov	r2,r4
  804650:	18004426 	beq	r3,zero,804764 <memset+0x11c>
  804654:	31ffffc4 	addi	r7,r6,-1
  804658:	30004026 	beq	r6,zero,80475c <memset+0x114>
  80465c:	2813883a 	mov	r9,r5
  804660:	200d883a 	mov	r6,r4
  804664:	2007883a 	mov	r3,r4
  804668:	00000406 	br	80467c <memset+0x34>
  80466c:	3a3fffc4 	addi	r8,r7,-1
  804670:	31800044 	addi	r6,r6,1
  804674:	38003926 	beq	r7,zero,80475c <memset+0x114>
  804678:	400f883a 	mov	r7,r8
  80467c:	18c00044 	addi	r3,r3,1
  804680:	32400005 	stb	r9,0(r6)
  804684:	1a0000cc 	andi	r8,r3,3
  804688:	403ff81e 	bne	r8,zero,80466c <__alt_mem_onchip_mem+0xff78466c>
  80468c:	010000c4 	movi	r4,3
  804690:	21c02d2e 	bgeu	r4,r7,804748 <memset+0x100>
  804694:	29003fcc 	andi	r4,r5,255
  804698:	200c923a 	slli	r6,r4,8
  80469c:	3108b03a 	or	r4,r6,r4
  8046a0:	200c943a 	slli	r6,r4,16
  8046a4:	218cb03a 	or	r6,r4,r6
  8046a8:	010003c4 	movi	r4,15
  8046ac:	21c0182e 	bgeu	r4,r7,804710 <memset+0xc8>
  8046b0:	3b3ffc04 	addi	r12,r7,-16
  8046b4:	6018d13a 	srli	r12,r12,4
  8046b8:	1a000104 	addi	r8,r3,4
  8046bc:	1ac00204 	addi	r11,r3,8
  8046c0:	6008913a 	slli	r4,r12,4
  8046c4:	1a800304 	addi	r10,r3,12
  8046c8:	1813883a 	mov	r9,r3
  8046cc:	21000504 	addi	r4,r4,20
  8046d0:	1909883a 	add	r4,r3,r4
  8046d4:	49800015 	stw	r6,0(r9)
  8046d8:	41800015 	stw	r6,0(r8)
  8046dc:	59800015 	stw	r6,0(r11)
  8046e0:	51800015 	stw	r6,0(r10)
  8046e4:	42000404 	addi	r8,r8,16
  8046e8:	4a400404 	addi	r9,r9,16
  8046ec:	5ac00404 	addi	r11,r11,16
  8046f0:	52800404 	addi	r10,r10,16
  8046f4:	413ff71e 	bne	r8,r4,8046d4 <__alt_mem_onchip_mem+0xff7846d4>
  8046f8:	63000044 	addi	r12,r12,1
  8046fc:	6018913a 	slli	r12,r12,4
  804700:	39c003cc 	andi	r7,r7,15
  804704:	010000c4 	movi	r4,3
  804708:	1b07883a 	add	r3,r3,r12
  80470c:	21c00e2e 	bgeu	r4,r7,804748 <memset+0x100>
  804710:	1813883a 	mov	r9,r3
  804714:	3811883a 	mov	r8,r7
  804718:	010000c4 	movi	r4,3
  80471c:	49800015 	stw	r6,0(r9)
  804720:	423fff04 	addi	r8,r8,-4
  804724:	4a400104 	addi	r9,r9,4
  804728:	223ffc36 	bltu	r4,r8,80471c <__alt_mem_onchip_mem+0xff78471c>
  80472c:	393fff04 	addi	r4,r7,-4
  804730:	2008d0ba 	srli	r4,r4,2
  804734:	39c000cc 	andi	r7,r7,3
  804738:	21000044 	addi	r4,r4,1
  80473c:	2109883a 	add	r4,r4,r4
  804740:	2109883a 	add	r4,r4,r4
  804744:	1907883a 	add	r3,r3,r4
  804748:	38000526 	beq	r7,zero,804760 <memset+0x118>
  80474c:	19cf883a 	add	r7,r3,r7
  804750:	19400005 	stb	r5,0(r3)
  804754:	18c00044 	addi	r3,r3,1
  804758:	38fffd1e 	bne	r7,r3,804750 <__alt_mem_onchip_mem+0xff784750>
  80475c:	f800283a 	ret
  804760:	f800283a 	ret
  804764:	2007883a 	mov	r3,r4
  804768:	300f883a 	mov	r7,r6
  80476c:	003fc706 	br	80468c <__alt_mem_onchip_mem+0xff78468c>

00804770 <_realloc_r>:
  804770:	defff604 	addi	sp,sp,-40
  804774:	dc800215 	stw	r18,8(sp)
  804778:	dfc00915 	stw	ra,36(sp)
  80477c:	df000815 	stw	fp,32(sp)
  804780:	ddc00715 	stw	r23,28(sp)
  804784:	dd800615 	stw	r22,24(sp)
  804788:	dd400515 	stw	r21,20(sp)
  80478c:	dd000415 	stw	r20,16(sp)
  804790:	dcc00315 	stw	r19,12(sp)
  804794:	dc400115 	stw	r17,4(sp)
  804798:	dc000015 	stw	r16,0(sp)
  80479c:	3025883a 	mov	r18,r6
  8047a0:	2800b726 	beq	r5,zero,804a80 <_realloc_r+0x310>
  8047a4:	282b883a 	mov	r21,r5
  8047a8:	2029883a 	mov	r20,r4
  8047ac:	08063d40 	call	8063d4 <__malloc_lock>
  8047b0:	a8bfff17 	ldw	r2,-4(r21)
  8047b4:	043fff04 	movi	r16,-4
  8047b8:	90c002c4 	addi	r3,r18,11
  8047bc:	01000584 	movi	r4,22
  8047c0:	acfffe04 	addi	r19,r21,-8
  8047c4:	1420703a 	and	r16,r2,r16
  8047c8:	20c0332e 	bgeu	r4,r3,804898 <_realloc_r+0x128>
  8047cc:	047ffe04 	movi	r17,-8
  8047d0:	1c62703a 	and	r17,r3,r17
  8047d4:	8807883a 	mov	r3,r17
  8047d8:	88005816 	blt	r17,zero,80493c <_realloc_r+0x1cc>
  8047dc:	8c805736 	bltu	r17,r18,80493c <_realloc_r+0x1cc>
  8047e0:	80c0300e 	bge	r16,r3,8048a4 <_realloc_r+0x134>
  8047e4:	07002074 	movhi	fp,129
  8047e8:	e7297204 	addi	fp,fp,-23096
  8047ec:	e1c00217 	ldw	r7,8(fp)
  8047f0:	9c09883a 	add	r4,r19,r16
  8047f4:	22000117 	ldw	r8,4(r4)
  8047f8:	21c06326 	beq	r4,r7,804988 <_realloc_r+0x218>
  8047fc:	017fff84 	movi	r5,-2
  804800:	414a703a 	and	r5,r8,r5
  804804:	214b883a 	add	r5,r4,r5
  804808:	29800117 	ldw	r6,4(r5)
  80480c:	3180004c 	andi	r6,r6,1
  804810:	30003f26 	beq	r6,zero,804910 <_realloc_r+0x1a0>
  804814:	1080004c 	andi	r2,r2,1
  804818:	10008326 	beq	r2,zero,804a28 <_realloc_r+0x2b8>
  80481c:	900b883a 	mov	r5,r18
  804820:	a009883a 	mov	r4,r20
  804824:	0803ab40 	call	803ab4 <_malloc_r>
  804828:	1025883a 	mov	r18,r2
  80482c:	10011e26 	beq	r2,zero,804ca8 <_realloc_r+0x538>
  804830:	a93fff17 	ldw	r4,-4(r21)
  804834:	10fffe04 	addi	r3,r2,-8
  804838:	00bfff84 	movi	r2,-2
  80483c:	2084703a 	and	r2,r4,r2
  804840:	9885883a 	add	r2,r19,r2
  804844:	1880ee26 	beq	r3,r2,804c00 <_realloc_r+0x490>
  804848:	81bfff04 	addi	r6,r16,-4
  80484c:	00800904 	movi	r2,36
  804850:	1180b836 	bltu	r2,r6,804b34 <_realloc_r+0x3c4>
  804854:	00c004c4 	movi	r3,19
  804858:	19809636 	bltu	r3,r6,804ab4 <_realloc_r+0x344>
  80485c:	9005883a 	mov	r2,r18
  804860:	a807883a 	mov	r3,r21
  804864:	19000017 	ldw	r4,0(r3)
  804868:	11000015 	stw	r4,0(r2)
  80486c:	19000117 	ldw	r4,4(r3)
  804870:	11000115 	stw	r4,4(r2)
  804874:	18c00217 	ldw	r3,8(r3)
  804878:	10c00215 	stw	r3,8(r2)
  80487c:	a80b883a 	mov	r5,r21
  804880:	a009883a 	mov	r4,r20
  804884:	080553c0 	call	80553c <_free_r>
  804888:	a009883a 	mov	r4,r20
  80488c:	08063f80 	call	8063f8 <__malloc_unlock>
  804890:	9005883a 	mov	r2,r18
  804894:	00001206 	br	8048e0 <_realloc_r+0x170>
  804898:	00c00404 	movi	r3,16
  80489c:	1823883a 	mov	r17,r3
  8048a0:	003fce06 	br	8047dc <__alt_mem_onchip_mem+0xff7847dc>
  8048a4:	a825883a 	mov	r18,r21
  8048a8:	8445c83a 	sub	r2,r16,r17
  8048ac:	00c003c4 	movi	r3,15
  8048b0:	18802636 	bltu	r3,r2,80494c <_realloc_r+0x1dc>
  8048b4:	99800117 	ldw	r6,4(r19)
  8048b8:	9c07883a 	add	r3,r19,r16
  8048bc:	3180004c 	andi	r6,r6,1
  8048c0:	3420b03a 	or	r16,r6,r16
  8048c4:	9c000115 	stw	r16,4(r19)
  8048c8:	18800117 	ldw	r2,4(r3)
  8048cc:	10800054 	ori	r2,r2,1
  8048d0:	18800115 	stw	r2,4(r3)
  8048d4:	a009883a 	mov	r4,r20
  8048d8:	08063f80 	call	8063f8 <__malloc_unlock>
  8048dc:	9005883a 	mov	r2,r18
  8048e0:	dfc00917 	ldw	ra,36(sp)
  8048e4:	df000817 	ldw	fp,32(sp)
  8048e8:	ddc00717 	ldw	r23,28(sp)
  8048ec:	dd800617 	ldw	r22,24(sp)
  8048f0:	dd400517 	ldw	r21,20(sp)
  8048f4:	dd000417 	ldw	r20,16(sp)
  8048f8:	dcc00317 	ldw	r19,12(sp)
  8048fc:	dc800217 	ldw	r18,8(sp)
  804900:	dc400117 	ldw	r17,4(sp)
  804904:	dc000017 	ldw	r16,0(sp)
  804908:	dec00a04 	addi	sp,sp,40
  80490c:	f800283a 	ret
  804910:	017fff04 	movi	r5,-4
  804914:	414a703a 	and	r5,r8,r5
  804918:	814d883a 	add	r6,r16,r5
  80491c:	30c01f16 	blt	r6,r3,80499c <_realloc_r+0x22c>
  804920:	20800317 	ldw	r2,12(r4)
  804924:	20c00217 	ldw	r3,8(r4)
  804928:	a825883a 	mov	r18,r21
  80492c:	3021883a 	mov	r16,r6
  804930:	18800315 	stw	r2,12(r3)
  804934:	10c00215 	stw	r3,8(r2)
  804938:	003fdb06 	br	8048a8 <__alt_mem_onchip_mem+0xff7848a8>
  80493c:	00800304 	movi	r2,12
  804940:	a0800015 	stw	r2,0(r20)
  804944:	0005883a 	mov	r2,zero
  804948:	003fe506 	br	8048e0 <__alt_mem_onchip_mem+0xff7848e0>
  80494c:	98c00117 	ldw	r3,4(r19)
  804950:	9c4b883a 	add	r5,r19,r17
  804954:	11000054 	ori	r4,r2,1
  804958:	18c0004c 	andi	r3,r3,1
  80495c:	1c62b03a 	or	r17,r3,r17
  804960:	9c400115 	stw	r17,4(r19)
  804964:	29000115 	stw	r4,4(r5)
  804968:	2885883a 	add	r2,r5,r2
  80496c:	10c00117 	ldw	r3,4(r2)
  804970:	29400204 	addi	r5,r5,8
  804974:	a009883a 	mov	r4,r20
  804978:	18c00054 	ori	r3,r3,1
  80497c:	10c00115 	stw	r3,4(r2)
  804980:	080553c0 	call	80553c <_free_r>
  804984:	003fd306 	br	8048d4 <__alt_mem_onchip_mem+0xff7848d4>
  804988:	017fff04 	movi	r5,-4
  80498c:	414a703a 	and	r5,r8,r5
  804990:	89800404 	addi	r6,r17,16
  804994:	8151883a 	add	r8,r16,r5
  804998:	4180590e 	bge	r8,r6,804b00 <_realloc_r+0x390>
  80499c:	1080004c 	andi	r2,r2,1
  8049a0:	103f9e1e 	bne	r2,zero,80481c <__alt_mem_onchip_mem+0xff78481c>
  8049a4:	adbffe17 	ldw	r22,-8(r21)
  8049a8:	00bfff04 	movi	r2,-4
  8049ac:	9dadc83a 	sub	r22,r19,r22
  8049b0:	b1800117 	ldw	r6,4(r22)
  8049b4:	3084703a 	and	r2,r6,r2
  8049b8:	20002026 	beq	r4,zero,804a3c <_realloc_r+0x2cc>
  8049bc:	80af883a 	add	r23,r16,r2
  8049c0:	b96f883a 	add	r23,r23,r5
  8049c4:	21c05f26 	beq	r4,r7,804b44 <_realloc_r+0x3d4>
  8049c8:	b8c01c16 	blt	r23,r3,804a3c <_realloc_r+0x2cc>
  8049cc:	20800317 	ldw	r2,12(r4)
  8049d0:	20c00217 	ldw	r3,8(r4)
  8049d4:	81bfff04 	addi	r6,r16,-4
  8049d8:	01000904 	movi	r4,36
  8049dc:	18800315 	stw	r2,12(r3)
  8049e0:	10c00215 	stw	r3,8(r2)
  8049e4:	b0c00217 	ldw	r3,8(r22)
  8049e8:	b0800317 	ldw	r2,12(r22)
  8049ec:	b4800204 	addi	r18,r22,8
  8049f0:	18800315 	stw	r2,12(r3)
  8049f4:	10c00215 	stw	r3,8(r2)
  8049f8:	21801b36 	bltu	r4,r6,804a68 <_realloc_r+0x2f8>
  8049fc:	008004c4 	movi	r2,19
  804a00:	1180352e 	bgeu	r2,r6,804ad8 <_realloc_r+0x368>
  804a04:	a8800017 	ldw	r2,0(r21)
  804a08:	b0800215 	stw	r2,8(r22)
  804a0c:	a8800117 	ldw	r2,4(r21)
  804a10:	b0800315 	stw	r2,12(r22)
  804a14:	008006c4 	movi	r2,27
  804a18:	11807f36 	bltu	r2,r6,804c18 <_realloc_r+0x4a8>
  804a1c:	b0800404 	addi	r2,r22,16
  804a20:	ad400204 	addi	r21,r21,8
  804a24:	00002d06 	br	804adc <_realloc_r+0x36c>
  804a28:	adbffe17 	ldw	r22,-8(r21)
  804a2c:	00bfff04 	movi	r2,-4
  804a30:	9dadc83a 	sub	r22,r19,r22
  804a34:	b1000117 	ldw	r4,4(r22)
  804a38:	2084703a 	and	r2,r4,r2
  804a3c:	b03f7726 	beq	r22,zero,80481c <__alt_mem_onchip_mem+0xff78481c>
  804a40:	80af883a 	add	r23,r16,r2
  804a44:	b8ff7516 	blt	r23,r3,80481c <__alt_mem_onchip_mem+0xff78481c>
  804a48:	b0800317 	ldw	r2,12(r22)
  804a4c:	b0c00217 	ldw	r3,8(r22)
  804a50:	81bfff04 	addi	r6,r16,-4
  804a54:	01000904 	movi	r4,36
  804a58:	18800315 	stw	r2,12(r3)
  804a5c:	10c00215 	stw	r3,8(r2)
  804a60:	b4800204 	addi	r18,r22,8
  804a64:	21bfe52e 	bgeu	r4,r6,8049fc <__alt_mem_onchip_mem+0xff7849fc>
  804a68:	a80b883a 	mov	r5,r21
  804a6c:	9009883a 	mov	r4,r18
  804a70:	08044ec0 	call	8044ec <memmove>
  804a74:	b821883a 	mov	r16,r23
  804a78:	b027883a 	mov	r19,r22
  804a7c:	003f8a06 	br	8048a8 <__alt_mem_onchip_mem+0xff7848a8>
  804a80:	300b883a 	mov	r5,r6
  804a84:	dfc00917 	ldw	ra,36(sp)
  804a88:	df000817 	ldw	fp,32(sp)
  804a8c:	ddc00717 	ldw	r23,28(sp)
  804a90:	dd800617 	ldw	r22,24(sp)
  804a94:	dd400517 	ldw	r21,20(sp)
  804a98:	dd000417 	ldw	r20,16(sp)
  804a9c:	dcc00317 	ldw	r19,12(sp)
  804aa0:	dc800217 	ldw	r18,8(sp)
  804aa4:	dc400117 	ldw	r17,4(sp)
  804aa8:	dc000017 	ldw	r16,0(sp)
  804aac:	dec00a04 	addi	sp,sp,40
  804ab0:	0803ab41 	jmpi	803ab4 <_malloc_r>
  804ab4:	a8c00017 	ldw	r3,0(r21)
  804ab8:	90c00015 	stw	r3,0(r18)
  804abc:	a8c00117 	ldw	r3,4(r21)
  804ac0:	90c00115 	stw	r3,4(r18)
  804ac4:	00c006c4 	movi	r3,27
  804ac8:	19804536 	bltu	r3,r6,804be0 <_realloc_r+0x470>
  804acc:	90800204 	addi	r2,r18,8
  804ad0:	a8c00204 	addi	r3,r21,8
  804ad4:	003f6306 	br	804864 <__alt_mem_onchip_mem+0xff784864>
  804ad8:	9005883a 	mov	r2,r18
  804adc:	a8c00017 	ldw	r3,0(r21)
  804ae0:	b821883a 	mov	r16,r23
  804ae4:	b027883a 	mov	r19,r22
  804ae8:	10c00015 	stw	r3,0(r2)
  804aec:	a8c00117 	ldw	r3,4(r21)
  804af0:	10c00115 	stw	r3,4(r2)
  804af4:	a8c00217 	ldw	r3,8(r21)
  804af8:	10c00215 	stw	r3,8(r2)
  804afc:	003f6a06 	br	8048a8 <__alt_mem_onchip_mem+0xff7848a8>
  804b00:	9c67883a 	add	r19,r19,r17
  804b04:	4445c83a 	sub	r2,r8,r17
  804b08:	e4c00215 	stw	r19,8(fp)
  804b0c:	10800054 	ori	r2,r2,1
  804b10:	98800115 	stw	r2,4(r19)
  804b14:	a8bfff17 	ldw	r2,-4(r21)
  804b18:	a009883a 	mov	r4,r20
  804b1c:	1080004c 	andi	r2,r2,1
  804b20:	1462b03a 	or	r17,r2,r17
  804b24:	ac7fff15 	stw	r17,-4(r21)
  804b28:	08063f80 	call	8063f8 <__malloc_unlock>
  804b2c:	a805883a 	mov	r2,r21
  804b30:	003f6b06 	br	8048e0 <__alt_mem_onchip_mem+0xff7848e0>
  804b34:	a80b883a 	mov	r5,r21
  804b38:	9009883a 	mov	r4,r18
  804b3c:	08044ec0 	call	8044ec <memmove>
  804b40:	003f4e06 	br	80487c <__alt_mem_onchip_mem+0xff78487c>
  804b44:	89000404 	addi	r4,r17,16
  804b48:	b93fbc16 	blt	r23,r4,804a3c <__alt_mem_onchip_mem+0xff784a3c>
  804b4c:	b0800317 	ldw	r2,12(r22)
  804b50:	b0c00217 	ldw	r3,8(r22)
  804b54:	81bfff04 	addi	r6,r16,-4
  804b58:	01000904 	movi	r4,36
  804b5c:	18800315 	stw	r2,12(r3)
  804b60:	10c00215 	stw	r3,8(r2)
  804b64:	b4800204 	addi	r18,r22,8
  804b68:	21804336 	bltu	r4,r6,804c78 <_realloc_r+0x508>
  804b6c:	008004c4 	movi	r2,19
  804b70:	11803f2e 	bgeu	r2,r6,804c70 <_realloc_r+0x500>
  804b74:	a8800017 	ldw	r2,0(r21)
  804b78:	b0800215 	stw	r2,8(r22)
  804b7c:	a8800117 	ldw	r2,4(r21)
  804b80:	b0800315 	stw	r2,12(r22)
  804b84:	008006c4 	movi	r2,27
  804b88:	11803f36 	bltu	r2,r6,804c88 <_realloc_r+0x518>
  804b8c:	b0800404 	addi	r2,r22,16
  804b90:	ad400204 	addi	r21,r21,8
  804b94:	a8c00017 	ldw	r3,0(r21)
  804b98:	10c00015 	stw	r3,0(r2)
  804b9c:	a8c00117 	ldw	r3,4(r21)
  804ba0:	10c00115 	stw	r3,4(r2)
  804ba4:	a8c00217 	ldw	r3,8(r21)
  804ba8:	10c00215 	stw	r3,8(r2)
  804bac:	b447883a 	add	r3,r22,r17
  804bb0:	bc45c83a 	sub	r2,r23,r17
  804bb4:	e0c00215 	stw	r3,8(fp)
  804bb8:	10800054 	ori	r2,r2,1
  804bbc:	18800115 	stw	r2,4(r3)
  804bc0:	b0800117 	ldw	r2,4(r22)
  804bc4:	a009883a 	mov	r4,r20
  804bc8:	1080004c 	andi	r2,r2,1
  804bcc:	1462b03a 	or	r17,r2,r17
  804bd0:	b4400115 	stw	r17,4(r22)
  804bd4:	08063f80 	call	8063f8 <__malloc_unlock>
  804bd8:	9005883a 	mov	r2,r18
  804bdc:	003f4006 	br	8048e0 <__alt_mem_onchip_mem+0xff7848e0>
  804be0:	a8c00217 	ldw	r3,8(r21)
  804be4:	90c00215 	stw	r3,8(r18)
  804be8:	a8c00317 	ldw	r3,12(r21)
  804bec:	90c00315 	stw	r3,12(r18)
  804bf0:	30801126 	beq	r6,r2,804c38 <_realloc_r+0x4c8>
  804bf4:	90800404 	addi	r2,r18,16
  804bf8:	a8c00404 	addi	r3,r21,16
  804bfc:	003f1906 	br	804864 <__alt_mem_onchip_mem+0xff784864>
  804c00:	90ffff17 	ldw	r3,-4(r18)
  804c04:	00bfff04 	movi	r2,-4
  804c08:	a825883a 	mov	r18,r21
  804c0c:	1884703a 	and	r2,r3,r2
  804c10:	80a1883a 	add	r16,r16,r2
  804c14:	003f2406 	br	8048a8 <__alt_mem_onchip_mem+0xff7848a8>
  804c18:	a8800217 	ldw	r2,8(r21)
  804c1c:	b0800415 	stw	r2,16(r22)
  804c20:	a8800317 	ldw	r2,12(r21)
  804c24:	b0800515 	stw	r2,20(r22)
  804c28:	31000a26 	beq	r6,r4,804c54 <_realloc_r+0x4e4>
  804c2c:	b0800604 	addi	r2,r22,24
  804c30:	ad400404 	addi	r21,r21,16
  804c34:	003fa906 	br	804adc <__alt_mem_onchip_mem+0xff784adc>
  804c38:	a9000417 	ldw	r4,16(r21)
  804c3c:	90800604 	addi	r2,r18,24
  804c40:	a8c00604 	addi	r3,r21,24
  804c44:	91000415 	stw	r4,16(r18)
  804c48:	a9000517 	ldw	r4,20(r21)
  804c4c:	91000515 	stw	r4,20(r18)
  804c50:	003f0406 	br	804864 <__alt_mem_onchip_mem+0xff784864>
  804c54:	a8c00417 	ldw	r3,16(r21)
  804c58:	ad400604 	addi	r21,r21,24
  804c5c:	b0800804 	addi	r2,r22,32
  804c60:	b0c00615 	stw	r3,24(r22)
  804c64:	a8ffff17 	ldw	r3,-4(r21)
  804c68:	b0c00715 	stw	r3,28(r22)
  804c6c:	003f9b06 	br	804adc <__alt_mem_onchip_mem+0xff784adc>
  804c70:	9005883a 	mov	r2,r18
  804c74:	003fc706 	br	804b94 <__alt_mem_onchip_mem+0xff784b94>
  804c78:	a80b883a 	mov	r5,r21
  804c7c:	9009883a 	mov	r4,r18
  804c80:	08044ec0 	call	8044ec <memmove>
  804c84:	003fc906 	br	804bac <__alt_mem_onchip_mem+0xff784bac>
  804c88:	a8800217 	ldw	r2,8(r21)
  804c8c:	b0800415 	stw	r2,16(r22)
  804c90:	a8800317 	ldw	r2,12(r21)
  804c94:	b0800515 	stw	r2,20(r22)
  804c98:	31000726 	beq	r6,r4,804cb8 <_realloc_r+0x548>
  804c9c:	b0800604 	addi	r2,r22,24
  804ca0:	ad400404 	addi	r21,r21,16
  804ca4:	003fbb06 	br	804b94 <__alt_mem_onchip_mem+0xff784b94>
  804ca8:	a009883a 	mov	r4,r20
  804cac:	08063f80 	call	8063f8 <__malloc_unlock>
  804cb0:	0005883a 	mov	r2,zero
  804cb4:	003f0a06 	br	8048e0 <__alt_mem_onchip_mem+0xff7848e0>
  804cb8:	a8c00417 	ldw	r3,16(r21)
  804cbc:	ad400604 	addi	r21,r21,24
  804cc0:	b0800804 	addi	r2,r22,32
  804cc4:	b0c00615 	stw	r3,24(r22)
  804cc8:	a8ffff17 	ldw	r3,-4(r21)
  804ccc:	b0c00715 	stw	r3,28(r22)
  804cd0:	003fb006 	br	804b94 <__alt_mem_onchip_mem+0xff784b94>

00804cd4 <_sbrk_r>:
  804cd4:	defffd04 	addi	sp,sp,-12
  804cd8:	dc000015 	stw	r16,0(sp)
  804cdc:	04002074 	movhi	r16,129
  804ce0:	dc400115 	stw	r17,4(sp)
  804ce4:	8436f104 	addi	r16,r16,-9276
  804ce8:	2023883a 	mov	r17,r4
  804cec:	2809883a 	mov	r4,r5
  804cf0:	dfc00215 	stw	ra,8(sp)
  804cf4:	80000015 	stw	zero,0(r16)
  804cf8:	08065b80 	call	8065b8 <sbrk>
  804cfc:	00ffffc4 	movi	r3,-1
  804d00:	10c00526 	beq	r2,r3,804d18 <_sbrk_r+0x44>
  804d04:	dfc00217 	ldw	ra,8(sp)
  804d08:	dc400117 	ldw	r17,4(sp)
  804d0c:	dc000017 	ldw	r16,0(sp)
  804d10:	dec00304 	addi	sp,sp,12
  804d14:	f800283a 	ret
  804d18:	80c00017 	ldw	r3,0(r16)
  804d1c:	183ff926 	beq	r3,zero,804d04 <__alt_mem_onchip_mem+0xff784d04>
  804d20:	88c00015 	stw	r3,0(r17)
  804d24:	003ff706 	br	804d04 <__alt_mem_onchip_mem+0xff784d04>

00804d28 <__sread>:
  804d28:	defffe04 	addi	sp,sp,-8
  804d2c:	dc000015 	stw	r16,0(sp)
  804d30:	2821883a 	mov	r16,r5
  804d34:	2940038f 	ldh	r5,14(r5)
  804d38:	dfc00115 	stw	ra,4(sp)
  804d3c:	0805a680 	call	805a68 <_read_r>
  804d40:	10000716 	blt	r2,zero,804d60 <__sread+0x38>
  804d44:	80c01417 	ldw	r3,80(r16)
  804d48:	1887883a 	add	r3,r3,r2
  804d4c:	80c01415 	stw	r3,80(r16)
  804d50:	dfc00117 	ldw	ra,4(sp)
  804d54:	dc000017 	ldw	r16,0(sp)
  804d58:	dec00204 	addi	sp,sp,8
  804d5c:	f800283a 	ret
  804d60:	80c0030b 	ldhu	r3,12(r16)
  804d64:	18fbffcc 	andi	r3,r3,61439
  804d68:	80c0030d 	sth	r3,12(r16)
  804d6c:	dfc00117 	ldw	ra,4(sp)
  804d70:	dc000017 	ldw	r16,0(sp)
  804d74:	dec00204 	addi	sp,sp,8
  804d78:	f800283a 	ret

00804d7c <__seofread>:
  804d7c:	0005883a 	mov	r2,zero
  804d80:	f800283a 	ret

00804d84 <__swrite>:
  804d84:	2880030b 	ldhu	r2,12(r5)
  804d88:	defffb04 	addi	sp,sp,-20
  804d8c:	dcc00315 	stw	r19,12(sp)
  804d90:	dc800215 	stw	r18,8(sp)
  804d94:	dc400115 	stw	r17,4(sp)
  804d98:	dc000015 	stw	r16,0(sp)
  804d9c:	dfc00415 	stw	ra,16(sp)
  804da0:	10c0400c 	andi	r3,r2,256
  804da4:	2821883a 	mov	r16,r5
  804da8:	2023883a 	mov	r17,r4
  804dac:	3025883a 	mov	r18,r6
  804db0:	3827883a 	mov	r19,r7
  804db4:	18000526 	beq	r3,zero,804dcc <__swrite+0x48>
  804db8:	2940038f 	ldh	r5,14(r5)
  804dbc:	01c00084 	movi	r7,2
  804dc0:	000d883a 	mov	r6,zero
  804dc4:	080584c0 	call	80584c <_lseek_r>
  804dc8:	8080030b 	ldhu	r2,12(r16)
  804dcc:	8140038f 	ldh	r5,14(r16)
  804dd0:	10bbffcc 	andi	r2,r2,61439
  804dd4:	980f883a 	mov	r7,r19
  804dd8:	900d883a 	mov	r6,r18
  804ddc:	8809883a 	mov	r4,r17
  804de0:	8080030d 	sth	r2,12(r16)
  804de4:	dfc00417 	ldw	ra,16(sp)
  804de8:	dcc00317 	ldw	r19,12(sp)
  804dec:	dc800217 	ldw	r18,8(sp)
  804df0:	dc400117 	ldw	r17,4(sp)
  804df4:	dc000017 	ldw	r16,0(sp)
  804df8:	dec00504 	addi	sp,sp,20
  804dfc:	0804e641 	jmpi	804e64 <_write_r>

00804e00 <__sseek>:
  804e00:	defffe04 	addi	sp,sp,-8
  804e04:	dc000015 	stw	r16,0(sp)
  804e08:	2821883a 	mov	r16,r5
  804e0c:	2940038f 	ldh	r5,14(r5)
  804e10:	dfc00115 	stw	ra,4(sp)
  804e14:	080584c0 	call	80584c <_lseek_r>
  804e18:	00ffffc4 	movi	r3,-1
  804e1c:	10c00826 	beq	r2,r3,804e40 <__sseek+0x40>
  804e20:	80c0030b 	ldhu	r3,12(r16)
  804e24:	80801415 	stw	r2,80(r16)
  804e28:	18c40014 	ori	r3,r3,4096
  804e2c:	80c0030d 	sth	r3,12(r16)
  804e30:	dfc00117 	ldw	ra,4(sp)
  804e34:	dc000017 	ldw	r16,0(sp)
  804e38:	dec00204 	addi	sp,sp,8
  804e3c:	f800283a 	ret
  804e40:	80c0030b 	ldhu	r3,12(r16)
  804e44:	18fbffcc 	andi	r3,r3,61439
  804e48:	80c0030d 	sth	r3,12(r16)
  804e4c:	dfc00117 	ldw	ra,4(sp)
  804e50:	dc000017 	ldw	r16,0(sp)
  804e54:	dec00204 	addi	sp,sp,8
  804e58:	f800283a 	ret

00804e5c <__sclose>:
  804e5c:	2940038f 	ldh	r5,14(r5)
  804e60:	08050181 	jmpi	805018 <_close_r>

00804e64 <_write_r>:
  804e64:	defffd04 	addi	sp,sp,-12
  804e68:	2805883a 	mov	r2,r5
  804e6c:	dc000015 	stw	r16,0(sp)
  804e70:	04002074 	movhi	r16,129
  804e74:	dc400115 	stw	r17,4(sp)
  804e78:	300b883a 	mov	r5,r6
  804e7c:	8436f104 	addi	r16,r16,-9276
  804e80:	2023883a 	mov	r17,r4
  804e84:	380d883a 	mov	r6,r7
  804e88:	1009883a 	mov	r4,r2
  804e8c:	dfc00215 	stw	ra,8(sp)
  804e90:	80000015 	stw	zero,0(r16)
  804e94:	08068480 	call	806848 <write>
  804e98:	00ffffc4 	movi	r3,-1
  804e9c:	10c00526 	beq	r2,r3,804eb4 <_write_r+0x50>
  804ea0:	dfc00217 	ldw	ra,8(sp)
  804ea4:	dc400117 	ldw	r17,4(sp)
  804ea8:	dc000017 	ldw	r16,0(sp)
  804eac:	dec00304 	addi	sp,sp,12
  804eb0:	f800283a 	ret
  804eb4:	80c00017 	ldw	r3,0(r16)
  804eb8:	183ff926 	beq	r3,zero,804ea0 <__alt_mem_onchip_mem+0xff784ea0>
  804ebc:	88c00015 	stw	r3,0(r17)
  804ec0:	003ff706 	br	804ea0 <__alt_mem_onchip_mem+0xff784ea0>

00804ec4 <__swsetup_r>:
  804ec4:	00802074 	movhi	r2,129
  804ec8:	defffd04 	addi	sp,sp,-12
  804ecc:	10af7004 	addi	r2,r2,-16960
  804ed0:	dc400115 	stw	r17,4(sp)
  804ed4:	2023883a 	mov	r17,r4
  804ed8:	11000017 	ldw	r4,0(r2)
  804edc:	dc000015 	stw	r16,0(sp)
  804ee0:	dfc00215 	stw	ra,8(sp)
  804ee4:	2821883a 	mov	r16,r5
  804ee8:	20000226 	beq	r4,zero,804ef4 <__swsetup_r+0x30>
  804eec:	20800e17 	ldw	r2,56(r4)
  804ef0:	10003126 	beq	r2,zero,804fb8 <__swsetup_r+0xf4>
  804ef4:	8080030b 	ldhu	r2,12(r16)
  804ef8:	10c0020c 	andi	r3,r2,8
  804efc:	1009883a 	mov	r4,r2
  804f00:	18000f26 	beq	r3,zero,804f40 <__swsetup_r+0x7c>
  804f04:	80c00417 	ldw	r3,16(r16)
  804f08:	18001526 	beq	r3,zero,804f60 <__swsetup_r+0x9c>
  804f0c:	1100004c 	andi	r4,r2,1
  804f10:	20001c1e 	bne	r4,zero,804f84 <__swsetup_r+0xc0>
  804f14:	1080008c 	andi	r2,r2,2
